                                      1 ;--------------------------------------------------------
                                      2 ; File Created by SDCC : free open source ISO C Compiler 
                                      3 ; Version 4.3.2 #14228 (MINGW64)
                                      4 ;--------------------------------------------------------
                                      5 	.module SpriteCamera
                                      6 	.optsdcc -msm83
                                      7 	
                                      8 ;--------------------------------------------------------
                                      9 ; Public variables in this module
                                     10 ;--------------------------------------------------------
                                     11 	.globl _Destroy_SpriteCamera
                                     12 	.globl _Update_SpriteCamera
                                     13 	.globl _Start_SpriteCamera
                                     14 	.globl ___bank_SpriteCamera
                                     15 ;--------------------------------------------------------
                                     16 ; special function registers
                                     17 ;--------------------------------------------------------
                                     18 ;--------------------------------------------------------
                                     19 ; ram data
                                     20 ;--------------------------------------------------------
                                     21 	.area _DATA
                                     22 ;--------------------------------------------------------
                                     23 ; ram data
                                     24 ;--------------------------------------------------------
                                     25 	.area _INITIALIZED
                                     26 ;--------------------------------------------------------
                                     27 ; absolute external ram data
                                     28 ;--------------------------------------------------------
                                     29 	.area _DABS (ABS)
                                     30 ;--------------------------------------------------------
                                     31 ; global & static initialisations
                                     32 ;--------------------------------------------------------
                                     33 	.area _HOME
                                     34 	.area _GSINIT
                                     35 	.area _GSFINAL
                                     36 	.area _GSINIT
                                     37 ;--------------------------------------------------------
                                     38 ; Home
                                     39 ;--------------------------------------------------------
                                     40 	.area _HOME
                                     41 	.area _HOME
                                     42 ;--------------------------------------------------------
                                     43 ; code
                                     44 ;--------------------------------------------------------
                                     45 	.area _CODE_255
                           000000    46 	G$Start_SpriteCamera$0$0	= .
                                     47 	.globl	G$Start_SpriteCamera$0$0
                           000000    48 	C$SpriteCamera.c$11$0_0$178	= .
                                     49 	.globl	C$SpriteCamera.c$11$0_0$178
                                     50 ;SpriteCamera.c:11: void START() {
                                     51 ;	---------------------------------
                                     52 ; Function Start_SpriteCamera
                                     53 ; ---------------------------------
      000000                         54 _Start_SpriteCamera::
                           000000    55 	C$SpriteCamera.c$12$1_0$178	= .
                                     56 	.globl	C$SpriteCamera.c$12$1_0$178
                                     57 ;SpriteCamera.c:12: THIS->lim_x = 1000;
      000000 21r00r00         [12]   58 	ld	hl, #_THIS
      000003 2A               [ 8]   59 	ld	a, (hl+)
      000004 4F               [ 4]   60 	ld	c, a
      000005 46               [ 8]   61 	ld	b, (hl)
      000006 21 15 00         [12]   62 	ld	hl, #0x0015
      000009 09               [ 8]   63 	add	hl, bc
      00000A 3E E8            [ 8]   64 	ld	a, #0xe8
      00000C 22               [ 8]   65 	ld	(hl+), a
      00000D 36 03            [12]   66 	ld	(hl), #0x03
                           00000F    67 	C$SpriteCamera.c$13$1_0$178	= .
                                     68 	.globl	C$SpriteCamera.c$13$1_0$178
                                     69 ;SpriteCamera.c:13: THIS->lim_y = 1000;
      00000F 21r00r00         [12]   70 	ld	hl, #_THIS
      000012 2A               [ 8]   71 	ld	a, (hl+)
      000013 4F               [ 4]   72 	ld	c, a
      000014 46               [ 8]   73 	ld	b, (hl)
      000015 21 17 00         [12]   74 	ld	hl, #0x0017
      000018 09               [ 8]   75 	add	hl, bc
      000019 3E E8            [ 8]   76 	ld	a, #0xe8
      00001B 22               [ 8]   77 	ld	(hl+), a
      00001C 36 03            [12]   78 	ld	(hl), #0x03
                           00001E    79 	C$SpriteCamera.c$14$1_0$178	= .
                                     80 	.globl	C$SpriteCamera.c$14$1_0$178
                                     81 ;SpriteCamera.c:14: }
                           00001E    82 	C$SpriteCamera.c$14$1_0$178	= .
                                     83 	.globl	C$SpriteCamera.c$14$1_0$178
                           00001E    84 	XG$Start_SpriteCamera$0$0	= .
                                     85 	.globl	XG$Start_SpriteCamera$0$0
      00001E C9               [16]   86 	ret
                           0000FF    87 G$__bank_SpriteCamera$0_0$0 == 0x00ff
                           0000FF    88 ___bank_SpriteCamera	=	0x00ff
                           00001F    89 	G$Update_SpriteCamera$0$0	= .
                                     90 	.globl	G$Update_SpriteCamera$0$0
                           00001F    91 	C$SpriteCamera.c$16$1_0$179	= .
                                     92 	.globl	C$SpriteCamera.c$16$1_0$179
                                     93 ;SpriteCamera.c:16: void UPDATE() {
                                     94 ;	---------------------------------
                                     95 ; Function Update_SpriteCamera
                                     96 ; ---------------------------------
      00001F                         97 _Update_SpriteCamera::
      00001F E8 F9            [16]   98 	add	sp, #-7
                           000021    99 	C$SpriteCamera.c$17$1_0$179	= .
                                    100 	.globl	C$SpriteCamera.c$17$1_0$179
                                    101 ;SpriteCamera.c:17: THIS->y = s_horse->y - 18;
      000021 21r00r00         [12]  102 	ld	hl, #_THIS
      000024 2A               [ 8]  103 	ld	a, (hl+)
      000025 46               [ 8]  104 	ld	b, (hl)
      000026 C6 0E            [ 8]  105 	add	a, #0x0e
      000028 4F               [ 4]  106 	ld	c, a
      000029 30 01            [12]  107 	jr	NC, 00177$
      00002B 04               [ 4]  108 	inc	b
      00002C                        109 00177$:
      00002C 21r00r00         [12]  110 	ld	hl, #_s_horse
      00002F 2A               [ 8]  111 	ld	a, (hl+)
      000030 5F               [ 4]  112 	ld	e, a
      000031 56               [ 8]  113 	ld	d, (hl)
      000032 21 0E 00         [12]  114 	ld	hl, #0x000e
      000035 19               [ 8]  115 	add	hl, de
      000036 2A               [ 8]  116 	ld	a, (hl+)
      000037 6E               [ 8]  117 	ld	l, (hl)
                                    118 ;	spillPairReg hl
      000038 C6 EE            [ 8]  119 	add	a, #0xee
      00003A 5F               [ 4]  120 	ld	e, a
      00003B 7D               [ 4]  121 	ld	a, l
      00003C CE FF            [ 8]  122 	adc	a, #0xff
      00003E 57               [ 4]  123 	ld	d, a
      00003F 7B               [ 4]  124 	ld	a, e
      000040 02               [ 8]  125 	ld	(bc), a
      000041 03               [ 8]  126 	inc	bc
      000042 7A               [ 4]  127 	ld	a, d
      000043 02               [ 8]  128 	ld	(bc), a
                           000044   129 	C$SpriteCamera.c$18$2_0$180	= .
                                    130 	.globl	C$SpriteCamera.c$18$2_0$180
                                    131 ;SpriteCamera.c:18: INT8 delta_x = 0;
      000044 F8 00            [12]  132 	ldhl	sp,	#0
      000046 36 00            [12]  133 	ld	(hl), #0x00
                           000048   134 	C$SpriteCamera.c$17$1_2$179	= .
                                    135 	.globl	C$SpriteCamera.c$17$1_2$179
                                    136 ;SpriteCamera.c:17: THIS->y = s_horse->y - 18;
      000048 21r00r00         [12]  137 	ld	hl, #_THIS
      00004B 2A               [ 8]  138 	ld	a, (hl+)
      00004C 5F               [ 4]  139 	ld	e, a
      00004D 56               [ 8]  140 	ld	d, (hl)
      00004E 21r00r00         [12]  141 	ld	hl, #_s_horse
      000051 2A               [ 8]  142 	ld	a, (hl+)
      000052 46               [ 8]  143 	ld	b, (hl)
                           000053   144 	C$SpriteCamera.c$20$1_2$179	= .
                                    145 	.globl	C$SpriteCamera.c$20$1_2$179
                                    146 ;SpriteCamera.c:20: UINT16 final_camera_x = s_horse->x + 56;
      000053 C6 0C            [ 8]  147 	add	a, #0x0c
      000055 4F               [ 4]  148 	ld	c, a
      000056 30 01            [12]  149 	jr	NC, 00178$
      000058 04               [ 4]  150 	inc	b
      000059                        151 00178$:
                           000059   152 	C$SpriteCamera.c$23$1_2$179	= .
                                    153 	.globl	C$SpriteCamera.c$23$1_2$179
                                    154 ;SpriteCamera.c:23: if(THIS->x > final_camera_x_max){delta_x=-4;}
      000059 21 0C 00         [12]  155 	ld	hl, #0x000c
      00005C 19               [ 8]  156 	add	hl, de
      00005D E5               [16]  157 	push	hl
      00005E 7D               [ 4]  158 	ld	a, l
      00005F F8 03            [12]  159 	ldhl	sp,	#3
      000061 77               [ 8]  160 	ld	(hl), a
      000062 E1               [12]  161 	pop	hl
      000063 7C               [ 4]  162 	ld	a, h
      000064 F8 02            [12]  163 	ldhl	sp,	#2
                           000066   164 	C$SpriteCamera.c$20$1_2$179	= .
                                    165 	.globl	C$SpriteCamera.c$20$1_2$179
                                    166 ;SpriteCamera.c:20: UINT16 final_camera_x = s_horse->x + 56;
      000066 22               [ 8]  167 	ld	(hl+), a
      000067 59               [ 4]  168 	ld	e, c
      000068 50               [ 4]  169 	ld	d, b
      000069 1A               [ 8]  170 	ld	a, (de)
      00006A 22               [ 8]  171 	ld	(hl+), a
      00006B 13               [ 8]  172 	inc	de
      00006C 1A               [ 8]  173 	ld	a, (de)
                           00006D   174 	C$SpriteCamera.c$23$1_2$179	= .
                                    175 	.globl	C$SpriteCamera.c$23$1_2$179
                                    176 ;SpriteCamera.c:23: if(THIS->x > final_camera_x_max){delta_x=-4;}
      00006D 32               [ 8]  177 	ld	(hl-), a
      00006E 2B               [ 8]  178 	dec	hl
      00006F 2B               [ 8]  179 	dec	hl
      000070 2A               [ 8]  180 	ld	a, (hl+)
      000071 5F               [ 4]  181 	ld	e, a
      000072 56               [ 8]  182 	ld	d, (hl)
      000073 1A               [ 8]  183 	ld	a, (de)
      000074 F8 05            [12]  184 	ldhl	sp,	#5
      000076 22               [ 8]  185 	ld	(hl+), a
      000077 13               [ 8]  186 	inc	de
      000078 1A               [ 8]  187 	ld	a, (de)
      000079 77               [ 8]  188 	ld	(hl), a
                           00007A   189 	C$SpriteCamera.c$19$1_1$180	= .
                                    190 	.globl	C$SpriteCamera.c$19$1_1$180
                                    191 ;SpriteCamera.c:19: if(vx > 1){
      00007A 21r00r00         [12]  192 	ld	hl, #_vx
      00007D 5E               [ 8]  193 	ld	e, (hl)
      00007E 3E 01            [ 8]  194 	ld	a,#0x01
      000080 57               [ 4]  195 	ld	d,a
      000081 96               [ 8]  196 	sub	a, (hl)
      000082 CB 7B            [ 8]  197 	bit	7, e
      000084 28 07            [12]  198 	jr	Z, 00179$
      000086 CB 7A            [ 8]  199 	bit	7, d
      000088 20 08            [12]  200 	jr	NZ, 00180$
      00008A BF               [ 4]  201 	cp	a, a
      00008B 18 05            [12]  202 	jr	00180$
      00008D                        203 00179$:
      00008D CB 7A            [ 8]  204 	bit	7, d
      00008F 28 01            [12]  205 	jr	Z, 00180$
      000091 37               [ 4]  206 	scf
      000092                        207 00180$:
      000092 30 34            [12]  208 	jr	NC, 00107$
                           000094   209 	C$SpriteCamera.c$20$2_1$181	= .
                                    210 	.globl	C$SpriteCamera.c$20$2_1$181
                                    211 ;SpriteCamera.c:20: UINT16 final_camera_x = s_horse->x + 56;
      000094 F8 03            [12]  212 	ldhl	sp,#3
      000096 2A               [ 8]  213 	ld	a, (hl+)
      000097 5F               [ 4]  214 	ld	e, a
      000098 56               [ 8]  215 	ld	d, (hl)
      000099 21 38 00         [12]  216 	ld	hl, #0x0038
      00009C 19               [ 8]  217 	add	hl, de
      00009D 5D               [ 4]  218 	ld	e, l
      00009E 54               [ 4]  219 	ld	d, h
                           00009F   220 	C$SpriteCamera.c$21$2_1$181	= .
                                    221 	.globl	C$SpriteCamera.c$21$2_1$181
                                    222 ;SpriteCamera.c:21: UINT16 final_camera_x_min = final_camera_x -8;
      00009F 7B               [ 4]  223 	ld	a, e
      0000A0 C6 F8            [ 8]  224 	add	a, #0xf8
      0000A2 4F               [ 4]  225 	ld	c, a
      0000A3 7A               [ 4]  226 	ld	a, d
      0000A4 CE FF            [ 8]  227 	adc	a, #0xff
      0000A6 47               [ 4]  228 	ld	b, a
                           0000A7   229 	C$SpriteCamera.c$22$2_1$181	= .
                                    230 	.globl	C$SpriteCamera.c$22$2_1$181
                                    231 ;SpriteCamera.c:22: UINT16 final_camera_x_max = final_camera_x +8;
      0000A7 21 08 00         [12]  232 	ld	hl, #0x0008
      0000AA 19               [ 8]  233 	add	hl, de
      0000AB 5D               [ 4]  234 	ld	e, l
      0000AC 54               [ 4]  235 	ld	d, h
                           0000AD   236 	C$SpriteCamera.c$23$2_1$181	= .
                                    237 	.globl	C$SpriteCamera.c$23$2_1$181
                                    238 ;SpriteCamera.c:23: if(THIS->x > final_camera_x_max){delta_x=-4;}
      0000AD F8 05            [12]  239 	ldhl	sp,	#5
      0000AF 7B               [ 4]  240 	ld	a, e
      0000B0 96               [ 8]  241 	sub	a, (hl)
      0000B1 23               [ 8]  242 	inc	hl
      0000B2 7A               [ 4]  243 	ld	a, d
      0000B3 9E               [ 8]  244 	sbc	a, (hl)
      0000B4 30 06            [12]  245 	jr	NC, 00104$
      0000B6 F8 00            [12]  246 	ldhl	sp,	#0
      0000B8 36 FC            [12]  247 	ld	(hl), #0xfc
      0000BA 18 0C            [12]  248 	jr	00107$
      0000BC                        249 00104$:
                           0000BC   250 	C$SpriteCamera.c$24$2_1$181	= .
                                    251 	.globl	C$SpriteCamera.c$24$2_1$181
                                    252 ;SpriteCamera.c:24: else if(THIS->x < final_camera_x_min){delta_x=+4;}
      0000BC F8 05            [12]  253 	ldhl	sp,	#5
      0000BE 2A               [ 8]  254 	ld	a, (hl+)
      0000BF 91               [ 4]  255 	sub	a, c
      0000C0 7E               [ 8]  256 	ld	a, (hl)
      0000C1 98               [ 4]  257 	sbc	a, b
      0000C2 30 04            [12]  258 	jr	NC, 00107$
      0000C4 F8 00            [12]  259 	ldhl	sp,	#0
      0000C6 36 04            [12]  260 	ld	(hl), #0x04
      0000C8                        261 00107$:
                           0000C8   262 	C$SpriteCamera.c$26$1_1$180	= .
                                    263 	.globl	C$SpriteCamera.c$26$1_1$180
                                    264 ;SpriteCamera.c:26: if(vx < -1){
      0000C8 FAr00r00         [16]  265 	ld	a, (#_vx)
      0000CB EE 80            [ 8]  266 	xor	a, #0x80
      0000CD D6 7F            [ 8]  267 	sub	a, #0x7f
      0000CF 30 37            [12]  268 	jr	NC, 00114$
                           0000D1   269 	C$SpriteCamera.c$27$2_1$184	= .
                                    270 	.globl	C$SpriteCamera.c$27$2_1$184
                                    271 ;SpriteCamera.c:27: UINT16 final_camera_x = s_horse->x - 40;
      0000D1 F8 03            [12]  272 	ldhl	sp,#3
      0000D3 2A               [ 8]  273 	ld	a, (hl+)
      0000D4 5F               [ 4]  274 	ld	e, a
      0000D5 56               [ 8]  275 	ld	d, (hl)
      0000D6 21 28 00         [12]  276 	ld	hl, #0x0028
      0000D9 7B               [ 4]  277 	ld	a, e
      0000DA 95               [ 4]  278 	sub	a, l
      0000DB 5F               [ 4]  279 	ld	e, a
      0000DC 7A               [ 4]  280 	ld	a, d
      0000DD 9C               [ 4]  281 	sbc	a, h
      0000DE 47               [ 4]  282 	ld	b, a
      0000DF 4B               [ 4]  283 	ld	c, e
                           0000E0   284 	C$SpriteCamera.c$28$2_1$184	= .
                                    285 	.globl	C$SpriteCamera.c$28$2_1$184
                                    286 ;SpriteCamera.c:28: UINT16 final_camera_x_min = final_camera_x -8;
      0000E0 79               [ 4]  287 	ld	a, c
      0000E1 C6 F8            [ 8]  288 	add	a, #0xf8
      0000E3 5F               [ 4]  289 	ld	e, a
      0000E4 78               [ 4]  290 	ld	a, b
      0000E5 CE FF            [ 8]  291 	adc	a, #0xff
      0000E7 57               [ 4]  292 	ld	d, a
                           0000E8   293 	C$SpriteCamera.c$29$2_1$184	= .
                                    294 	.globl	C$SpriteCamera.c$29$2_1$184
                                    295 ;SpriteCamera.c:29: UINT16 final_camera_x_max = final_camera_x +8;
      0000E8 2E 08            [ 8]  296 	ld	l, #0x08
      0000EA 09               [ 8]  297 	add	hl, bc
      0000EB 4D               [ 4]  298 	ld	c, l
      0000EC 44               [ 4]  299 	ld	b, h
                           0000ED   300 	C$SpriteCamera.c$30$2_1$184	= .
                                    301 	.globl	C$SpriteCamera.c$30$2_1$184
                                    302 ;SpriteCamera.c:30: if(THIS->x > final_camera_x_max){delta_x=-4;}
      0000ED F8 05            [12]  303 	ldhl	sp,	#5
      0000EF 79               [ 4]  304 	ld	a, c
      0000F0 96               [ 8]  305 	sub	a, (hl)
      0000F1 23               [ 8]  306 	inc	hl
      0000F2 78               [ 4]  307 	ld	a, b
      0000F3 9E               [ 8]  308 	sbc	a, (hl)
      0000F4 30 06            [12]  309 	jr	NC, 00111$
      0000F6 F8 00            [12]  310 	ldhl	sp,	#0
      0000F8 36 FC            [12]  311 	ld	(hl), #0xfc
      0000FA 18 0C            [12]  312 	jr	00114$
      0000FC                        313 00111$:
                           0000FC   314 	C$SpriteCamera.c$31$2_1$184	= .
                                    315 	.globl	C$SpriteCamera.c$31$2_1$184
                                    316 ;SpriteCamera.c:31: else if(THIS->x < final_camera_x_min){delta_x=+4;}
      0000FC F8 05            [12]  317 	ldhl	sp,	#5
      0000FE 2A               [ 8]  318 	ld	a, (hl+)
      0000FF 93               [ 4]  319 	sub	a, e
      000100 7E               [ 8]  320 	ld	a, (hl)
      000101 9A               [ 4]  321 	sbc	a, d
      000102 30 04            [12]  322 	jr	NC, 00114$
      000104 F8 00            [12]  323 	ldhl	sp,	#0
      000106 36 04            [12]  324 	ld	(hl), #0x04
      000108                        325 00114$:
                           000108   326 	C$SpriteCamera.c$33$1_2$187	= .
                                    327 	.globl	C$SpriteCamera.c$33$1_2$187
                                    328 ;SpriteCamera.c:33: INT16 camera_horse_delta_x = THIS->x - s_horse->x;
      000108 F8 05            [12]  329 	ldhl	sp,#5
      00010A 2A               [ 8]  330 	ld	a, (hl+)
      00010B 5F               [ 4]  331 	ld	e, a
      00010C 56               [ 8]  332 	ld	d, (hl)
      00010D F8 03            [12]  333 	ldhl	sp,	#3
      00010F 2A               [ 8]  334 	ld	a,	(hl+)
      000110 66               [ 8]  335 	ld	h, (hl)
      000111 6F               [ 4]  336 	ld	l, a
      000112 7B               [ 4]  337 	ld	a, e
      000113 95               [ 4]  338 	sub	a, l
      000114 5F               [ 4]  339 	ld	e, a
      000115 7A               [ 4]  340 	ld	a, d
      000116 9C               [ 4]  341 	sbc	a, h
      000117 4B               [ 4]  342 	ld	c, e
      000118 47               [ 4]  343 	ld	b, a
                           000119   344 	C$SpriteCamera.c$34$1_2$187	= .
                                    345 	.globl	C$SpriteCamera.c$34$1_2$187
                                    346 ;SpriteCamera.c:34: if(camera_horse_delta_x < 60 && camera_horse_delta_x > -60){
      000119 79               [ 4]  347 	ld	a, c
      00011A D6 3C            [ 8]  348 	sub	a, #0x3c
      00011C 78               [ 4]  349 	ld	a, b
      00011D 17               [ 4]  350 	rla
      00011E 3F               [ 4]  351 	ccf
      00011F 1F               [ 4]  352 	rra
      000120 DE 80            [ 8]  353 	sbc	a, #0x80
      000122 30 34            [12]  354 	jr	NC, 00116$
      000124 58               [ 4]  355 	ld	e, b
      000125 16 FF            [ 8]  356 	ld	d, #0xff
      000127 3E C4            [ 8]  357 	ld	a, #0xc4
      000129 B9               [ 4]  358 	cp	a, c
      00012A 3E FF            [ 8]  359 	ld	a, #0xff
      00012C 98               [ 4]  360 	sbc	a, b
      00012D CB 7B            [ 8]  361 	bit	7, e
      00012F 28 07            [12]  362 	jr	Z, 00181$
      000131 CB 7A            [ 8]  363 	bit	7, d
      000133 20 08            [12]  364 	jr	NZ, 00182$
      000135 BF               [ 4]  365 	cp	a, a
      000136 18 05            [12]  366 	jr	00182$
      000138                        367 00181$:
      000138 CB 7A            [ 8]  368 	bit	7, d
      00013A 28 01            [12]  369 	jr	Z, 00182$
      00013C 37               [ 4]  370 	scf
      00013D                        371 00182$:
      00013D 30 19            [12]  372 	jr	NC, 00116$
                           00013F   373 	C$SpriteCamera.c$35$2_2$188	= .
                                    374 	.globl	C$SpriteCamera.c$35$2_2$188
                                    375 ;SpriteCamera.c:35: THIS->x += delta_x;
      00013F F8 00            [12]  376 	ldhl	sp,	#0
      000141 7E               [ 8]  377 	ld	a, (hl)
      000142 4F               [ 4]  378 	ld	c, a
      000143 07               [ 4]  379 	rlca
      000144 9F               [ 4]  380 	sbc	a, a
      000145 47               [ 4]  381 	ld	b, a
      000146 F8 05            [12]  382 	ldhl	sp,	#5
      000148 2A               [ 8]  383 	ld	a,	(hl+)
      000149 66               [ 8]  384 	ld	h, (hl)
      00014A 6F               [ 4]  385 	ld	l, a
      00014B 09               [ 8]  386 	add	hl, bc
      00014C 4D               [ 4]  387 	ld	c, l
      00014D 44               [ 4]  388 	ld	b, h
      00014E F8 01            [12]  389 	ldhl	sp,	#1
      000150 2A               [ 8]  390 	ld	a,	(hl+)
      000151 66               [ 8]  391 	ld	h, (hl)
      000152 6F               [ 4]  392 	ld	l, a
      000153 79               [ 4]  393 	ld	a, c
      000154 22               [ 8]  394 	ld	(hl+), a
      000155 70               [ 8]  395 	ld	(hl), b
      000156 18 17            [12]  396 	jr	00119$
      000158                        397 00116$:
                           000158   398 	C$SpriteCamera.c$36$2_2$189	= .
                                    399 	.globl	C$SpriteCamera.c$36$2_2$189
                                    400 ;SpriteCamera.c:36: }else{THIS->x += vx;}
      000158 FAr00r00         [16]  401 	ld	a, (#_vx)
      00015B 4F               [ 4]  402 	ld	c, a
      00015C 07               [ 4]  403 	rlca
      00015D 9F               [ 4]  404 	sbc	a, a
      00015E 47               [ 4]  405 	ld	b, a
      00015F F8 05            [12]  406 	ldhl	sp,	#5
      000161 2A               [ 8]  407 	ld	a,	(hl+)
      000162 66               [ 8]  408 	ld	h, (hl)
      000163 6F               [ 4]  409 	ld	l, a
      000164 09               [ 8]  410 	add	hl, bc
      000165 4D               [ 4]  411 	ld	c, l
      000166 44               [ 4]  412 	ld	b, h
      000167 F8 01            [12]  413 	ldhl	sp,	#1
      000169 2A               [ 8]  414 	ld	a,	(hl+)
      00016A 66               [ 8]  415 	ld	h, (hl)
      00016B 6F               [ 4]  416 	ld	l, a
      00016C 79               [ 4]  417 	ld	a, c
      00016D 22               [ 8]  418 	ld	(hl+), a
      00016E 70               [ 8]  419 	ld	(hl), b
      00016F                        420 00119$:
                           00016F   421 	C$SpriteCamera.c$37$1_2$179	= .
                                    422 	.globl	C$SpriteCamera.c$37$1_2$179
                                    423 ;SpriteCamera.c:37: }
      00016F E8 07            [16]  424 	add	sp, #7
                           000171   425 	C$SpriteCamera.c$37$1_2$179	= .
                                    426 	.globl	C$SpriteCamera.c$37$1_2$179
                           000171   427 	XG$Update_SpriteCamera$0$0	= .
                                    428 	.globl	XG$Update_SpriteCamera$0$0
      000171 C9               [16]  429 	ret
                           000172   430 	G$Destroy_SpriteCamera$0$0	= .
                                    431 	.globl	G$Destroy_SpriteCamera$0$0
                           000172   432 	C$SpriteCamera.c$39$1_2$191	= .
                                    433 	.globl	C$SpriteCamera.c$39$1_2$191
                                    434 ;SpriteCamera.c:39: void DESTROY() {
                                    435 ;	---------------------------------
                                    436 ; Function Destroy_SpriteCamera
                                    437 ; ---------------------------------
      000172                        438 _Destroy_SpriteCamera::
                           000172   439 	C$SpriteCamera.c$40$1_2$191	= .
                                    440 	.globl	C$SpriteCamera.c$40$1_2$191
                                    441 ;SpriteCamera.c:40: }
                           000172   442 	C$SpriteCamera.c$40$1_2$191	= .
                                    443 	.globl	C$SpriteCamera.c$40$1_2$191
                           000172   444 	XG$Destroy_SpriteCamera$0$0	= .
                                    445 	.globl	XG$Destroy_SpriteCamera$0$0
      000172 C9               [16]  446 	ret
                                    447 	.area _CODE_255
                                    448 	.area _INITIALIZER
                                    449 	.area _CABS (ABS)
