                                      1 ;--------------------------------------------------------
                                      2 ; File Created by SDCC : free open source ISO C Compiler 
                                      3 ; Version 4.3.2 #14228 (MINGW64)
                                      4 ;--------------------------------------------------------
                                      5 	.module StateTutorialGame
                                      6 	.optsdcc -msm83
                                      7 	
                                      8 ;--------------------------------------------------------
                                      9 ; Public variables in this module
                                     10 ;--------------------------------------------------------
                                     11 	.globl _Update_StateTutorialGame
                                     12 	.globl _Start_StateTutorialGame
                                     13 	.globl b_update_hp
                                     14 	.globl _update_hp
                                     15 	.globl b_update_time
                                     16 	.globl _update_time
                                     17 	.globl b_update_euphoria
                                     18 	.globl _update_euphoria
                                     19 	.globl b_update_turning
                                     20 	.globl _update_turning
                                     21 	.globl b_update_compass
                                     22 	.globl _update_compass
                                     23 	.globl b_update_stamina
                                     24 	.globl _update_stamina
                                     25 	.globl b_start_common
                                     26 	.globl _start_common
                                     27 	.globl _SpriteManagerAdd
                                     28 	.globl _GetMapSize
                                     29 	.globl _LoadMap
                                     30 	.globl _InitScroll
                                     31 	.globl _SetWindowY
                                     32 	.globl _SetState
                                     33 	.globl _is_crono
                                     34 	.globl _tutorial_state
                                     35 	.globl _coll_rome_surface
                                     36 	.globl _coll_rome_tiles
                                     37 	.globl ___bank_StateTutorialGame
                                     38 ;--------------------------------------------------------
                                     39 ; special function registers
                                     40 ;--------------------------------------------------------
                                     41 ;--------------------------------------------------------
                                     42 ; ram data
                                     43 ;--------------------------------------------------------
                                     44 	.area _DATA
                                     45 ;--------------------------------------------------------
                                     46 ; ram data
                                     47 ;--------------------------------------------------------
                                     48 	.area _INITIALIZED
                           000000    49 G$tutorial_state$0_0$0==.
      000000                         50 _tutorial_state::
      000000                         51 	.ds 1
                           000001    52 G$is_crono$0_0$0==.
      000001                         53 _is_crono::
      000001                         54 	.ds 1
                                     55 ;--------------------------------------------------------
                                     56 ; absolute external ram data
                                     57 ;--------------------------------------------------------
                                     58 	.area _DABS (ABS)
                                     59 ;--------------------------------------------------------
                                     60 ; global & static initialisations
                                     61 ;--------------------------------------------------------
                                     62 	.area _HOME
                                     63 	.area _GSINIT
                                     64 	.area _GSFINAL
                                     65 	.area _GSINIT
                                     66 ;--------------------------------------------------------
                                     67 ; Home
                                     68 ;--------------------------------------------------------
                                     69 	.area _HOME
                                     70 	.area _HOME
                                     71 ;--------------------------------------------------------
                                     72 ; code
                                     73 ;--------------------------------------------------------
                                     74 	.area _CODE_255
                           000000    75 	G$Start_StateTutorialGame$0$0	= .
                                     76 	.globl	G$Start_StateTutorialGame$0$0
                           000000    77 	C$StateTutorialGame.c$72$0_0$193	= .
                                     78 	.globl	C$StateTutorialGame.c$72$0_0$193
                                     79 ;StateTutorialGame.c:72: void START() {
                                     80 ;	---------------------------------
                                     81 ; Function Start_StateTutorialGame
                                     82 ; ---------------------------------
      000000                         83 _Start_StateTutorialGame::
      000000 E8 FC            [16]   84 	add	sp, #-4
                           000002    85 	C$StateTutorialGame.c$73$2_0$193	= .
                                     86 	.globl	C$StateTutorialGame.c$73$2_0$193
                                     87 ;StateTutorialGame.c:73: UINT16 pos_horse_x = 0;
      000002 01 00 00         [12]   88 	ld	bc, #0x0000
                           000005    89 	C$StateTutorialGame.c$74$2_0$193	= .
                                     90 	.globl	C$StateTutorialGame.c$74$2_0$193
                                     91 ;StateTutorialGame.c:74: UINT16 pos_horse_y = 0;
      000005 AF               [ 4]   92 	xor	a, a
      000006 F8 00            [12]   93 	ldhl	sp,	#0
      000008 22               [ 8]   94 	ld	(hl+), a
      000009 77               [ 8]   95 	ld	(hl), a
                           00000A    96 	C$StateTutorialGame.c$75$1_0$193	= .
                                     97 	.globl	C$StateTutorialGame.c$75$1_0$193
                                     98 ;StateTutorialGame.c:75: switch(tutorial_state){
      00000A 3E 08            [ 8]   99 	ld	a, #0x08
      00000C 21r00r00         [12]  100 	ld	hl, #_tutorial_state
      00000F 96               [ 8]  101 	sub	a, (hl)
      000010 DArEFr00         [16]  102 	jp	C, 00110$
      000013 4E               [ 8]  103 	ld	c, (hl)
      000014 06 00            [ 8]  104 	ld	b, #0x00
      000016 21r1Dr00         [12]  105 	ld	hl, #00137$
      000019 09               [ 8]  106 	add	hl, bc
      00001A 09               [ 8]  107 	add	hl, bc
      00001B 09               [ 8]  108 	add	hl, bc
      00001C E9               [ 4]  109 	jp	(hl)
      00001D                        110 00137$:
      00001D C3r38r00         [16]  111 	jp	00101$
      000020 C3r4Ar00         [16]  112 	jp	00102$
      000023 C3r6Br00         [16]  113 	jp	00103$
      000026 C3r7Cr00         [16]  114 	jp	00104$
      000029 C3r8Dr00         [16]  115 	jp	00105$
      00002C C3rAEr00         [16]  116 	jp	00106$
      00002F C3rBFr00         [16]  117 	jp	00107$
      000032 C3rE0r00         [16]  118 	jp	00109$
      000035 C3rE0r00         [16]  119 	jp	00109$
                           000038   120 	C$StateTutorialGame.c$76$2_0$194	= .
                                    121 	.globl	C$StateTutorialGame.c$76$2_0$194
                                    122 ;StateTutorialGame.c:76: case TUTORIAL_STAGE_0_STRAIGHT:
      000038                        123 00101$:
                           000038   124 	C$StateTutorialGame.c$77$2_0$194	= .
                                    125 	.globl	C$StateTutorialGame.c$77$2_0$194
                                    126 ;StateTutorialGame.c:77: pos_horse_x = 56;
      000038 01 38 00         [12]  127 	ld	bc, #0x0038
                           00003B   128 	C$StateTutorialGame.c$78$2_0$194	= .
                                    129 	.globl	C$StateTutorialGame.c$78$2_0$194
                                    130 ;StateTutorialGame.c:78: pos_horse_y = 88;
      00003B F8 00            [12]  131 	ldhl	sp,	#0
      00003D 3E 58            [ 8]  132 	ld	a, #0x58
      00003F 22               [ 8]  133 	ld	(hl+), a
      000040 AF               [ 4]  134 	xor	a, a
      000041 77               [ 8]  135 	ld	(hl), a
                           000042   136 	C$StateTutorialGame.c$79$2_0$194	= .
                                    137 	.globl	C$StateTutorialGame.c$79$2_0$194
                                    138 ;StateTutorialGame.c:79: is_crono = 0;
      000042 21r01r00         [12]  139 	ld	hl, #_is_crono
      000045 36 00            [12]  140 	ld	(hl), #0x00
                           000047   141 	C$StateTutorialGame.c$80$2_0$194	= .
                                    142 	.globl	C$StateTutorialGame.c$80$2_0$194
                                    143 ;StateTutorialGame.c:80: break;
      000047 C3rEFr00         [16]  144 	jp	00110$
                           00004A   145 	C$StateTutorialGame.c$81$2_0$194	= .
                                    146 	.globl	C$StateTutorialGame.c$81$2_0$194
                                    147 ;StateTutorialGame.c:81: case TUTORIAL_STAGE_1_STRAIGHTTIME:
      00004A                        148 00102$:
                           00004A   149 	C$StateTutorialGame.c$82$2_0$194	= .
                                    150 	.globl	C$StateTutorialGame.c$82$2_0$194
                                    151 ;StateTutorialGame.c:82: pos_horse_x = 56;
      00004A 01 38 00         [12]  152 	ld	bc, #0x0038
                           00004D   153 	C$StateTutorialGame.c$83$2_0$194	= .
                                    154 	.globl	C$StateTutorialGame.c$83$2_0$194
                                    155 ;StateTutorialGame.c:83: pos_horse_y = 88;
      00004D F8 00            [12]  156 	ldhl	sp,	#0
      00004F 3E 58            [ 8]  157 	ld	a, #0x58
      000051 22               [ 8]  158 	ld	(hl+), a
      000052 AF               [ 4]  159 	xor	a, a
      000053 77               [ 8]  160 	ld	(hl), a
                           000054   161 	C$StateTutorialGame.c$84$2_0$194	= .
                                    162 	.globl	C$StateTutorialGame.c$84$2_0$194
                                    163 ;StateTutorialGame.c:84: is_crono = 1;
      000054 21r01r00         [12]  164 	ld	hl, #_is_crono
      000057 36 01            [12]  165 	ld	(hl), #0x01
                           000059   166 	C$StateTutorialGame.c$85$2_0$194	= .
                                    167 	.globl	C$StateTutorialGame.c$85$2_0$194
                                    168 ;StateTutorialGame.c:85: timemax_current = TIME_MAX_TUTORIAL1;
      000059 21r00r00         [12]  169 	ld	hl, #_timemax_current
      00005C AF               [ 4]  170 	xor	a, a
      00005D 22               [ 8]  171 	ld	(hl+), a
      00005E 36 0F            [12]  172 	ld	(hl), #0x0f
                           000060   173 	C$StateTutorialGame.c$86$2_0$194	= .
                                    174 	.globl	C$StateTutorialGame.c$86$2_0$194
                                    175 ;StateTutorialGame.c:86: time_factor = TIME_FACTOR_TUTORIAL1;
      000060 21r00r00         [12]  176 	ld	hl, #_time_factor
      000063 3E 78            [ 8]  177 	ld	a, #0x78
      000065 22               [ 8]  178 	ld	(hl+), a
      000066 AF               [ 4]  179 	xor	a, a
      000067 77               [ 8]  180 	ld	(hl), a
                           000068   181 	C$StateTutorialGame.c$87$2_0$194	= .
                                    182 	.globl	C$StateTutorialGame.c$87$2_0$194
                                    183 ;StateTutorialGame.c:87: break;
      000068 C3rEFr00         [16]  184 	jp	00110$
                           00006B   185 	C$StateTutorialGame.c$88$2_0$194	= .
                                    186 	.globl	C$StateTutorialGame.c$88$2_0$194
                                    187 ;StateTutorialGame.c:88: case TUTORIAL_STAGE_2_TURNRIGHT:
      00006B                        188 00103$:
                           00006B   189 	C$StateTutorialGame.c$89$2_0$194	= .
                                    190 	.globl	C$StateTutorialGame.c$89$2_0$194
                                    191 ;StateTutorialGame.c:89: pos_horse_x = 56;
      00006B 01 38 00         [12]  192 	ld	bc, #0x0038
                           00006E   193 	C$StateTutorialGame.c$90$2_0$194	= .
                                    194 	.globl	C$StateTutorialGame.c$90$2_0$194
                                    195 ;StateTutorialGame.c:90: pos_horse_y = 88;
      00006E F8 00            [12]  196 	ldhl	sp,	#0
      000070 3E 58            [ 8]  197 	ld	a, #0x58
      000072 22               [ 8]  198 	ld	(hl+), a
      000073 AF               [ 4]  199 	xor	a, a
      000074 77               [ 8]  200 	ld	(hl), a
                           000075   201 	C$StateTutorialGame.c$91$2_0$194	= .
                                    202 	.globl	C$StateTutorialGame.c$91$2_0$194
                                    203 ;StateTutorialGame.c:91: is_crono = 0;
      000075 21r01r00         [12]  204 	ld	hl, #_is_crono
      000078 36 00            [12]  205 	ld	(hl), #0x00
                           00007A   206 	C$StateTutorialGame.c$92$2_0$194	= .
                                    207 	.globl	C$StateTutorialGame.c$92$2_0$194
                                    208 ;StateTutorialGame.c:92: break;
      00007A 18 73            [12]  209 	jr	00110$
                           00007C   210 	C$StateTutorialGame.c$93$2_0$194	= .
                                    211 	.globl	C$StateTutorialGame.c$93$2_0$194
                                    212 ;StateTutorialGame.c:93: case TUTORIAL_STAGE_3_TURNLEFT:
      00007C                        213 00104$:
                           00007C   214 	C$StateTutorialGame.c$94$2_0$194	= .
                                    215 	.globl	C$StateTutorialGame.c$94$2_0$194
                                    216 ;StateTutorialGame.c:94: pos_horse_x = 56;
      00007C 01 38 00         [12]  217 	ld	bc, #0x0038
                           00007F   218 	C$StateTutorialGame.c$95$2_0$194	= .
                                    219 	.globl	C$StateTutorialGame.c$95$2_0$194
                                    220 ;StateTutorialGame.c:95: pos_horse_y = 200;
      00007F F8 00            [12]  221 	ldhl	sp,	#0
      000081 3E C8            [ 8]  222 	ld	a, #0xc8
      000083 22               [ 8]  223 	ld	(hl+), a
      000084 AF               [ 4]  224 	xor	a, a
      000085 77               [ 8]  225 	ld	(hl), a
                           000086   226 	C$StateTutorialGame.c$96$2_0$194	= .
                                    227 	.globl	C$StateTutorialGame.c$96$2_0$194
                                    228 ;StateTutorialGame.c:96: is_crono = 0;
      000086 21r01r00         [12]  229 	ld	hl, #_is_crono
      000089 36 00            [12]  230 	ld	(hl), #0x00
                           00008B   231 	C$StateTutorialGame.c$97$2_0$194	= .
                                    232 	.globl	C$StateTutorialGame.c$97$2_0$194
                                    233 ;StateTutorialGame.c:97: break;
      00008B 18 62            [12]  234 	jr	00110$
                           00008D   235 	C$StateTutorialGame.c$98$2_0$194	= .
                                    236 	.globl	C$StateTutorialGame.c$98$2_0$194
                                    237 ;StateTutorialGame.c:98: case TUTORIAL_STAGE_4_TURNRIGHTLEFT:
      00008D                        238 00105$:
                           00008D   239 	C$StateTutorialGame.c$99$2_0$194	= .
                                    240 	.globl	C$StateTutorialGame.c$99$2_0$194
                                    241 ;StateTutorialGame.c:99: pos_horse_x = 56;
      00008D 01 38 00         [12]  242 	ld	bc, #0x0038
                           000090   243 	C$StateTutorialGame.c$100$2_0$194	= .
                                    244 	.globl	C$StateTutorialGame.c$100$2_0$194
                                    245 ;StateTutorialGame.c:100: pos_horse_y = 88;
      000090 F8 00            [12]  246 	ldhl	sp,	#0
      000092 3E 58            [ 8]  247 	ld	a, #0x58
      000094 22               [ 8]  248 	ld	(hl+), a
      000095 AF               [ 4]  249 	xor	a, a
      000096 77               [ 8]  250 	ld	(hl), a
                           000097   251 	C$StateTutorialGame.c$101$2_0$194	= .
                                    252 	.globl	C$StateTutorialGame.c$101$2_0$194
                                    253 ;StateTutorialGame.c:101: is_crono = 1;
      000097 21r01r00         [12]  254 	ld	hl, #_is_crono
      00009A 36 01            [12]  255 	ld	(hl), #0x01
                           00009C   256 	C$StateTutorialGame.c$102$2_0$194	= .
                                    257 	.globl	C$StateTutorialGame.c$102$2_0$194
                                    258 ;StateTutorialGame.c:102: timemax_current = TIME_MAX_TUTORIAL2;
      00009C 21r00r00         [12]  259 	ld	hl, #_timemax_current
      00009F 3E 80            [ 8]  260 	ld	a, #0x80
      0000A1 22               [ 8]  261 	ld	(hl+), a
      0000A2 36 0C            [12]  262 	ld	(hl), #0x0c
                           0000A4   263 	C$StateTutorialGame.c$103$2_0$194	= .
                                    264 	.globl	C$StateTutorialGame.c$103$2_0$194
                                    265 ;StateTutorialGame.c:103: time_factor = TIME_FACTOR_TUTORIAL2;
      0000A4 21r00r00         [12]  266 	ld	hl, #_time_factor
      0000A7 3E 64            [ 8]  267 	ld	a, #0x64
      0000A9 22               [ 8]  268 	ld	(hl+), a
      0000AA AF               [ 4]  269 	xor	a, a
      0000AB 77               [ 8]  270 	ld	(hl), a
                           0000AC   271 	C$StateTutorialGame.c$104$2_0$194	= .
                                    272 	.globl	C$StateTutorialGame.c$104$2_0$194
                                    273 ;StateTutorialGame.c:104: break;
      0000AC 18 41            [12]  274 	jr	00110$
                           0000AE   275 	C$StateTutorialGame.c$105$2_0$194	= .
                                    276 	.globl	C$StateTutorialGame.c$105$2_0$194
                                    277 ;StateTutorialGame.c:105: case TUTORIAL_STAGE_5_ZIGZAG:
      0000AE                        278 00106$:
                           0000AE   279 	C$StateTutorialGame.c$106$2_0$194	= .
                                    280 	.globl	C$StateTutorialGame.c$106$2_0$194
                                    281 ;StateTutorialGame.c:106: pos_horse_x = 56;
      0000AE 01 38 00         [12]  282 	ld	bc, #0x0038
                           0000B1   283 	C$StateTutorialGame.c$107$2_0$194	= .
                                    284 	.globl	C$StateTutorialGame.c$107$2_0$194
                                    285 ;StateTutorialGame.c:107: pos_horse_y = 88;
      0000B1 F8 00            [12]  286 	ldhl	sp,	#0
      0000B3 3E 58            [ 8]  287 	ld	a, #0x58
      0000B5 22               [ 8]  288 	ld	(hl+), a
      0000B6 AF               [ 4]  289 	xor	a, a
      0000B7 77               [ 8]  290 	ld	(hl), a
                           0000B8   291 	C$StateTutorialGame.c$108$2_0$194	= .
                                    292 	.globl	C$StateTutorialGame.c$108$2_0$194
                                    293 ;StateTutorialGame.c:108: is_crono = 0;
      0000B8 21r01r00         [12]  294 	ld	hl, #_is_crono
      0000BB 36 00            [12]  295 	ld	(hl), #0x00
                           0000BD   296 	C$StateTutorialGame.c$109$2_0$194	= .
                                    297 	.globl	C$StateTutorialGame.c$109$2_0$194
                                    298 ;StateTutorialGame.c:109: break;
      0000BD 18 30            [12]  299 	jr	00110$
                           0000BF   300 	C$StateTutorialGame.c$110$2_0$194	= .
                                    301 	.globl	C$StateTutorialGame.c$110$2_0$194
                                    302 ;StateTutorialGame.c:110: case TUTORIAL_STAGE_6_ZIGZAG_ONTIME:
      0000BF                        303 00107$:
                           0000BF   304 	C$StateTutorialGame.c$111$2_0$194	= .
                                    305 	.globl	C$StateTutorialGame.c$111$2_0$194
                                    306 ;StateTutorialGame.c:111: pos_horse_x = 56;
      0000BF 01 38 00         [12]  307 	ld	bc, #0x0038
                           0000C2   308 	C$StateTutorialGame.c$112$2_0$194	= .
                                    309 	.globl	C$StateTutorialGame.c$112$2_0$194
                                    310 ;StateTutorialGame.c:112: pos_horse_y = 88;
      0000C2 F8 00            [12]  311 	ldhl	sp,	#0
      0000C4 3E 58            [ 8]  312 	ld	a, #0x58
      0000C6 22               [ 8]  313 	ld	(hl+), a
      0000C7 AF               [ 4]  314 	xor	a, a
      0000C8 77               [ 8]  315 	ld	(hl), a
                           0000C9   316 	C$StateTutorialGame.c$113$2_0$194	= .
                                    317 	.globl	C$StateTutorialGame.c$113$2_0$194
                                    318 ;StateTutorialGame.c:113: is_crono = 1;
      0000C9 21r01r00         [12]  319 	ld	hl, #_is_crono
      0000CC 36 01            [12]  320 	ld	(hl), #0x01
                           0000CE   321 	C$StateTutorialGame.c$114$2_0$194	= .
                                    322 	.globl	C$StateTutorialGame.c$114$2_0$194
                                    323 ;StateTutorialGame.c:114: timemax_current = TIME_MAX_TUTORIAL3;
      0000CE 21r00r00         [12]  324 	ld	hl, #_timemax_current
      0000D1 3E 40            [ 8]  325 	ld	a, #0x40
      0000D3 22               [ 8]  326 	ld	(hl+), a
      0000D4 36 06            [12]  327 	ld	(hl), #0x06
                           0000D6   328 	C$StateTutorialGame.c$115$2_0$194	= .
                                    329 	.globl	C$StateTutorialGame.c$115$2_0$194
                                    330 ;StateTutorialGame.c:115: time_factor = TIME_FACTOR_TUTORIAL3;
      0000D6 21r00r00         [12]  331 	ld	hl, #_time_factor
      0000D9 3E 32            [ 8]  332 	ld	a, #0x32
      0000DB 22               [ 8]  333 	ld	(hl+), a
      0000DC AF               [ 4]  334 	xor	a, a
      0000DD 77               [ 8]  335 	ld	(hl), a
                           0000DE   336 	C$StateTutorialGame.c$116$2_0$194	= .
                                    337 	.globl	C$StateTutorialGame.c$116$2_0$194
                                    338 ;StateTutorialGame.c:116: break;
      0000DE 18 0F            [12]  339 	jr	00110$
                           0000E0   340 	C$StateTutorialGame.c$118$2_0$194	= .
                                    341 	.globl	C$StateTutorialGame.c$118$2_0$194
                                    342 ;StateTutorialGame.c:118: case TUTORIAL_STAGE_8_GLADIO:
      0000E0                        343 00109$:
                           0000E0   344 	C$StateTutorialGame.c$119$2_0$194	= .
                                    345 	.globl	C$StateTutorialGame.c$119$2_0$194
                                    346 ;StateTutorialGame.c:119: pos_horse_x = 56;
      0000E0 01 38 00         [12]  347 	ld	bc, #0x0038
                           0000E3   348 	C$StateTutorialGame.c$120$2_0$194	= .
                                    349 	.globl	C$StateTutorialGame.c$120$2_0$194
                                    350 ;StateTutorialGame.c:120: pos_horse_y = 88;
      0000E3 F8 00            [12]  351 	ldhl	sp,	#0
      0000E5 3E 58            [ 8]  352 	ld	a, #0x58
      0000E7 22               [ 8]  353 	ld	(hl+), a
      0000E8 AF               [ 4]  354 	xor	a, a
      0000E9 77               [ 8]  355 	ld	(hl), a
                           0000EA   356 	C$StateTutorialGame.c$121$2_0$194	= .
                                    357 	.globl	C$StateTutorialGame.c$121$2_0$194
                                    358 ;StateTutorialGame.c:121: is_crono = 0;
      0000EA 21r01r00         [12]  359 	ld	hl, #_is_crono
      0000ED 36 00            [12]  360 	ld	(hl), #0x00
                           0000EF   361 	C$StateTutorialGame.c$123$1_0$193	= .
                                    362 	.globl	C$StateTutorialGame.c$123$1_0$193
                                    363 ;StateTutorialGame.c:123: }
      0000EF                        364 00110$:
                           0000EF   365 	C$StateTutorialGame.c$124$1_0$193	= .
                                    366 	.globl	C$StateTutorialGame.c$124$1_0$193
                                    367 ;StateTutorialGame.c:124: scroll_target = SpriteManagerAdd(SpriteCamera, pos_horse_x + 8, pos_horse_y - 16);
      0000EF D1               [12]  368 	pop	de
      0000F0 D5               [16]  369 	push	de
      0000F1 21 10 00         [12]  370 	ld	hl, #0x0010
      0000F4 7B               [ 4]  371 	ld	a, e
      0000F5 95               [ 4]  372 	sub	a, l
      0000F6 5F               [ 4]  373 	ld	e, a
      0000F7 7A               [ 4]  374 	ld	a, d
      0000F8 9C               [ 4]  375 	sbc	a, h
      0000F9 F8 03            [12]  376 	ldhl	sp,	#3
      0000FB 32               [ 8]  377 	ld	(hl-), a
      0000FC 73               [ 8]  378 	ld	(hl), e
      0000FD 21 08 00         [12]  379 	ld	hl, #0x0008
      000100 09               [ 8]  380 	add	hl, bc
      000101 5D               [ 4]  381 	ld	e, l
      000102 54               [ 4]  382 	ld	d, h
      000103 C5               [16]  383 	push	bc
      000104 F8 04            [12]  384 	ldhl	sp,	#4
      000106 2A               [ 8]  385 	ld	a, (hl+)
      000107 66               [ 8]  386 	ld	h, (hl)
                                    387 ;	spillPairReg hl
                                    388 ;	spillPairReg hl
      000108 6F               [ 4]  389 	ld	l, a
                                    390 ;	spillPairReg hl
                                    391 ;	spillPairReg hl
      000109 E5               [16]  392 	push	hl
      00010A 3E 06            [ 8]  393 	ld	a, #0x06
      00010C CDr00r00         [24]  394 	call	_SpriteManagerAdd
      00010F 59               [ 4]  395 	ld	e, c
      000110 50               [ 4]  396 	ld	d, b
      000111 C1               [12]  397 	pop	bc
      000112 21r00r00         [12]  398 	ld	hl, #_scroll_target
      000115 7B               [ 4]  399 	ld	a, e
      000116 22               [ 8]  400 	ld	(hl+), a
      000117 72               [ 8]  401 	ld	(hl), d
                           000118   402 	C$StateTutorialGame.c$125$1_0$193	= .
                                    403 	.globl	C$StateTutorialGame.c$125$1_0$193
                                    404 ;StateTutorialGame.c:125: s_biga = SpriteManagerAdd(SpriteBiga, pos_horse_x - 20, pos_horse_y + 9);
      000118 D1               [12]  405 	pop	de
      000119 D5               [16]  406 	push	de
      00011A 21 09 00         [12]  407 	ld	hl, #0x0009
      00011D 19               [ 8]  408 	add	hl, de
      00011E 5D               [ 4]  409 	ld	e, l
      00011F 54               [ 4]  410 	ld	d, h
      000120 79               [ 4]  411 	ld	a, c
      000121 C6 EC            [ 8]  412 	add	a, #0xec
      000123 6F               [ 4]  413 	ld	l, a
                                    414 ;	spillPairReg hl
                                    415 ;	spillPairReg hl
      000124 78               [ 4]  416 	ld	a, b
      000125 CE FF            [ 8]  417 	adc	a, #0xff
      000127 67               [ 4]  418 	ld	h, a
                                    419 ;	spillPairReg hl
                                    420 ;	spillPairReg hl
      000128 C5               [16]  421 	push	bc
      000129 D5               [16]  422 	push	de
      00012A 5D               [ 4]  423 	ld	e, l
      00012B 54               [ 4]  424 	ld	d, h
      00012C 3E 03            [ 8]  425 	ld	a, #0x03
      00012E CDr00r00         [24]  426 	call	_SpriteManagerAdd
      000131 59               [ 4]  427 	ld	e, c
      000132 50               [ 4]  428 	ld	d, b
      000133 C1               [12]  429 	pop	bc
      000134 21r00r00         [12]  430 	ld	hl, #_s_biga
      000137 7B               [ 4]  431 	ld	a, e
      000138 22               [ 8]  432 	ld	(hl+), a
      000139 72               [ 8]  433 	ld	(hl), d
                           00013A   434 	C$StateTutorialGame.c$126$1_0$193	= .
                                    435 	.globl	C$StateTutorialGame.c$126$1_0$193
                                    436 ;StateTutorialGame.c:126: s_horse = SpriteManagerAdd(SpriteHorse, pos_horse_x, pos_horse_y);
      00013A C5               [16]  437 	push	bc
      00013B F8 02            [12]  438 	ldhl	sp,	#2
      00013D 5E               [ 8]  439 	ld	e, (hl)
      00013E 16 00            [ 8]  440 	ld	d, #0x00
      000140 D5               [16]  441 	push	de
      000141 59               [ 4]  442 	ld	e, c
      000142 50               [ 4]  443 	ld	d, b
      000143 3E 01            [ 8]  444 	ld	a, #0x01
      000145 CDr00r00         [24]  445 	call	_SpriteManagerAdd
      000148 59               [ 4]  446 	ld	e, c
      000149 50               [ 4]  447 	ld	d, b
      00014A C1               [12]  448 	pop	bc
      00014B 21r00r00         [12]  449 	ld	hl, #_s_horse
      00014E 7B               [ 4]  450 	ld	a, e
      00014F 22               [ 8]  451 	ld	(hl+), a
      000150 72               [ 8]  452 	ld	(hl), d
                           000151   453 	C$StateTutorialGame.c$127$1_0$193	= .
                                    454 	.globl	C$StateTutorialGame.c$127$1_0$193
                                    455 ;StateTutorialGame.c:127: s_compass = SpriteManagerAdd(SpriteCompass, pos_horse_x, pos_horse_y);
      000151 D1               [12]  456 	pop	de
      000152 D5               [16]  457 	push	de
      000153 D5               [16]  458 	push	de
      000154 59               [ 4]  459 	ld	e, c
      000155 50               [ 4]  460 	ld	d, b
      000156 3E 04            [ 8]  461 	ld	a, #0x04
      000158 CDr00r00         [24]  462 	call	_SpriteManagerAdd
      00015B 21r00r00         [12]  463 	ld	hl, #_s_compass
      00015E 79               [ 4]  464 	ld	a, c
      00015F 22               [ 8]  465 	ld	(hl+), a
      000160 70               [ 8]  466 	ld	(hl), b
                           000161   467 	C$StateTutorialGame.c$129$1_0$193	= .
                                    468 	.globl	C$StateTutorialGame.c$129$1_0$193
                                    469 ;StateTutorialGame.c:129: switch(tutorial_state){
      000161 3E 08            [ 8]  470 	ld	a, #0x08
      000163 21r00r00         [12]  471 	ld	hl, #_tutorial_state
      000166 96               [ 8]  472 	sub	a, (hl)
      000167 DAr12r03         [16]  473 	jp	C, 00120$
      00016A 4E               [ 8]  474 	ld	c, (hl)
      00016B 06 00            [ 8]  475 	ld	b, #0x00
      00016D 21r74r01         [12]  476 	ld	hl, #00138$
      000170 09               [ 8]  477 	add	hl, bc
      000171 09               [ 8]  478 	add	hl, bc
      000172 09               [ 8]  479 	add	hl, bc
      000173 E9               [ 4]  480 	jp	(hl)
      000174                        481 00138$:
      000174 C3r8Fr01         [16]  482 	jp	00111$
      000177 C3rB0r01         [16]  483 	jp	00112$
      00017A C3rD0r01         [16]  484 	jp	00113$
      00017D C3rF0r01         [16]  485 	jp	00114$
      000180 C3r10r02         [16]  486 	jp	00115$
      000183 C3r30r02         [16]  487 	jp	00117$
      000186 C3r30r02         [16]  488 	jp	00117$
      000189 C3r50r02         [16]  489 	jp	00118$
      00018C C3r70r02         [16]  490 	jp	00119$
                           00018F   491 	C$StateTutorialGame.c$130$2_0$195	= .
                                    492 	.globl	C$StateTutorialGame.c$130$2_0$195
                                    493 ;StateTutorialGame.c:130: case TUTORIAL_STAGE_0_STRAIGHT:
      00018F                        494 00111$:
                           00018F   495 	C$StateTutorialGame.c$131$2_0$195	= .
                                    496 	.globl	C$StateTutorialGame.c$131$2_0$195
                                    497 ;StateTutorialGame.c:131: InitScroll(BANK(maptut00straight), &maptut00straight, coll_rome_tiles, coll_rome_surface);
      00018F 11r00r00         [12]  498 	ld	de, #_maptut00straight+0
      000192 0Er00            [ 8]  499 	ld	c, #<(___bank_maptut00straight)
      000194 21rC9r03         [12]  500 	ld	hl, #_coll_rome_surface
      000197 E5               [16]  501 	push	hl
      000198 21r61r03         [12]  502 	ld	hl, #_coll_rome_tiles
      00019B E5               [16]  503 	push	hl
      00019C 79               [ 4]  504 	ld	a, c
      00019D CDr00r00         [24]  505 	call	_InitScroll
                           0001A0   506 	C$StateTutorialGame.c$132$2_0$195	= .
                                    507 	.globl	C$StateTutorialGame.c$132$2_0$195
                                    508 ;StateTutorialGame.c:132: update_hp(16); 
      0001A0 3E 10            [ 8]  509 	ld	a, #0x10
      0001A2 F5               [16]  510 	push	af
      0001A3 33               [ 8]  511 	inc	sp
      0001A4 1Er00            [ 8]  512 	ld	e, #b_update_hp
      0001A6 21r00r00         [12]  513 	ld	hl, #_update_hp
      0001A9 CDr00r00         [24]  514 	call	___sdcc_bcall_ehl
      0001AC 33               [ 8]  515 	inc	sp
                           0001AD   516 	C$StateTutorialGame.c$133$2_0$195	= .
                                    517 	.globl	C$StateTutorialGame.c$133$2_0$195
                                    518 ;StateTutorialGame.c:133: break;
      0001AD C3r12r03         [16]  519 	jp	00120$
                           0001B0   520 	C$StateTutorialGame.c$134$2_0$195	= .
                                    521 	.globl	C$StateTutorialGame.c$134$2_0$195
                                    522 ;StateTutorialGame.c:134: case TUTORIAL_STAGE_1_STRAIGHTTIME:
      0001B0                        523 00112$:
                           0001B0   524 	C$StateTutorialGame.c$135$2_0$195	= .
                                    525 	.globl	C$StateTutorialGame.c$135$2_0$195
                                    526 ;StateTutorialGame.c:135: InitScroll(BANK(maptut00straight), &maptut00straight, coll_rome_tiles, coll_rome_surface);
      0001B0 11r00r00         [12]  527 	ld	de, #_maptut00straight+0
      0001B3 0Er00            [ 8]  528 	ld	c, #<(___bank_maptut00straight)
      0001B5 21rC9r03         [12]  529 	ld	hl, #_coll_rome_surface
      0001B8 E5               [16]  530 	push	hl
      0001B9 21r61r03         [12]  531 	ld	hl, #_coll_rome_tiles
      0001BC E5               [16]  532 	push	hl
      0001BD 79               [ 4]  533 	ld	a, c
      0001BE CDr00r00         [24]  534 	call	_InitScroll
                           0001C1   535 	C$StateTutorialGame.c$136$2_0$195	= .
                                    536 	.globl	C$StateTutorialGame.c$136$2_0$195
                                    537 ;StateTutorialGame.c:136: update_hp(0); 
      0001C1 AF               [ 4]  538 	xor	a, a
      0001C2 F5               [16]  539 	push	af
      0001C3 33               [ 8]  540 	inc	sp
      0001C4 1Er00            [ 8]  541 	ld	e, #b_update_hp
      0001C6 21r00r00         [12]  542 	ld	hl, #_update_hp
      0001C9 CDr00r00         [24]  543 	call	___sdcc_bcall_ehl
      0001CC 33               [ 8]  544 	inc	sp
                           0001CD   545 	C$StateTutorialGame.c$137$2_0$195	= .
                                    546 	.globl	C$StateTutorialGame.c$137$2_0$195
                                    547 ;StateTutorialGame.c:137: break;
      0001CD C3r12r03         [16]  548 	jp	00120$
                           0001D0   549 	C$StateTutorialGame.c$138$2_0$195	= .
                                    550 	.globl	C$StateTutorialGame.c$138$2_0$195
                                    551 ;StateTutorialGame.c:138: case TUTORIAL_STAGE_2_TURNRIGHT:
      0001D0                        552 00113$:
                           0001D0   553 	C$StateTutorialGame.c$139$2_0$195	= .
                                    554 	.globl	C$StateTutorialGame.c$139$2_0$195
                                    555 ;StateTutorialGame.c:139: InitScroll(BANK(maptut01turnright), &maptut01turnright, coll_rome_tiles, coll_rome_surface);
      0001D0 11r00r00         [12]  556 	ld	de, #_maptut01turnright+0
      0001D3 0Er00            [ 8]  557 	ld	c, #<(___bank_maptut01turnright)
      0001D5 21rC9r03         [12]  558 	ld	hl, #_coll_rome_surface
      0001D8 E5               [16]  559 	push	hl
      0001D9 21r61r03         [12]  560 	ld	hl, #_coll_rome_tiles
      0001DC E5               [16]  561 	push	hl
      0001DD 79               [ 4]  562 	ld	a, c
      0001DE CDr00r00         [24]  563 	call	_InitScroll
                           0001E1   564 	C$StateTutorialGame.c$140$2_0$195	= .
                                    565 	.globl	C$StateTutorialGame.c$140$2_0$195
                                    566 ;StateTutorialGame.c:140: update_hp(0); 
      0001E1 AF               [ 4]  567 	xor	a, a
      0001E2 F5               [16]  568 	push	af
      0001E3 33               [ 8]  569 	inc	sp
      0001E4 1Er00            [ 8]  570 	ld	e, #b_update_hp
      0001E6 21r00r00         [12]  571 	ld	hl, #_update_hp
      0001E9 CDr00r00         [24]  572 	call	___sdcc_bcall_ehl
      0001EC 33               [ 8]  573 	inc	sp
                           0001ED   574 	C$StateTutorialGame.c$141$2_0$195	= .
                                    575 	.globl	C$StateTutorialGame.c$141$2_0$195
                                    576 ;StateTutorialGame.c:141: break;
      0001ED C3r12r03         [16]  577 	jp	00120$
                           0001F0   578 	C$StateTutorialGame.c$142$2_0$195	= .
                                    579 	.globl	C$StateTutorialGame.c$142$2_0$195
                                    580 ;StateTutorialGame.c:142: case TUTORIAL_STAGE_3_TURNLEFT:
      0001F0                        581 00114$:
                           0001F0   582 	C$StateTutorialGame.c$143$2_0$195	= .
                                    583 	.globl	C$StateTutorialGame.c$143$2_0$195
                                    584 ;StateTutorialGame.c:143: InitScroll(BANK(maptut02turnleft), &maptut02turnleft, coll_rome_tiles, coll_rome_surface);
      0001F0 11r00r00         [12]  585 	ld	de, #_maptut02turnleft+0
      0001F3 0Er00            [ 8]  586 	ld	c, #<(___bank_maptut02turnleft)
      0001F5 21rC9r03         [12]  587 	ld	hl, #_coll_rome_surface
      0001F8 E5               [16]  588 	push	hl
      0001F9 21r61r03         [12]  589 	ld	hl, #_coll_rome_tiles
      0001FC E5               [16]  590 	push	hl
      0001FD 79               [ 4]  591 	ld	a, c
      0001FE CDr00r00         [24]  592 	call	_InitScroll
                           000201   593 	C$StateTutorialGame.c$144$2_0$195	= .
                                    594 	.globl	C$StateTutorialGame.c$144$2_0$195
                                    595 ;StateTutorialGame.c:144: update_hp(0); 
      000201 AF               [ 4]  596 	xor	a, a
      000202 F5               [16]  597 	push	af
      000203 33               [ 8]  598 	inc	sp
      000204 1Er00            [ 8]  599 	ld	e, #b_update_hp
      000206 21r00r00         [12]  600 	ld	hl, #_update_hp
      000209 CDr00r00         [24]  601 	call	___sdcc_bcall_ehl
      00020C 33               [ 8]  602 	inc	sp
                           00020D   603 	C$StateTutorialGame.c$145$2_0$195	= .
                                    604 	.globl	C$StateTutorialGame.c$145$2_0$195
                                    605 ;StateTutorialGame.c:145: break;
      00020D C3r12r03         [16]  606 	jp	00120$
                           000210   607 	C$StateTutorialGame.c$146$2_0$195	= .
                                    608 	.globl	C$StateTutorialGame.c$146$2_0$195
                                    609 ;StateTutorialGame.c:146: case TUTORIAL_STAGE_4_TURNRIGHTLEFT:
      000210                        610 00115$:
                           000210   611 	C$StateTutorialGame.c$147$2_0$195	= .
                                    612 	.globl	C$StateTutorialGame.c$147$2_0$195
                                    613 ;StateTutorialGame.c:147: InitScroll(BANK(maptut03turnrightleft), &maptut03turnrightleft, coll_rome_tiles, coll_rome_surface);
      000210 11r00r00         [12]  614 	ld	de, #_maptut03turnrightleft+0
      000213 0Er00            [ 8]  615 	ld	c, #<(___bank_maptut03turnrightleft)
      000215 21rC9r03         [12]  616 	ld	hl, #_coll_rome_surface
      000218 E5               [16]  617 	push	hl
      000219 21r61r03         [12]  618 	ld	hl, #_coll_rome_tiles
      00021C E5               [16]  619 	push	hl
      00021D 79               [ 4]  620 	ld	a, c
      00021E CDr00r00         [24]  621 	call	_InitScroll
                           000221   622 	C$StateTutorialGame.c$148$2_0$195	= .
                                    623 	.globl	C$StateTutorialGame.c$148$2_0$195
                                    624 ;StateTutorialGame.c:148: update_hp(0); 
      000221 AF               [ 4]  625 	xor	a, a
      000222 F5               [16]  626 	push	af
      000223 33               [ 8]  627 	inc	sp
      000224 1Er00            [ 8]  628 	ld	e, #b_update_hp
      000226 21r00r00         [12]  629 	ld	hl, #_update_hp
      000229 CDr00r00         [24]  630 	call	___sdcc_bcall_ehl
      00022C 33               [ 8]  631 	inc	sp
                           00022D   632 	C$StateTutorialGame.c$149$2_0$195	= .
                                    633 	.globl	C$StateTutorialGame.c$149$2_0$195
                                    634 ;StateTutorialGame.c:149: break;
      00022D C3r12r03         [16]  635 	jp	00120$
                           000230   636 	C$StateTutorialGame.c$151$2_0$195	= .
                                    637 	.globl	C$StateTutorialGame.c$151$2_0$195
                                    638 ;StateTutorialGame.c:151: case TUTORIAL_STAGE_6_ZIGZAG_ONTIME:
      000230                        639 00117$:
                           000230   640 	C$StateTutorialGame.c$152$2_0$195	= .
                                    641 	.globl	C$StateTutorialGame.c$152$2_0$195
                                    642 ;StateTutorialGame.c:152: InitScroll(BANK(maptut04zigzag), &maptut04zigzag, coll_rome_tiles, coll_rome_surface);
      000230 11r00r00         [12]  643 	ld	de, #_maptut04zigzag+0
      000233 0Er00            [ 8]  644 	ld	c, #<(___bank_maptut04zigzag)
      000235 21rC9r03         [12]  645 	ld	hl, #_coll_rome_surface
      000238 E5               [16]  646 	push	hl
      000239 21r61r03         [12]  647 	ld	hl, #_coll_rome_tiles
      00023C E5               [16]  648 	push	hl
      00023D 79               [ 4]  649 	ld	a, c
      00023E CDr00r00         [24]  650 	call	_InitScroll
                           000241   651 	C$StateTutorialGame.c$153$2_0$195	= .
                                    652 	.globl	C$StateTutorialGame.c$153$2_0$195
                                    653 ;StateTutorialGame.c:153: update_hp(0); 
      000241 AF               [ 4]  654 	xor	a, a
      000242 F5               [16]  655 	push	af
      000243 33               [ 8]  656 	inc	sp
      000244 1Er00            [ 8]  657 	ld	e, #b_update_hp
      000246 21r00r00         [12]  658 	ld	hl, #_update_hp
      000249 CDr00r00         [24]  659 	call	___sdcc_bcall_ehl
      00024C 33               [ 8]  660 	inc	sp
                           00024D   661 	C$StateTutorialGame.c$154$2_0$195	= .
                                    662 	.globl	C$StateTutorialGame.c$154$2_0$195
                                    663 ;StateTutorialGame.c:154: break;
      00024D C3r12r03         [16]  664 	jp	00120$
                           000250   665 	C$StateTutorialGame.c$155$2_0$195	= .
                                    666 	.globl	C$StateTutorialGame.c$155$2_0$195
                                    667 ;StateTutorialGame.c:155: case TUTORIAL_STAGE_7_DODGEWATER:
      000250                        668 00118$:
                           000250   669 	C$StateTutorialGame.c$156$2_0$195	= .
                                    670 	.globl	C$StateTutorialGame.c$156$2_0$195
                                    671 ;StateTutorialGame.c:156: InitScroll(BANK(maptut04dodgewater), &maptut04dodgewater, coll_rome_tiles, coll_rome_surface);
      000250 11r00r00         [12]  672 	ld	de, #_maptut04dodgewater+0
      000253 0Er00            [ 8]  673 	ld	c, #<(___bank_maptut04dodgewater)
      000255 21rC9r03         [12]  674 	ld	hl, #_coll_rome_surface
      000258 E5               [16]  675 	push	hl
      000259 21r61r03         [12]  676 	ld	hl, #_coll_rome_tiles
      00025C E5               [16]  677 	push	hl
      00025D 79               [ 4]  678 	ld	a, c
      00025E CDr00r00         [24]  679 	call	_InitScroll
                           000261   680 	C$StateTutorialGame.c$157$2_0$195	= .
                                    681 	.globl	C$StateTutorialGame.c$157$2_0$195
                                    682 ;StateTutorialGame.c:157: update_hp(0); 
      000261 AF               [ 4]  683 	xor	a, a
      000262 F5               [16]  684 	push	af
      000263 33               [ 8]  685 	inc	sp
      000264 1Er00            [ 8]  686 	ld	e, #b_update_hp
      000266 21r00r00         [12]  687 	ld	hl, #_update_hp
      000269 CDr00r00         [24]  688 	call	___sdcc_bcall_ehl
      00026C 33               [ 8]  689 	inc	sp
                           00026D   690 	C$StateTutorialGame.c$158$2_0$195	= .
                                    691 	.globl	C$StateTutorialGame.c$158$2_0$195
                                    692 ;StateTutorialGame.c:158: break;
      00026D C3r12r03         [16]  693 	jp	00120$
                           000270   694 	C$StateTutorialGame.c$159$2_0$195	= .
                                    695 	.globl	C$StateTutorialGame.c$159$2_0$195
                                    696 ;StateTutorialGame.c:159: case TUTORIAL_STAGE_8_GLADIO:
      000270                        697 00119$:
                           000270   698 	C$StateTutorialGame.c$160$1_0$193	= .
                                    699 	.globl	C$StateTutorialGame.c$160$1_0$193
                                    700 ;StateTutorialGame.c:160: Sprite* s_fantoccio = SpriteManagerAdd(SpriteFantoccio, s_horse->x + 256u, s_horse->y + 8u);
      000270 21r00r00         [12]  701 	ld	hl, #_s_horse
      000273 2A               [ 8]  702 	ld	a, (hl+)
      000274 4F               [ 4]  703 	ld	c, a
      000275 46               [ 8]  704 	ld	b, (hl)
      000276 21 0E 00         [12]  705 	ld	hl, #0x000e
      000279 09               [ 8]  706 	add	hl, bc
      00027A 5D               [ 4]  707 	ld	e, l
      00027B 54               [ 4]  708 	ld	d, h
      00027C 1A               [ 8]  709 	ld	a, (de)
      00027D F8 00            [12]  710 	ldhl	sp,	#0
      00027F 22               [ 8]  711 	ld	(hl+), a
      000280 13               [ 8]  712 	inc	de
      000281 1A               [ 8]  713 	ld	a, (de)
      000282 77               [ 8]  714 	ld	(hl), a
      000283 D1               [12]  715 	pop	de
      000284 D5               [16]  716 	push	de
      000285 21 08 00         [12]  717 	ld	hl, #0x0008
      000288 19               [ 8]  718 	add	hl, de
      000289 E5               [16]  719 	push	hl
      00028A 7D               [ 4]  720 	ld	a, l
      00028B F8 04            [12]  721 	ldhl	sp,	#4
      00028D 77               [ 8]  722 	ld	(hl), a
      00028E E1               [12]  723 	pop	hl
      00028F 7C               [ 4]  724 	ld	a, h
      000290 F8 03            [12]  725 	ldhl	sp,	#3
      000292 77               [ 8]  726 	ld	(hl), a
      000293 21 0C 00         [12]  727 	ld	hl, #0x000c
      000296 09               [ 8]  728 	add	hl, bc
      000297 2A               [ 8]  729 	ld	a, (hl+)
      000298 4E               [ 8]  730 	ld	c, (hl)
      000299 5F               [ 4]  731 	ld	e, a
      00029A 79               [ 4]  732 	ld	a, c
      00029B 3C               [ 4]  733 	inc	a
      00029C 57               [ 4]  734 	ld	d, a
      00029D F8 02            [12]  735 	ldhl	sp,	#2
      00029F 2A               [ 8]  736 	ld	a, (hl+)
      0002A0 4F               [ 4]  737 	ld	c, a
      0002A1 46               [ 8]  738 	ld	b, (hl)
      0002A2 C5               [16]  739 	push	bc
      0002A3 3E 07            [ 8]  740 	ld	a, #0x07
      0002A5 CDr00r00         [24]  741 	call	_SpriteManagerAdd
      0002A8 21r00r00         [12]  742 	ld	hl, #_s_horse
      0002AB 2A               [ 8]  743 	ld	a, (hl+)
      0002AC 4F               [ 4]  744 	ld	c, a
      0002AD 46               [ 8]  745 	ld	b, (hl)
                           0002AE   746 	C$StateTutorialGame.c$161$2_1$196	= .
                                    747 	.globl	C$StateTutorialGame.c$161$2_1$196
                                    748 ;StateTutorialGame.c:161: Sprite* s_item = SpriteManagerAdd(SpriteItem, s_horse->x + 64u, s_horse->y + 4u);
      0002AE 21 0E 00         [12]  749 	ld	hl, #0x000e
      0002B1 09               [ 8]  750 	add	hl, bc
      0002B2 5D               [ 4]  751 	ld	e, l
      0002B3 54               [ 4]  752 	ld	d, h
      0002B4 1A               [ 8]  753 	ld	a, (de)
      0002B5 F8 00            [12]  754 	ldhl	sp,	#0
      0002B7 22               [ 8]  755 	ld	(hl+), a
      0002B8 13               [ 8]  756 	inc	de
      0002B9 1A               [ 8]  757 	ld	a, (de)
      0002BA 77               [ 8]  758 	ld	(hl), a
      0002BB D1               [12]  759 	pop	de
      0002BC D5               [16]  760 	push	de
      0002BD 21 04 00         [12]  761 	ld	hl, #0x0004
      0002C0 19               [ 8]  762 	add	hl, de
      0002C1 E5               [16]  763 	push	hl
      0002C2 7D               [ 4]  764 	ld	a, l
      0002C3 F8 04            [12]  765 	ldhl	sp,	#4
      0002C5 77               [ 8]  766 	ld	(hl), a
      0002C6 E1               [12]  767 	pop	hl
      0002C7 7C               [ 4]  768 	ld	a, h
      0002C8 F8 03            [12]  769 	ldhl	sp,	#3
      0002CA 77               [ 8]  770 	ld	(hl), a
      0002CB 21 0C 00         [12]  771 	ld	hl, #0x000c
      0002CE 09               [ 8]  772 	add	hl, bc
      0002CF 2A               [ 8]  773 	ld	a, (hl+)
      0002D0 4F               [ 4]  774 	ld	c, a
      0002D1 46               [ 8]  775 	ld	b, (hl)
      0002D2 21 40 00         [12]  776 	ld	hl, #0x0040
      0002D5 09               [ 8]  777 	add	hl, bc
      0002D6 5D               [ 4]  778 	ld	e, l
      0002D7 54               [ 4]  779 	ld	d, h
      0002D8 F8 02            [12]  780 	ldhl	sp,	#2
      0002DA 2A               [ 8]  781 	ld	a, (hl+)
      0002DB 4F               [ 4]  782 	ld	c, a
      0002DC 46               [ 8]  783 	ld	b, (hl)
      0002DD C5               [16]  784 	push	bc
      0002DE 3E 08            [ 8]  785 	ld	a, #0x08
      0002E0 CDr00r00         [24]  786 	call	_SpriteManagerAdd
                           0002E3   787 	C$StateTutorialGame.c$162$2_1$196	= .
                                    788 	.globl	C$StateTutorialGame.c$162$2_1$196
                                    789 ;StateTutorialGame.c:162: struct ItemData* item_data = (struct ItemData*) s_item->custom_data;
      0002E3 21 1B 00         [12]  790 	ld	hl, #0x001b
      0002E6 09               [ 8]  791 	add	hl, bc
      0002E7 4D               [ 4]  792 	ld	c, l
      0002E8 44               [ 4]  793 	ld	b, h
                           0002E9   794 	C$StateTutorialGame.c$163$2_1$196	= .
                                    795 	.globl	C$StateTutorialGame.c$163$2_1$196
                                    796 ;StateTutorialGame.c:163: item_data->itemtype = GLADIO;
      0002E9 21 04 00         [12]  797 	ld	hl, #0x0004
      0002EC 09               [ 8]  798 	add	hl, bc
      0002ED 36 03            [12]  799 	ld	(hl), #0x03
                           0002EF   800 	C$StateTutorialGame.c$164$2_1$196	= .
                                    801 	.globl	C$StateTutorialGame.c$164$2_1$196
                                    802 ;StateTutorialGame.c:164: item_data->configured = 1;
      0002EF 03               [ 8]  803 	inc	bc
      0002F0 03               [ 8]  804 	inc	bc
      0002F1 03               [ 8]  805 	inc	bc
      0002F2 3E 01            [ 8]  806 	ld	a, #0x01
      0002F4 02               [ 8]  807 	ld	(bc), a
                           0002F5   808 	C$StateTutorialGame.c$165$2_1$196	= .
                                    809 	.globl	C$StateTutorialGame.c$165$2_1$196
                                    810 ;StateTutorialGame.c:165: InitScroll(BANK(maptut00straight), &maptut00straight, coll_rome_tiles, coll_rome_surface);
      0002F5 11r00r00         [12]  811 	ld	de, #_maptut00straight+0
      0002F8 0Er00            [ 8]  812 	ld	c, #<(___bank_maptut00straight)
      0002FA 21rC9r03         [12]  813 	ld	hl, #_coll_rome_surface
      0002FD E5               [16]  814 	push	hl
      0002FE 21r61r03         [12]  815 	ld	hl, #_coll_rome_tiles
      000301 E5               [16]  816 	push	hl
      000302 79               [ 4]  817 	ld	a, c
      000303 CDr00r00         [24]  818 	call	_InitScroll
                           000306   819 	C$StateTutorialGame.c$166$2_1$196	= .
                                    820 	.globl	C$StateTutorialGame.c$166$2_1$196
                                    821 ;StateTutorialGame.c:166: update_hp(0); 
      000306 AF               [ 4]  822 	xor	a, a
      000307 F5               [16]  823 	push	af
      000308 33               [ 8]  824 	inc	sp
      000309 1Er00            [ 8]  825 	ld	e, #b_update_hp
      00030B 21r00r00         [12]  826 	ld	hl, #_update_hp
      00030E CDr00r00         [24]  827 	call	___sdcc_bcall_ehl
      000311 33               [ 8]  828 	inc	sp
                           000312   829 	C$StateTutorialGame.c$168$1_0$193	= .
                                    830 	.globl	C$StateTutorialGame.c$168$1_0$193
                                    831 ;StateTutorialGame.c:168: }
      000312                        832 00120$:
                           000312   833 	C$StateTutorialGame.c$169$1_0$193	= .
                                    834 	.globl	C$StateTutorialGame.c$169$1_0$193
                                    835 ;StateTutorialGame.c:169: INIT_HUD(hudm);
      000312 11r00r00         [12]  836 	ld	de, #_hudm
      000315 0Er00            [ 8]  837 	ld	c, #<(___bank_hudm)
      000317 21r00r00         [12]  838 	ld	hl, #_scroll_h_border
      00031A E5               [16]  839 	push	hl
      00031B 21 00 00         [12]  840 	ld	hl, #0x0000
      00031E E5               [16]  841 	push	hl
      00031F 79               [ 4]  842 	ld	a, c
      000320 CDr00r00         [24]  843 	call	_GetMapSize
      000323 21r00r00         [12]  844 	ld	hl, #_scroll_h_border
      000326 7E               [ 8]  845 	ld	a, (hl)
      000327 87               [ 4]  846 	add	a, a
      000328 87               [ 4]  847 	add	a, a
      000329 87               [ 4]  848 	add	a, a
      00032A 77               [ 8]  849 	ld	(hl), a
      00032B 3E 07            [ 8]  850 	ld	a, #0x07
      00032D E0r00            [12]  851 	ldh	(_WX_REG + 0), a
      00032F 3E 90            [ 8]  852 	ld	a, #0x90
      000331 96               [ 8]  853 	sub	a, (hl)
      000332 E0r00            [12]  854 	ldh	(_WY_REG + 0), a
      000334 01r00r00         [12]  855 	ld	bc, #_hudm
      000337 3Er00            [ 8]  856 	ld	a, #<(___bank_hudm)
      000339 C5               [16]  857 	push	bc
      00033A 67               [ 4]  858 	ld	h, a
      00033B 2E 00            [ 8]  859 	ld	l, #0x00
      00033D E5               [16]  860 	push	hl
      00033E 1E 00            [ 8]  861 	ld	e, #0x00
      000340 3E 01            [ 8]  862 	ld	a, #0x01
      000342 CDr00r00         [24]  863 	call	_LoadMap
      000345 21r00r00         [12]  864 	ld	hl, #_hud_map_offset
      000348 79               [ 4]  865 	ld	a, c
      000349 22               [ 8]  866 	ld	(hl+), a
      00034A 70               [ 8]  867 	ld	(hl), b
      00034B F0r00            [12]  868 	ldh	a, (_LCDC_REG + 0)
      00034D F6 20            [ 8]  869 	or	a, #0x20
      00034F E0r00            [12]  870 	ldh	(_LCDC_REG + 0), a
                           000351   871 	C$StateTutorialGame.c$170$1_0$193	= .
                                    872 	.globl	C$StateTutorialGame.c$170$1_0$193
                                    873 ;StateTutorialGame.c:170: SetWindowY(104);
      000351 3E 68            [ 8]  874 	ld	a, #0x68
      000353 CDr00r00         [24]  875 	call	_SetWindowY
                           000356   876 	C$StateTutorialGame.c$171$1_0$193	= .
                                    877 	.globl	C$StateTutorialGame.c$171$1_0$193
                                    878 ;StateTutorialGame.c:171: start_common();
      000356 1Er00            [ 8]  879 	ld	e, #b_start_common
      000358 21r00r00         [12]  880 	ld	hl, #_start_common
      00035B CDr00r00         [24]  881 	call	___sdcc_bcall_ehl
                           00035E   882 	C$StateTutorialGame.c$172$1_0$193	= .
                                    883 	.globl	C$StateTutorialGame.c$172$1_0$193
                                    884 ;StateTutorialGame.c:172: }
      00035E E8 04            [16]  885 	add	sp, #4
                           000360   886 	C$StateTutorialGame.c$172$1_0$193	= .
                                    887 	.globl	C$StateTutorialGame.c$172$1_0$193
                           000360   888 	XG$Start_StateTutorialGame$0$0	= .
                                    889 	.globl	XG$Start_StateTutorialGame$0$0
      000360 C9               [16]  890 	ret
                           0000FF   891 G$__bank_StateTutorialGame$0_0$0 == 0x00ff
                           0000FF   892 ___bank_StateTutorialGame	=	0x00ff
                           000361   893 G$coll_rome_tiles$0_0$0 == .
      000361                        894 _coll_rome_tiles:
      000361 0F                     895 	.db #0x0f	; 15
      000362 10                     896 	.db #0x10	; 16
      000363 11                     897 	.db #0x11	; 17
      000364 12                     898 	.db #0x12	; 18
      000365 13                     899 	.db #0x13	; 19
      000366 14                     900 	.db #0x14	; 20
      000367 15                     901 	.db #0x15	; 21
      000368 16                     902 	.db #0x16	; 22
      000369 17                     903 	.db #0x17	; 23
      00036A 18                     904 	.db #0x18	; 24
      00036B 19                     905 	.db #0x19	; 25
      00036C 1A                     906 	.db #0x1a	; 26
      00036D 1B                     907 	.db #0x1b	; 27
      00036E 1C                     908 	.db #0x1c	; 28
      00036F 1D                     909 	.db #0x1d	; 29
      000370 1E                     910 	.db #0x1e	; 30
      000371 1F                     911 	.db #0x1f	; 31
      000372 20                     912 	.db #0x20	; 32
      000373 21                     913 	.db #0x21	; 33
      000374 22                     914 	.db #0x22	; 34
      000375 23                     915 	.db #0x23	; 35
      000376 24                     916 	.db #0x24	; 36
      000377 25                     917 	.db #0x25	; 37
      000378 26                     918 	.db #0x26	; 38
      000379 27                     919 	.db #0x27	; 39
      00037A 28                     920 	.db #0x28	; 40
      00037B 29                     921 	.db #0x29	; 41
      00037C 2A                     922 	.db #0x2a	; 42
      00037D 2B                     923 	.db #0x2b	; 43
      00037E 2C                     924 	.db #0x2c	; 44
      00037F 2D                     925 	.db #0x2d	; 45
      000380 2E                     926 	.db #0x2e	; 46
      000381 2F                     927 	.db #0x2f	; 47
      000382 30                     928 	.db #0x30	; 48	'0'
      000383 31                     929 	.db #0x31	; 49	'1'
      000384 32                     930 	.db #0x32	; 50	'2'
      000385 33                     931 	.db #0x33	; 51	'3'
      000386 34                     932 	.db #0x34	; 52	'4'
      000387 35                     933 	.db #0x35	; 53	'5'
      000388 36                     934 	.db #0x36	; 54	'6'
      000389 37                     935 	.db #0x37	; 55	'7'
      00038A 38                     936 	.db #0x38	; 56	'8'
      00038B 39                     937 	.db #0x39	; 57	'9'
      00038C 3A                     938 	.db #0x3a	; 58
      00038D 3B                     939 	.db #0x3b	; 59
      00038E 3C                     940 	.db #0x3c	; 60
      00038F 3D                     941 	.db #0x3d	; 61
      000390 3E                     942 	.db #0x3e	; 62
      000391 3F                     943 	.db #0x3f	; 63
      000392 40                     944 	.db #0x40	; 64
      000393 41                     945 	.db #0x41	; 65	'A'
      000394 42                     946 	.db #0x42	; 66	'B'
      000395 43                     947 	.db #0x43	; 67	'C'
      000396 44                     948 	.db #0x44	; 68	'D'
      000397 45                     949 	.db #0x45	; 69	'E'
      000398 46                     950 	.db #0x46	; 70	'F'
      000399 47                     951 	.db #0x47	; 71	'G'
      00039A 48                     952 	.db #0x48	; 72	'H'
      00039B 49                     953 	.db #0x49	; 73	'I'
      00039C 4A                     954 	.db #0x4a	; 74	'J'
      00039D 4B                     955 	.db #0x4b	; 75	'K'
      00039E 4C                     956 	.db #0x4c	; 76	'L'
      00039F 4D                     957 	.db #0x4d	; 77	'M'
      0003A0 4E                     958 	.db #0x4e	; 78	'N'
      0003A1 4F                     959 	.db #0x4f	; 79	'O'
      0003A2 50                     960 	.db #0x50	; 80	'P'
      0003A3 51                     961 	.db #0x51	; 81	'Q'
      0003A4 52                     962 	.db #0x52	; 82	'R'
      0003A5 53                     963 	.db #0x53	; 83	'S'
      0003A6 54                     964 	.db #0x54	; 84	'T'
      0003A7 55                     965 	.db #0x55	; 85	'U'
      0003A8 56                     966 	.db #0x56	; 86	'V'
      0003A9 57                     967 	.db #0x57	; 87	'W'
      0003AA 58                     968 	.db #0x58	; 88	'X'
      0003AB 59                     969 	.db #0x59	; 89	'Y'
      0003AC 5A                     970 	.db #0x5a	; 90	'Z'
      0003AD 5B                     971 	.db #0x5b	; 91
      0003AE 5C                     972 	.db #0x5c	; 92
      0003AF 5D                     973 	.db #0x5d	; 93
      0003B0 5E                     974 	.db #0x5e	; 94
      0003B1 5F                     975 	.db #0x5f	; 95
      0003B2 60                     976 	.db #0x60	; 96
      0003B3 61                     977 	.db #0x61	; 97	'a'
      0003B4 62                     978 	.db #0x62	; 98	'b'
      0003B5 63                     979 	.db #0x63	; 99	'c'
      0003B6 64                     980 	.db #0x64	; 100	'd'
      0003B7 65                     981 	.db #0x65	; 101	'e'
      0003B8 66                     982 	.db #0x66	; 102	'f'
      0003B9 67                     983 	.db #0x67	; 103	'g'
      0003BA 68                     984 	.db #0x68	; 104	'h'
      0003BB 69                     985 	.db #0x69	; 105	'i'
      0003BC 6A                     986 	.db #0x6a	; 106	'j'
      0003BD 6B                     987 	.db #0x6b	; 107	'k'
      0003BE 6C                     988 	.db #0x6c	; 108	'l'
      0003BF 6D                     989 	.db #0x6d	; 109	'm'
      0003C0 6E                     990 	.db #0x6e	; 110	'n'
      0003C1 6F                     991 	.db #0x6f	; 111	'o'
      0003C2 70                     992 	.db #0x70	; 112	'p'
      0003C3 71                     993 	.db #0x71	; 113	'q'
      0003C4 72                     994 	.db #0x72	; 114	'r'
      0003C5 76                     995 	.db #0x76	; 118	'v'
      0003C6 77                     996 	.db #0x77	; 119	'w'
      0003C7 79                     997 	.db #0x79	; 121	'y'
      0003C8 00                     998 	.db #0x00	; 0
                           0003C9   999 G$coll_rome_surface$0_0$0 == .
      0003C9                       1000 _coll_rome_surface:
      0003C9 00                    1001 	.db #0x00	; 0
      0003CA 00                    1002 	.db #0x00	; 0
                           0003CB  1003 	G$Update_StateTutorialGame$0$0	= .
                                   1004 	.globl	G$Update_StateTutorialGame$0$0
                           0003CB  1005 	C$StateTutorialGame.c$174$1_0$197	= .
                                   1006 	.globl	C$StateTutorialGame.c$174$1_0$197
                                   1007 ;StateTutorialGame.c:174: void UPDATE(){
                                   1008 ;	---------------------------------
                                   1009 ; Function Update_StateTutorialGame
                                   1010 ; ---------------------------------
      0003CB                       1011 _Update_StateTutorialGame::
                           0003CB  1012 	C$StateTutorialGame.c$176$1_0$197	= .
                                   1013 	.globl	C$StateTutorialGame.c$176$1_0$197
                                   1014 ;StateTutorialGame.c:176: if(tutorial_state < TUTORIAL_PASSED){
      0003CB FAr00r00         [16] 1015 	ld	a, (#_tutorial_state)
      0003CE D6 09            [ 8] 1016 	sub	a, #0x09
      0003D0 30 1D            [12] 1017 	jr	NC, 00104$
                           0003D2  1018 	C$StateTutorialGame.c$177$1_0$197	= .
                                   1019 	.globl	C$StateTutorialGame.c$177$1_0$197
                                   1020 ;StateTutorialGame.c:177: if(s_horse->x < 40u){
      0003D2 21r00r00         [12] 1021 	ld	hl, #_s_horse
      0003D5 2A               [ 8] 1022 	ld	a, (hl+)
      0003D6 4E               [ 8] 1023 	ld	c, (hl)
      0003D7 C6 0C            [ 8] 1024 	add	a, #0x0c
      0003D9 47               [ 4] 1025 	ld	b, a
      0003DA 30 01            [12] 1026 	jr	NC, 00176$
      0003DC 0C               [ 4] 1027 	inc	c
      0003DD                       1028 00176$:
      0003DD 68               [ 4] 1029 	ld	l, b
      0003DE 61               [ 4] 1030 	ld	h, c
      0003DF 2A               [ 8] 1031 	ld	a,	(hl+)
      0003E0 66               [ 8] 1032 	ld	h, (hl)
                                   1033 ;	spillPairReg hl
                                   1034 ;	spillPairReg hl
                                   1035 ;	spillPairReg hl
      0003E1 D6 28            [ 8] 1036 	sub	a, #0x28
      0003E3 7C               [ 4] 1037 	ld	a, h
      0003E4 DE 00            [ 8] 1038 	sbc	a, #0x00
      0003E6 30 07            [12] 1039 	jr	NC, 00104$
                           0003E8  1040 	C$StateTutorialGame.c$178$3_0$199	= .
                                   1041 	.globl	C$StateTutorialGame.c$178$3_0$199
                                   1042 ;StateTutorialGame.c:178: s_horse->x = 40u;
      0003E8 68               [ 4] 1043 	ld	l, b
      0003E9 61               [ 4] 1044 	ld	h, c
      0003EA 3E 28            [ 8] 1045 	ld	a, #0x28
      0003EC 22               [ 8] 1046 	ld	(hl+), a
      0003ED 36 00            [12] 1047 	ld	(hl), #0x00
      0003EF                       1048 00104$:
                           0003EF  1049 	C$StateTutorialGame.c$182$1_0$197	= .
                                   1050 	.globl	C$StateTutorialGame.c$182$1_0$197
                                   1051 ;StateTutorialGame.c:182: print_target = PRINT_WIN;
      0003EF 21r00r00         [12] 1052 	ld	hl, #_print_target
      0003F2 36 01            [12] 1053 	ld	(hl), #0x01
                           0003F4  1054 	C$StateTutorialGame.c$183$1_0$197	= .
                                   1055 	.globl	C$StateTutorialGame.c$183$1_0$197
                                   1056 ;StateTutorialGame.c:183: if(hud_initialized == 0){
      0003F4 FAr00r00         [16] 1057 	ld	a, (#_hud_initialized)
      0003F7 B7               [ 4] 1058 	or	a, a
      0003F8 20 11            [12] 1059 	jr	NZ, 00106$
                           0003FA  1060 	C$StateTutorialGame.c$184$2_0$200	= .
                                   1061 	.globl	C$StateTutorialGame.c$184$2_0$200
                                   1062 ;StateTutorialGame.c:184: update_hp(0);
      0003FA AF               [ 4] 1063 	xor	a, a
      0003FB F5               [16] 1064 	push	af
      0003FC 33               [ 8] 1065 	inc	sp
      0003FD 1Er00            [ 8] 1066 	ld	e, #b_update_hp
      0003FF 21r00r00         [12] 1067 	ld	hl, #_update_hp
      000402 CDr00r00         [24] 1068 	call	___sdcc_bcall_ehl
      000405 33               [ 8] 1069 	inc	sp
                           000406  1070 	C$StateTutorialGame.c$185$2_0$200	= .
                                   1071 	.globl	C$StateTutorialGame.c$185$2_0$200
                                   1072 ;StateTutorialGame.c:185: hud_initialized = 1u;
      000406 21r00r00         [12] 1073 	ld	hl, #_hud_initialized
      000409 36 01            [12] 1074 	ld	(hl), #0x01
      00040B                       1075 00106$:
                           00040B  1076 	C$StateTutorialGame.c$188$1_0$197	= .
                                   1077 	.globl	C$StateTutorialGame.c$188$1_0$197
                                   1078 ;StateTutorialGame.c:188: update_stamina();
      00040B 1Er00            [ 8] 1079 	ld	e, #b_update_stamina
      00040D 21r00r00         [12] 1080 	ld	hl, #_update_stamina
      000410 CDr00r00         [24] 1081 	call	___sdcc_bcall_ehl
                           000413  1082 	C$StateTutorialGame.c$190$1_0$197	= .
                                   1083 	.globl	C$StateTutorialGame.c$190$1_0$197
                                   1084 ;StateTutorialGame.c:190: update_compass();
      000413 1Er00            [ 8] 1085 	ld	e, #b_update_compass
      000415 21r00r00         [12] 1086 	ld	hl, #_update_compass
      000418 CDr00r00         [24] 1087 	call	___sdcc_bcall_ehl
                           00041B  1088 	C$StateTutorialGame.c$192$1_0$197	= .
                                   1089 	.globl	C$StateTutorialGame.c$192$1_0$197
                                   1090 ;StateTutorialGame.c:192: update_turning();
      00041B 1Er00            [ 8] 1091 	ld	e, #b_update_turning
      00041D 21r00r00         [12] 1092 	ld	hl, #_update_turning
      000420 CDr00r00         [24] 1093 	call	___sdcc_bcall_ehl
                           000423  1094 	C$StateTutorialGame.c$194$1_0$197	= .
                                   1095 	.globl	C$StateTutorialGame.c$194$1_0$197
                                   1096 ;StateTutorialGame.c:194: if(euphoria_min_current != euphoria_min || euphoria_max_current != euphoria_max){
      000423 FAr00r00         [16] 1097 	ld	a, (#_euphoria_min_current)
      000426 21r00r00         [12] 1098 	ld	hl, #_euphoria_min
      000429 96               [ 8] 1099 	sub	a, (hl)
      00042A 20 1B            [12] 1100 	jr	NZ, 00107$
      00042C FAr01r00         [16] 1101 	ld	a, (#_euphoria_min_current + 1)
      00042F 21r01r00         [12] 1102 	ld	hl, #_euphoria_min + 1
      000432 96               [ 8] 1103 	sub	a, (hl)
      000433 20 12            [12] 1104 	jr	NZ, 00107$
      000435 FAr00r00         [16] 1105 	ld	a, (#_euphoria_max_current)
      000438 21r00r00         [12] 1106 	ld	hl, #_euphoria_max
      00043B 96               [ 8] 1107 	sub	a, (hl)
      00043C 20 09            [12] 1108 	jr	NZ, 00179$
      00043E FAr01r00         [16] 1109 	ld	a, (#_euphoria_max_current + 1)
      000441 21r01r00         [12] 1110 	ld	hl, #_euphoria_max + 1
      000444 96               [ 8] 1111 	sub	a, (hl)
      000445 28 08            [12] 1112 	jr	Z, 00108$
      000447                       1113 00179$:
      000447                       1114 00107$:
                           000447  1115 	C$StateTutorialGame.c$195$2_0$201	= .
                                   1116 	.globl	C$StateTutorialGame.c$195$2_0$201
                                   1117 ;StateTutorialGame.c:195: update_euphoria();
      000447 1Er00            [ 8] 1118 	ld	e, #b_update_euphoria
      000449 21r00r00         [12] 1119 	ld	hl, #_update_euphoria
      00044C CDr00r00         [24] 1120 	call	___sdcc_bcall_ehl
      00044F                       1121 00108$:
                           00044F  1122 	C$StateTutorialGame.c$198$1_0$197	= .
                                   1123 	.globl	C$StateTutorialGame.c$198$1_0$197
                                   1124 ;StateTutorialGame.c:198: if(is_crono == 1){
      00044F FAr01r00         [16] 1125 	ld	a, (#_is_crono)
      000452 3D               [ 4] 1126 	dec	a
      000453 20 13            [12] 1127 	jr	NZ, 00111$
                           000455  1128 	C$StateTutorialGame.c$199$2_0$202	= .
                                   1129 	.globl	C$StateTutorialGame.c$199$2_0$202
                                   1130 ;StateTutorialGame.c:199: update_time();
      000455 1Er00            [ 8] 1131 	ld	e, #b_update_time
      000457 21r00r00         [12] 1132 	ld	hl, #_update_time
      00045A CDr00r00         [24] 1133 	call	___sdcc_bcall_ehl
                           00045D  1134 	C$StateTutorialGame.c$200$2_0$202	= .
                                   1135 	.globl	C$StateTutorialGame.c$200$2_0$202
                                   1136 ;StateTutorialGame.c:200: time_current--;
      00045D 21r00r00         [12] 1137 	ld	hl, #_time_current
      000460 2A               [ 8] 1138 	ld	a, (hl+)
      000461 5F               [ 4] 1139 	ld	e, a
      000462 3A               [ 8] 1140 	ld	a, (hl-)
      000463 57               [ 4] 1141 	ld	d, a
      000464 1B               [ 8] 1142 	dec	de
      000465 7B               [ 4] 1143 	ld	a, e
      000466 22               [ 8] 1144 	ld	(hl+), a
      000467 72               [ 8] 1145 	ld	(hl), d
                           000468  1146 	C$StateTutorialGame.c$201$1_0$197	= .
                                   1147 	.globl	C$StateTutorialGame.c$201$1_0$197
                                   1148 ;StateTutorialGame.c:201: if(time_current < 0){
      000468                       1149 00111$:
                           000468  1150 	C$StateTutorialGame.c$207$1_0$197	= .
                                   1151 	.globl	C$StateTutorialGame.c$207$1_0$197
                                   1152 ;StateTutorialGame.c:207: if(onwater_countdown > 0){
      000468 21r00r00         [12] 1153 	ld	hl, #_onwater_countdown
      00046B 5E               [ 8] 1154 	ld	e, (hl)
      00046C AF               [ 4] 1155 	xor	a, a
      00046D 57               [ 4] 1156 	ld	d, a
      00046E 96               [ 8] 1157 	sub	a, (hl)
      00046F CB 7B            [ 8] 1158 	bit	7, e
      000471 28 07            [12] 1159 	jr	Z, 00182$
      000473 CB 7A            [ 8] 1160 	bit	7, d
      000475 20 08            [12] 1161 	jr	NZ, 00183$
      000477 BF               [ 4] 1162 	cp	a, a
      000478 18 05            [12] 1163 	jr	00183$
      00047A                       1164 00182$:
      00047A CB 7A            [ 8] 1165 	bit	7, d
      00047C 28 01            [12] 1166 	jr	Z, 00183$
      00047E 37               [ 4] 1167 	scf
      00047F                       1168 00183$:
      00047F 30 05            [12] 1169 	jr	NC, 00113$
                           000481  1170 	C$StateTutorialGame.c$208$2_0$204	= .
                                   1171 	.globl	C$StateTutorialGame.c$208$2_0$204
                                   1172 ;StateTutorialGame.c:208: SetState(StateTutorialGame);
      000481 3E 01            [ 8] 1173 	ld	a, #0x01
      000483 CDr00r00         [24] 1174 	call	_SetState
      000486                       1175 00113$:
                           000486  1176 	C$StateTutorialGame.c$211$1_0$197	= .
                                   1177 	.globl	C$StateTutorialGame.c$211$1_0$197
                                   1178 ;StateTutorialGame.c:211: if(track_ended == 1u){
      000486 FAr00r00         [16] 1179 	ld	a, (#_track_ended)
      000489 3D               [ 4] 1180 	dec	a
      00048A C0               [20] 1181 	ret	NZ
                           00048B  1182 	C$StateTutorialGame.c$212$2_0$205	= .
                                   1183 	.globl	C$StateTutorialGame.c$212$2_0$205
                                   1184 ;StateTutorialGame.c:212: track_ended_cooldown--;
      00048B 21r00r00         [12] 1185 	ld	hl, #_track_ended_cooldown
      00048E 35               [12] 1186 	dec	(hl)
                           00048F  1187 	C$StateTutorialGame.c$213$2_0$205	= .
                                   1188 	.globl	C$StateTutorialGame.c$213$2_0$205
                                   1189 ;StateTutorialGame.c:213: if(track_ended_cooldown <= 0){//cambia stato
      00048F 5E               [ 8] 1190 	ld	e, (hl)
      000490 AF               [ 4] 1191 	xor	a, a
      000491 57               [ 4] 1192 	ld	d, a
      000492 96               [ 8] 1193 	sub	a, (hl)
      000493 CB 7B            [ 8] 1194 	bit	7, e
      000495 28 07            [12] 1195 	jr	Z, 00186$
      000497 CB 7A            [ 8] 1196 	bit	7, d
      000499 20 08            [12] 1197 	jr	NZ, 00187$
      00049B BF               [ 4] 1198 	cp	a, a
      00049C 18 05            [12] 1199 	jr	00187$
      00049E                       1200 00186$:
      00049E CB 7A            [ 8] 1201 	bit	7, d
      0004A0 28 01            [12] 1202 	jr	Z, 00187$
      0004A2 37               [ 4] 1203 	scf
      0004A3                       1204 00187$:
      0004A3 D8               [20] 1205 	ret	C
                           0004A4  1206 	C$StateTutorialGame.c$214$3_0$206	= .
                                   1207 	.globl	C$StateTutorialGame.c$214$3_0$206
                                   1208 ;StateTutorialGame.c:214: tutorial_state++;
      0004A4 21r00r00         [12] 1209 	ld	hl, #_tutorial_state
      0004A7 34               [12] 1210 	inc	(hl)
                           0004A8  1211 	C$StateTutorialGame.c$215$3_0$206	= .
                                   1212 	.globl	C$StateTutorialGame.c$215$3_0$206
                                   1213 ;StateTutorialGame.c:215: SetState(StateTutorialGame);
      0004A8 3E 01            [ 8] 1214 	ld	a, #0x01
                           0004AA  1215 	C$StateTutorialGame.c$218$1_0$197	= .
                                   1216 	.globl	C$StateTutorialGame.c$218$1_0$197
                                   1217 ;StateTutorialGame.c:218: }
                           0004AA  1218 	C$StateTutorialGame.c$218$1_0$197	= .
                                   1219 	.globl	C$StateTutorialGame.c$218$1_0$197
                           0004AA  1220 	XG$Update_StateTutorialGame$0$0	= .
                                   1221 	.globl	XG$Update_StateTutorialGame$0$0
      0004AA C3r00r00         [16] 1222 	jp	_SetState
                                   1223 	.area _CODE_255
                                   1224 	.area _INITIALIZER
                           000000  1225 FStateTutorialGame$__xinit_tutorial_state$0_0$0 == .
      000000                       1226 __xinit__tutorial_state:
      000000 00                    1227 	.db #0x00	; 0
                           000001  1228 FStateTutorialGame$__xinit_is_crono$0_0$0 == .
      000001                       1229 __xinit__is_crono:
      000001 00                    1230 	.db #0x00	;  0
                                   1231 	.area _CABS (ABS)
