                                      1 ;--------------------------------------------------------
                                      2 ; File Created by SDCC : free open source ISO C Compiler 
                                      3 ; Version 4.3.2 #14228 (MINGW64)
                                      4 ;--------------------------------------------------------
                                      5 	.module Fade_b
                                      6 	.optsdcc -msm83
                                      7 	
                                      8 ;--------------------------------------------------------
                                      9 ; Public variables in this module
                                     10 ;--------------------------------------------------------
                                     11 	.globl b_FadeOut_b
                                     12 	.globl _FadeOut_b
                                     13 	.globl _FadeOutColor
                                     14 	.globl _FadeOutDMG
                                     15 	.globl b_FadeIn_b
                                     16 	.globl _FadeIn_b
                                     17 	.globl _FadeInCOLOR
                                     18 	.globl _FadeStepColor
                                     19 	.globl _UpdateColor
                                     20 	.globl _FadeInDMG
                                     21 	.globl _FadeDMG
                                     22 	.globl _FadeInOp
                                     23 	.globl _DespRight
                                     24 	.globl _set_sprite_palette
                                     25 	.globl _set_bkg_palette
                                     26 	.globl _delay
                                     27 	.globl _ZGB_Fading_SPal
                                     28 	.globl _ZGB_Fading_BPal
                                     29 ;--------------------------------------------------------
                                     30 ; special function registers
                                     31 ;--------------------------------------------------------
                                     32 ;--------------------------------------------------------
                                     33 ; ram data
                                     34 ;--------------------------------------------------------
                                     35 	.area _DATA
                           000000    36 G$ZGB_Fading_BPal$0_0$0==.
      000000                         37 _ZGB_Fading_BPal::
      000000                         38 	.ds 64
                           000040    39 G$ZGB_Fading_SPal$0_0$0==.
      000040                         40 _ZGB_Fading_SPal::
      000040                         41 	.ds 64
                                     42 ;--------------------------------------------------------
                                     43 ; ram data
                                     44 ;--------------------------------------------------------
                                     45 	.area _INITIALIZED
                                     46 ;--------------------------------------------------------
                                     47 ; absolute external ram data
                                     48 ;--------------------------------------------------------
                                     49 	.area _DABS (ABS)
                                     50 ;--------------------------------------------------------
                                     51 ; global & static initialisations
                                     52 ;--------------------------------------------------------
                                     53 	.area _HOME
                                     54 	.area _GSINIT
                                     55 	.area _GSFINAL
                                     56 	.area _GSINIT
                                     57 ;--------------------------------------------------------
                                     58 ; Home
                                     59 ;--------------------------------------------------------
                                     60 	.area _HOME
                                     61 	.area _HOME
                                     62 ;--------------------------------------------------------
                                     63 ; code
                                     64 ;--------------------------------------------------------
                                     65 	.area _CODE_1
                           000000    66 	G$FadeInOp$0$0	= .
                                     67 	.globl	G$FadeInOp$0$0
                           000000    68 	C$Fade_b.c$11$0_0$133	= .
                                     69 	.globl	C$Fade_b.c$11$0_0$133
                                     70 ;C:/ZGB-2023.0/common/src/Fade_b.c:11: UINT8 FadeInOp(UINT16 c, UINT16 i) {
                                     71 ;	---------------------------------
                                     72 ; Function FadeInOp
                                     73 ; ---------------------------------
      000000                         74 _FadeInOp::
                           000000    75 	C$Fade_b.c$12$1_0$133	= .
                                     76 	.globl	C$Fade_b.c$12$1_0$133
                                     77 ;C:/ZGB-2023.0/common/src/Fade_b.c:12: return U_LESS_THAN(c, i) ? 0: (c - i);
      000000 7B               [ 4]   78 	ld	a, e
      000001 91               [ 4]   79 	sub	a, c
                                     80 ;	spillPairReg hl
                                     81 ;	spillPairReg hl
      000002 7A               [ 4]   82 	ld	a, d
      000003 98               [ 4]   83 	sbc	a, b
      000004 07               [ 4]   84 	rlca
      000005 30 02            [12]   85 	jr	NC, 00103$
      000007 AF               [ 4]   86 	xor	a, a
      000008 C9               [16]   87 	ret
      000009                         88 00103$:
      000009 7B               [ 4]   89 	ld	a, e
      00000A 91               [ 4]   90 	sub	a, c
                           00000B    91 	C$Fade_b.c$13$1_0$133	= .
                                     92 	.globl	C$Fade_b.c$13$1_0$133
                                     93 ;C:/ZGB-2023.0/common/src/Fade_b.c:13: }
                           00000B    94 	C$Fade_b.c$13$1_0$133	= .
                                     95 	.globl	C$Fade_b.c$13$1_0$133
                           00000B    96 	XG$FadeInOp$0$0	= .
                                     97 	.globl	XG$FadeInOp$0$0
      00000B C9               [16]   98 	ret
                           00000C    99 	G$FadeDMG$0$0	= .
                                    100 	.globl	G$FadeDMG$0$0
                           00000C   101 	C$Fade_b.c$15$1_0$135	= .
                                    102 	.globl	C$Fade_b.c$15$1_0$135
                                    103 ;C:/ZGB-2023.0/common/src/Fade_b.c:15: void FadeDMG(UINT8 fadeout) {
                                    104 ;	---------------------------------
                                    105 ; Function FadeDMG
                                    106 ; ---------------------------------
      00000C                        107 _FadeDMG::
      00000C E8 E3            [16]  108 	add	sp, #-29
      00000E F8 1A            [12]  109 	ldhl	sp,	#26
      000010 77               [ 8]  110 	ld	(hl), a
                           000011   111 	C$Fade_b.c$17$2_0$135	= .
                                    112 	.globl	C$Fade_b.c$17$2_0$135
                                    113 ;C:/ZGB-2023.0/common/src/Fade_b.c:17: UINT8* pals[] = {(UINT8*)0xFF47, (UINT8*)0xFF48, (UINT8*)0xFF49};
      000011 F8 0C            [12]  114 	ldhl	sp,	#12
      000013 3E 47            [ 8]  115 	ld	a, #0x47
      000015 22               [ 8]  116 	ld	(hl+), a
      000016 3E FF            [ 8]  117 	ld	a, #0xff
      000018 22               [ 8]  118 	ld	(hl+), a
      000019 3E 48            [ 8]  119 	ld	a, #0x48
      00001B 22               [ 8]  120 	ld	(hl+), a
      00001C 3E FF            [ 8]  121 	ld	a, #0xff
      00001E 22               [ 8]  122 	ld	(hl+), a
      00001F 3E 49            [ 8]  123 	ld	a, #0x49
      000021 22               [ 8]  124 	ld	(hl+), a
      000022 36 FF            [12]  125 	ld	(hl), #0xff
                           000024   126 	C$Fade_b.c$19$2_0$135	= .
                                    127 	.globl	C$Fade_b.c$19$2_0$135
                                    128 ;C:/ZGB-2023.0/common/src/Fade_b.c:19: UINT8* c = colors;
      000024 21 00 00         [12]  129 	ld	hl, #0
      000027 39               [ 8]  130 	add	hl, sp
      000028 E5               [16]  131 	push	hl
      000029 7D               [ 4]  132 	ld	a, l
      00002A F8 1A            [12]  133 	ldhl	sp,	#26
      00002C 77               [ 8]  134 	ld	(hl), a
      00002D E1               [12]  135 	pop	hl
      00002E 7C               [ 4]  136 	ld	a, h
      00002F F8 19            [12]  137 	ldhl	sp,	#25
      000031 77               [ 8]  138 	ld	(hl), a
                           000032   139 	C$Fade_b.c$23$2_0$135	= .
                                    140 	.globl	C$Fade_b.c$23$2_0$135
                                    141 ;C:/ZGB-2023.0/common/src/Fade_b.c:23: for(i = 0; i != 3; ++i) {
      000032 F8 1C            [12]  142 	ldhl	sp,	#28
      000034 36 00            [12]  143 	ld	(hl), #0x00
      000036                        144 00107$:
                           000036   145 	C$Fade_b.c$24$3_0$137	= .
                                    146 	.globl	C$Fade_b.c$24$3_0$137
                                    147 ;C:/ZGB-2023.0/common/src/Fade_b.c:24: p = (UINT8)*(pals[i]);
      000036 F8 1C            [12]  148 	ldhl	sp,	#28
      000038 7E               [ 8]  149 	ld	a, (hl)
      000039 F8 16            [12]  150 	ldhl	sp,	#22
      00003B 22               [ 8]  151 	ld	(hl+), a
      00003C AF               [ 4]  152 	xor	a, a
      00003D 32               [ 8]  153 	ld	(hl-), a
      00003E 3A               [ 8]  154 	ld	a, (hl-)
      00003F 2B               [ 8]  155 	dec	hl
      000040 77               [ 8]  156 	ld	(hl), a
      000041 F8 17            [12]  157 	ldhl	sp,	#23
      000043 3A               [ 8]  158 	ld	a, (hl-)
      000044 2B               [ 8]  159 	dec	hl
      000045 32               [ 8]  160 	ld	(hl-), a
      000046 CB 26            [16]  161 	sla	(hl)
      000048 23               [ 8]  162 	inc	hl
      000049 CB 16            [16]  163 	rl	(hl)
      00004B E5               [16]  164 	push	hl
      00004C 21 0E 00         [12]  165 	ld	hl, #14
      00004F 39               [ 8]  166 	add	hl, sp
      000050 5D               [ 4]  167 	ld	e, l
      000051 54               [ 4]  168 	ld	d, h
      000052 E1               [12]  169 	pop	hl
      000053 F8 14            [12]  170 	ldhl	sp,	#20
      000055 2A               [ 8]  171 	ld	a,	(hl+)
      000056 66               [ 8]  172 	ld	h, (hl)
      000057 6F               [ 4]  173 	ld	l, a
      000058 19               [ 8]  174 	add	hl, de
      000059 E5               [16]  175 	push	hl
      00005A 7D               [ 4]  176 	ld	a, l
      00005B F8 18            [12]  177 	ldhl	sp,	#24
      00005D 77               [ 8]  178 	ld	(hl), a
      00005E E1               [12]  179 	pop	hl
      00005F 7C               [ 4]  180 	ld	a, h
      000060 F8 17            [12]  181 	ldhl	sp,	#23
      000062 32               [ 8]  182 	ld	(hl-), a
      000063 2A               [ 8]  183 	ld	a, (hl+)
      000064 5F               [ 4]  184 	ld	e, a
      000065 56               [ 8]  185 	ld	d, (hl)
      000066 1A               [ 8]  186 	ld	a, (de)
      000067 4F               [ 4]  187 	ld	c, a
      000068 13               [ 8]  188 	inc	de
      000069 1A               [ 8]  189 	ld	a, (de)
      00006A 47               [ 4]  190 	ld	b, a
      00006B 0A               [ 8]  191 	ld	a, (bc)
      00006C 77               [ 8]  192 	ld	(hl), a
                           00006D   193 	C$Fade_b.c$25$4_0$138	= .
                                    194 	.globl	C$Fade_b.c$25$4_0$138
                                    195 ;C:/ZGB-2023.0/common/src/Fade_b.c:25: for(j = 0; j != 8; j += 2, ++c) {
      00006D F8 1B            [12]  196 	ldhl	sp,	#27
      00006F 36 00            [12]  197 	ld	(hl), #0x00
      000071 F8 18            [12]  198 	ldhl	sp,	#24
      000073 2A               [ 8]  199 	ld	a, (hl+)
      000074 5F               [ 4]  200 	ld	e, a
      000075 56               [ 8]  201 	ld	d, (hl)
      000076                        202 00105$:
                           000076   203 	C$Fade_b.c$26$5_0$139	= .
                                    204 	.globl	C$Fade_b.c$26$5_0$139
                                    205 ;C:/ZGB-2023.0/common/src/Fade_b.c:26: *c = (DespRight(p, j)) & 0x3;
      000076 F8 1B            [12]  206 	ldhl	sp,	#27
      000078 4E               [ 8]  207 	ld	c, (hl)
      000079 06 00            [ 8]  208 	ld	b, #0x00
      00007B F8 17            [12]  209 	ldhl	sp,	#23
      00007D 2A               [ 8]  210 	ld	a, (hl+)
      00007E 22               [ 8]  211 	ld	(hl+), a
      00007F AF               [ 4]  212 	xor	a, a
      000080 32               [ 8]  213 	ld	(hl-), a
      000081 D5               [16]  214 	push	de
      000082 5E               [ 8]  215 	ld	e, (hl)
      000083 16 00            [ 8]  216 	ld	d, #0x00
      000085 CDr00r00         [24]  217 	call	_DespRight
      000088 D1               [12]  218 	pop	de
      000089 79               [ 4]  219 	ld	a, c
      00008A E6 03            [ 8]  220 	and	a, #0x03
      00008C 12               [ 8]  221 	ld	(de), a
                           00008D   222 	C$Fade_b.c$25$4_0$138	= .
                                    223 	.globl	C$Fade_b.c$25$4_0$138
                                    224 ;C:/ZGB-2023.0/common/src/Fade_b.c:25: for(j = 0; j != 8; j += 2, ++c) {
      00008D F8 1B            [12]  225 	ldhl	sp,	#27
      00008F 7E               [ 8]  226 	ld	a, (hl)
      000090 C6 02            [ 8]  227 	add	a, #0x02
      000092 77               [ 8]  228 	ld	(hl), a
      000093 13               [ 8]  229 	inc	de
      000094 7E               [ 8]  230 	ld	a, (hl)
      000095 D6 08            [ 8]  231 	sub	a, #0x08
      000097 20 DD            [12]  232 	jr	NZ, 00105$
                           000099   233 	C$Fade_b.c$23$2_0$135	= .
                                    234 	.globl	C$Fade_b.c$23$2_0$135
                                    235 ;C:/ZGB-2023.0/common/src/Fade_b.c:23: for(i = 0; i != 3; ++i) {
      000099 F8 18            [12]  236 	ldhl	sp,	#24
      00009B 7B               [ 4]  237 	ld	a, e
      00009C 22               [ 8]  238 	ld	(hl+), a
      00009D 72               [ 8]  239 	ld	(hl), d
      00009E F8 1C            [12]  240 	ldhl	sp,	#28
      0000A0 34               [12]  241 	inc	(hl)
      0000A1 7E               [ 8]  242 	ld	a, (hl)
      0000A2 D6 03            [ 8]  243 	sub	a, #0x03
      0000A4 20 90            [12]  244 	jr	NZ, 00107$
                           0000A6   245 	C$Fade_b.c$30$2_0$135	= .
                                    246 	.globl	C$Fade_b.c$30$2_0$135
                                    247 ;C:/ZGB-2023.0/common/src/Fade_b.c:30: for(i = 0; i != 4; ++i) {
      0000A6 F8 1B            [12]  248 	ldhl	sp,	#27
      0000A8 36 00            [12]  249 	ld	(hl), #0x00
      0000AA                        250 00111$:
                           0000AA   251 	C$Fade_b.c$31$3_0$141	= .
                                    252 	.globl	C$Fade_b.c$31$3_0$141
                                    253 ;C:/ZGB-2023.0/common/src/Fade_b.c:31: p = fadeout ? 3 - i : i;
      0000AA F8 1A            [12]  254 	ldhl	sp,	#26
      0000AC 7E               [ 8]  255 	ld	a, (hl)
      0000AD B7               [ 4]  256 	or	a, a
      0000AE 28 07            [12]  257 	jr	Z, 00115$
      0000B0 23               [ 8]  258 	inc	hl
      0000B1 4E               [ 8]  259 	ld	c, (hl)
      0000B2 3E 03            [ 8]  260 	ld	a, #0x03
      0000B4 91               [ 4]  261 	sub	a, c
      0000B5 18 03            [12]  262 	jr	00116$
      0000B7                        263 00115$:
      0000B7 F8 1B            [12]  264 	ldhl	sp,	#27
      0000B9 7E               [ 8]  265 	ld	a, (hl)
      0000BA                        266 00116$:
      0000BA F8 12            [12]  267 	ldhl	sp,	#18
      0000BC 77               [ 8]  268 	ld	(hl), a
                           0000BD   269 	C$Fade_b.c$32$2_0$135	= .
                                    270 	.globl	C$Fade_b.c$32$2_0$135
                                    271 ;C:/ZGB-2023.0/common/src/Fade_b.c:32: for(j = 0; j != 3; ++j) {
      0000BD F8 1C            [12]  272 	ldhl	sp,	#28
      0000BF 36 00            [12]  273 	ld	(hl), #0x00
      0000C1                        274 00109$:
                           0000C1   275 	C$Fade_b.c$33$5_0$143	= .
                                    276 	.globl	C$Fade_b.c$33$5_0$143
                                    277 ;C:/ZGB-2023.0/common/src/Fade_b.c:33: c = &colors[j << 2];
      0000C1 F8 1C            [12]  278 	ldhl	sp,	#28
      0000C3 7E               [ 8]  279 	ld	a, (hl)
      0000C4 F8 19            [12]  280 	ldhl	sp,	#25
      0000C6 77               [ 8]  281 	ld	(hl), a
      0000C7 CB 26            [16]  282 	sla	(hl)
      0000C9 CB 26            [16]  283 	sla	(hl)
      0000CB 7E               [ 8]  284 	ld	a, (hl)
      0000CC F8 16            [12]  285 	ldhl	sp,	#22
      0000CE 22               [ 8]  286 	ld	(hl+), a
      0000CF 07               [ 4]  287 	rlca
      0000D0 9F               [ 4]  288 	sbc	a, a
      0000D1 77               [ 8]  289 	ld	(hl), a
      0000D2 E5               [16]  290 	push	hl
      0000D3 21 02 00         [12]  291 	ld	hl, #2
      0000D6 39               [ 8]  292 	add	hl, sp
      0000D7 5D               [ 4]  293 	ld	e, l
      0000D8 54               [ 4]  294 	ld	d, h
      0000D9 E1               [12]  295 	pop	hl
      0000DA F8 16            [12]  296 	ldhl	sp,	#22
      0000DC 2A               [ 8]  297 	ld	a,	(hl+)
      0000DD 66               [ 8]  298 	ld	h, (hl)
      0000DE 6F               [ 4]  299 	ld	l, a
      0000DF 19               [ 8]  300 	add	hl, de
      0000E0 E5               [16]  301 	push	hl
      0000E1 7D               [ 4]  302 	ld	a, l
      0000E2 F8 1A            [12]  303 	ldhl	sp,	#26
      0000E4 77               [ 8]  304 	ld	(hl), a
      0000E5 E1               [12]  305 	pop	hl
      0000E6 7C               [ 4]  306 	ld	a, h
      0000E7 F8 19            [12]  307 	ldhl	sp,	#25
      0000E9 32               [ 8]  308 	ld	(hl-), a
      0000EA 7E               [ 8]  309 	ld	a, (hl)
      0000EB F8 13            [12]  310 	ldhl	sp,	#19
      0000ED 77               [ 8]  311 	ld	(hl), a
      0000EE F8 19            [12]  312 	ldhl	sp,	#25
      0000F0 7E               [ 8]  313 	ld	a, (hl)
      0000F1 F8 14            [12]  314 	ldhl	sp,	#20
      0000F3 77               [ 8]  315 	ld	(hl), a
                           0000F4   316 	C$Fade_b.c$34$5_0$143	= .
                                    317 	.globl	C$Fade_b.c$34$5_0$143
                                    318 ;C:/ZGB-2023.0/common/src/Fade_b.c:34: *pals[j] = PAL_DEF(FadeInOp(c[0], p), FadeInOp(c[1], p), FadeInOp(c[2], p), FadeInOp(c[3], p));
      0000F4 F8 1C            [12]  319 	ldhl	sp,	#28
      0000F6 7E               [ 8]  320 	ld	a, (hl)
      0000F7 F8 18            [12]  321 	ldhl	sp,	#24
      0000F9 22               [ 8]  322 	ld	(hl+), a
      0000FA AF               [ 4]  323 	xor	a, a
      0000FB 32               [ 8]  324 	ld	(hl-), a
      0000FC 3A               [ 8]  325 	ld	a, (hl-)
      0000FD 2B               [ 8]  326 	dec	hl
      0000FE 77               [ 8]  327 	ld	(hl), a
      0000FF F8 19            [12]  328 	ldhl	sp,	#25
      000101 3A               [ 8]  329 	ld	a, (hl-)
      000102 2B               [ 8]  330 	dec	hl
      000103 32               [ 8]  331 	ld	(hl-), a
      000104 CB 26            [16]  332 	sla	(hl)
      000106 23               [ 8]  333 	inc	hl
      000107 CB 16            [16]  334 	rl	(hl)
      000109 E5               [16]  335 	push	hl
      00010A 21 0E 00         [12]  336 	ld	hl, #14
      00010D 39               [ 8]  337 	add	hl, sp
      00010E 5D               [ 4]  338 	ld	e, l
      00010F 54               [ 4]  339 	ld	d, h
      000110 E1               [12]  340 	pop	hl
      000111 F8 16            [12]  341 	ldhl	sp,	#22
      000113 2A               [ 8]  342 	ld	a,	(hl+)
      000114 66               [ 8]  343 	ld	h, (hl)
      000115 6F               [ 4]  344 	ld	l, a
      000116 19               [ 8]  345 	add	hl, de
      000117 E5               [16]  346 	push	hl
      000118 7D               [ 4]  347 	ld	a, l
      000119 F8 1A            [12]  348 	ldhl	sp,	#26
      00011B 77               [ 8]  349 	ld	(hl), a
      00011C E1               [12]  350 	pop	hl
      00011D 7C               [ 4]  351 	ld	a, h
      00011E F8 19            [12]  352 	ldhl	sp,	#25
      000120 32               [ 8]  353 	ld	(hl-), a
      000121 2A               [ 8]  354 	ld	a, (hl+)
      000122 5F               [ 4]  355 	ld	e, a
      000123 56               [ 8]  356 	ld	d, (hl)
      000124 1A               [ 8]  357 	ld	a, (de)
      000125 F8 15            [12]  358 	ldhl	sp,	#21
      000127 22               [ 8]  359 	ld	(hl+), a
      000128 13               [ 8]  360 	inc	de
      000129 1A               [ 8]  361 	ld	a, (de)
      00012A 77               [ 8]  362 	ld	(hl), a
      00012B F8 12            [12]  363 	ldhl	sp,	#18
      00012D 7E               [ 8]  364 	ld	a, (hl)
      00012E F8 17            [12]  365 	ldhl	sp,	#23
      000130 22               [ 8]  366 	ld	(hl+), a
      000131 36 00            [12]  367 	ld	(hl), #0x00
      000133 F8 13            [12]  368 	ldhl	sp,	#19
      000135 2A               [ 8]  369 	ld	a, (hl+)
      000136 4F               [ 4]  370 	ld	c, a
      000137 46               [ 8]  371 	ld	b, (hl)
      000138 03               [ 8]  372 	inc	bc
      000139 03               [ 8]  373 	inc	bc
      00013A 03               [ 8]  374 	inc	bc
      00013B 0A               [ 8]  375 	ld	a, (bc)
      00013C 5F               [ 4]  376 	ld	e, a
      00013D 16 00            [ 8]  377 	ld	d, #0x00
      00013F F8 17            [12]  378 	ldhl	sp,	#23
      000141 4E               [ 8]  379 	ld	c, (hl)
      000142 23               [ 8]  380 	inc	hl
      000143 46               [ 8]  381 	ld	b, (hl)
      000144 CDr00r00         [24]  382 	call	_FadeInOp
      000147 CB 37            [ 8]  383 	swap	a
      000149 E6 F0            [ 8]  384 	and	a, #0xf0
      00014B 87               [ 4]  385 	add	a, a
      00014C 87               [ 4]  386 	add	a, a
      00014D F8 19            [12]  387 	ldhl	sp,	#25
      00014F 77               [ 8]  388 	ld	(hl), a
      000150 F8 13            [12]  389 	ldhl	sp,	#19
      000152 2A               [ 8]  390 	ld	a, (hl+)
      000153 4F               [ 4]  391 	ld	c, a
      000154 46               [ 8]  392 	ld	b, (hl)
      000155 03               [ 8]  393 	inc	bc
      000156 03               [ 8]  394 	inc	bc
      000157 0A               [ 8]  395 	ld	a, (bc)
      000158 5F               [ 4]  396 	ld	e, a
      000159 16 00            [ 8]  397 	ld	d, #0x00
      00015B F8 17            [12]  398 	ldhl	sp,	#23
      00015D 4E               [ 8]  399 	ld	c, (hl)
      00015E 23               [ 8]  400 	inc	hl
      00015F 46               [ 8]  401 	ld	b, (hl)
      000160 CDr00r00         [24]  402 	call	_FadeInOp
      000163 CB 37            [ 8]  403 	swap	a
      000165 E6 F0            [ 8]  404 	and	a, #0xf0
      000167 F8 19            [12]  405 	ldhl	sp,	#25
      000169 B6               [ 8]  406 	or	a, (hl)
      00016A 77               [ 8]  407 	ld	(hl), a
      00016B F8 13            [12]  408 	ldhl	sp,	#19
      00016D 2A               [ 8]  409 	ld	a, (hl+)
      00016E 4F               [ 4]  410 	ld	c, a
      00016F 46               [ 8]  411 	ld	b, (hl)
      000170 03               [ 8]  412 	inc	bc
      000171 0A               [ 8]  413 	ld	a, (bc)
      000172 5F               [ 4]  414 	ld	e, a
      000173 16 00            [ 8]  415 	ld	d, #0x00
      000175 F8 17            [12]  416 	ldhl	sp,	#23
      000177 4E               [ 8]  417 	ld	c, (hl)
      000178 23               [ 8]  418 	inc	hl
      000179 46               [ 8]  419 	ld	b, (hl)
      00017A CDr00r00         [24]  420 	call	_FadeInOp
      00017D 87               [ 4]  421 	add	a, a
      00017E 87               [ 4]  422 	add	a, a
      00017F F8 19            [12]  423 	ldhl	sp,	#25
      000181 B6               [ 8]  424 	or	a, (hl)
      000182 77               [ 8]  425 	ld	(hl), a
      000183 F8 13            [12]  426 	ldhl	sp,#19
      000185 2A               [ 8]  427 	ld	a, (hl+)
      000186 5F               [ 4]  428 	ld	e, a
      000187 56               [ 8]  429 	ld	d, (hl)
      000188 1A               [ 8]  430 	ld	a, (de)
      000189 5F               [ 4]  431 	ld	e, a
      00018A 16 00            [ 8]  432 	ld	d, #0x00
      00018C F8 17            [12]  433 	ldhl	sp,	#23
      00018E 4E               [ 8]  434 	ld	c, (hl)
      00018F 23               [ 8]  435 	inc	hl
      000190 46               [ 8]  436 	ld	b, (hl)
      000191 CDr00r00         [24]  437 	call	_FadeInOp
      000194 F8 19            [12]  438 	ldhl	sp,	#25
      000196 B6               [ 8]  439 	or	a, (hl)
      000197 4F               [ 4]  440 	ld	c, a
      000198 F8 15            [12]  441 	ldhl	sp,	#21
      00019A 2A               [ 8]  442 	ld	a,	(hl+)
      00019B 66               [ 8]  443 	ld	h, (hl)
      00019C 6F               [ 4]  444 	ld	l, a
      00019D 71               [ 8]  445 	ld	(hl), c
                           00019E   446 	C$Fade_b.c$32$4_0$142	= .
                                    447 	.globl	C$Fade_b.c$32$4_0$142
                                    448 ;C:/ZGB-2023.0/common/src/Fade_b.c:32: for(j = 0; j != 3; ++j) {
      00019E F8 1C            [12]  449 	ldhl	sp,	#28
      0001A0 34               [12]  450 	inc	(hl)
      0001A1 7E               [ 8]  451 	ld	a, (hl)
      0001A2 D6 03            [ 8]  452 	sub	a, #0x03
      0001A4 C2rC1r00         [16]  453 	jp	NZ,00109$
                           0001A7   454 	C$Fade_b.c$36$3_0$141	= .
                                    455 	.globl	C$Fade_b.c$36$3_0$141
                                    456 ;C:/ZGB-2023.0/common/src/Fade_b.c:36: delay(50);
      0001A7 11 32 00         [12]  457 	ld	de, #0x0032
      0001AA CDr00r00         [24]  458 	call	_delay
                           0001AD   459 	C$Fade_b.c$30$2_0$140	= .
                                    460 	.globl	C$Fade_b.c$30$2_0$140
                                    461 ;C:/ZGB-2023.0/common/src/Fade_b.c:30: for(i = 0; i != 4; ++i) {
      0001AD F8 1B            [12]  462 	ldhl	sp,	#27
      0001AF 34               [12]  463 	inc	(hl)
      0001B0 7E               [ 8]  464 	ld	a, (hl)
      0001B1 D6 04            [ 8]  465 	sub	a, #0x04
      0001B3 C2rAAr00         [16]  466 	jp	NZ,00111$
                           0001B6   467 	C$Fade_b.c$38$2_0$135	= .
                                    468 	.globl	C$Fade_b.c$38$2_0$135
                                    469 ;C:/ZGB-2023.0/common/src/Fade_b.c:38: }
      0001B6 E8 1D            [16]  470 	add	sp, #29
                           0001B8   471 	C$Fade_b.c$38$2_0$135	= .
                                    472 	.globl	C$Fade_b.c$38$2_0$135
                           0001B8   473 	XG$FadeDMG$0$0	= .
                                    474 	.globl	XG$FadeDMG$0$0
      0001B8 C9               [16]  475 	ret
                           0001B9   476 	G$FadeInDMG$0$0	= .
                                    477 	.globl	G$FadeInDMG$0$0
                           0001B9   478 	C$Fade_b.c$40$2_0$144	= .
                                    479 	.globl	C$Fade_b.c$40$2_0$144
                                    480 ;C:/ZGB-2023.0/common/src/Fade_b.c:40: void FadeInDMG() {
                                    481 ;	---------------------------------
                                    482 ; Function FadeInDMG
                                    483 ; ---------------------------------
      0001B9                        484 _FadeInDMG::
                           0001B9   485 	C$Fade_b.c$41$1_0$144	= .
                                    486 	.globl	C$Fade_b.c$41$1_0$144
                                    487 ;C:/ZGB-2023.0/common/src/Fade_b.c:41: FadeDMG(0);
      0001B9 AF               [ 4]  488 	xor	a, a
                           0001BA   489 	C$Fade_b.c$42$1_0$144	= .
                                    490 	.globl	C$Fade_b.c$42$1_0$144
                                    491 ;C:/ZGB-2023.0/common/src/Fade_b.c:42: }
                           0001BA   492 	C$Fade_b.c$42$1_0$144	= .
                                    493 	.globl	C$Fade_b.c$42$1_0$144
                           0001BA   494 	XG$FadeInDMG$0$0	= .
                                    495 	.globl	XG$FadeInDMG$0$0
      0001BA C3r0Cr00         [16]  496 	jp	_FadeDMG
                           0001BD   497 	G$UpdateColor$0$0	= .
                                    498 	.globl	G$UpdateColor$0$0
                           0001BD   499 	C$Fade_b.c$44$1_0$146	= .
                                    500 	.globl	C$Fade_b.c$44$1_0$146
                                    501 ;C:/ZGB-2023.0/common/src/Fade_b.c:44: UWORD UpdateColor(UINT8 i, UWORD col) {
                                    502 ;	---------------------------------
                                    503 ; Function UpdateColor
                                    504 ; ---------------------------------
      0001BD                        505 _UpdateColor::
      0001BD E8 FC            [16]  506 	add	sp, #-4
      0001BF 4F               [ 4]  507 	ld	c, a
      0001C0 F8 02            [12]  508 	ldhl	sp,	#2
      0001C2 7B               [ 4]  509 	ld	a, e
      0001C3 22               [ 8]  510 	ld	(hl+), a
                           0001C4   511 	C$Fade_b.c$46$1_0$146	= .
                                    512 	.globl	C$Fade_b.c$46$1_0$146
                                    513 ;C:/ZGB-2023.0/common/src/Fade_b.c:46: return RGB2(PAL_RED(col) | DespRight(0x1F, 5 - i), PAL_GREEN(col) | DespRight(0x1F, 5 - i), PAL_BLUE(col) | DespRight(0x1F, 5 - i));
      0001C4 7A               [ 4]  514 	ld	a, d
      0001C5 32               [ 8]  515 	ld	(hl-), a
      0001C6 7E               [ 8]  516 	ld	a, (hl)
      0001C7 E6 1F            [ 8]  517 	and	a, #0x1f
      0001C9 6F               [ 4]  518 	ld	l, a
                                    519 ;	spillPairReg hl
                                    520 ;	spillPairReg hl
                                    521 ;	spillPairReg hl
                                    522 ;	spillPairReg hl
      0001CA 26 00            [ 8]  523 	ld	h, #0x00
      0001CC 44               [ 4]  524 	ld	b, h
      0001CD 3E 05            [ 8]  525 	ld	a, #0x05
      0001CF 91               [ 4]  526 	sub	a, c
      0001D0 4F               [ 4]  527 	ld	c, a
      0001D1 9F               [ 4]  528 	sbc	a, a
      0001D2 90               [ 4]  529 	sub	a, b
      0001D3 47               [ 4]  530 	ld	b, a
      0001D4 E5               [16]  531 	push	hl
      0001D5 C5               [16]  532 	push	bc
      0001D6 11 1F 00         [12]  533 	ld	de, #0x001f
      0001D9 CDr00r00         [24]  534 	call	_DespRight
      0001DC 59               [ 4]  535 	ld	e, c
      0001DD 50               [ 4]  536 	ld	d, b
      0001DE C1               [12]  537 	pop	bc
      0001DF E1               [12]  538 	pop	hl
      0001E0 7D               [ 4]  539 	ld	a, l
      0001E1 B3               [ 4]  540 	or	a, e
      0001E2 E5               [16]  541 	push	hl
      0001E3 F8 02            [12]  542 	ldhl	sp,	#2
      0001E5 77               [ 8]  543 	ld	(hl), a
      0001E6 F8 03            [12]  544 	ldhl	sp,	#3
      0001E8 72               [ 8]  545 	ld	(hl), d
      0001E9 E1               [12]  546 	pop	hl
      0001EA F8 02            [12]  547 	ldhl	sp,#2
      0001EC 2A               [ 8]  548 	ld	a, (hl+)
      0001ED 5F               [ 4]  549 	ld	e, a
      0001EE 56               [ 8]  550 	ld	d, (hl)
      0001EF CB 3A            [ 8]  551 	srl	d
      0001F1 CB 1B            [ 8]  552 	rr	e
      0001F3 CB 3A            [ 8]  553 	srl	d
      0001F5 CB 1B            [ 8]  554 	rr	e
      0001F7 CB 3A            [ 8]  555 	srl	d
      0001F9 CB 1B            [ 8]  556 	rr	e
      0001FB CB 3A            [ 8]  557 	srl	d
      0001FD CB 1B            [ 8]  558 	rr	e
      0001FF CB 3A            [ 8]  559 	srl	d
      000201 CB 1B            [ 8]  560 	rr	e
      000203 7B               [ 4]  561 	ld	a, e
      000204 E6 1F            [ 8]  562 	and	a, #0x1f
      000206 5F               [ 4]  563 	ld	e, a
      000207 16 00            [ 8]  564 	ld	d, #0x00
      000209 C5               [16]  565 	push	bc
      00020A D5               [16]  566 	push	de
      00020B 11 1F 00         [12]  567 	ld	de, #0x001f
      00020E CDr00r00         [24]  568 	call	_DespRight
      000211 69               [ 4]  569 	ld	l, c
                                    570 ;	spillPairReg hl
                                    571 ;	spillPairReg hl
      000212 60               [ 4]  572 	ld	h, b
                                    573 ;	spillPairReg hl
                                    574 ;	spillPairReg hl
      000213 D1               [12]  575 	pop	de
      000214 C1               [12]  576 	pop	bc
      000215 7D               [ 4]  577 	ld	a, l
      000216 B3               [ 4]  578 	or	a, e
      000217 6F               [ 4]  579 	ld	l, a
                                    580 ;	spillPairReg hl
                                    581 ;	spillPairReg hl
      000218 29               [ 8]  582 	add	hl, hl
      000219 29               [ 8]  583 	add	hl, hl
      00021A 29               [ 8]  584 	add	hl, hl
      00021B 29               [ 8]  585 	add	hl, hl
      00021C 29               [ 8]  586 	add	hl, hl
      00021D E5               [16]  587 	push	hl
      00021E F8 02            [12]  588 	ldhl	sp,	#2
      000220 7E               [ 8]  589 	ld	a, (hl)
      000221 E1               [12]  590 	pop	hl
      000222 B5               [ 4]  591 	or	a, l
      000223 5F               [ 4]  592 	ld	e, a
      000224 E5               [16]  593 	push	hl
      000225 F8 03            [12]  594 	ldhl	sp,	#3
      000227 7E               [ 8]  595 	ld	a, (hl)
      000228 E1               [12]  596 	pop	hl
      000229 B4               [ 4]  597 	or	a, h
      00022A 57               [ 4]  598 	ld	d, a
      00022B F8 03            [12]  599 	ldhl	sp,	#3
      00022D 7E               [ 8]  600 	ld	a, (hl)
      00022E 0F               [ 4]  601 	rrca
      00022F 0F               [ 4]  602 	rrca
      000230 E6 3F            [ 8]  603 	and	a, #0x3f
      000232 F8 00            [12]  604 	ldhl	sp,	#0
      000234 22               [ 8]  605 	ld	(hl+), a
      000235 AF               [ 4]  606 	xor	a, a
      000236 32               [ 8]  607 	ld	(hl-), a
      000237 7E               [ 8]  608 	ld	a, (hl)
      000238 E6 1F            [ 8]  609 	and	a, #0x1f
      00023A 6F               [ 4]  610 	ld	l, a
                                    611 ;	spillPairReg hl
                                    612 ;	spillPairReg hl
      00023B 26 00            [ 8]  613 	ld	h, #0x00
                                    614 ;	spillPairReg hl
                                    615 ;	spillPairReg hl
      00023D E5               [16]  616 	push	hl
      00023E D5               [16]  617 	push	de
      00023F 11 1F 00         [12]  618 	ld	de, #0x001f
      000242 CDr00r00         [24]  619 	call	_DespRight
      000245 D1               [12]  620 	pop	de
      000246 E1               [12]  621 	pop	hl
      000247 79               [ 4]  622 	ld	a, c
      000248 B5               [ 4]  623 	or	a, l
      000249 67               [ 4]  624 	ld	h, a
                                    625 ;	spillPairReg hl
                                    626 ;	spillPairReg hl
      00024A 2E 00            [ 8]  627 	ld	l, #0x00
                                    628 ;	spillPairReg hl
                                    629 ;	spillPairReg hl
      00024C 29               [ 8]  630 	add	hl, hl
      00024D 29               [ 8]  631 	add	hl, hl
      00024E 7D               [ 4]  632 	ld	a, l
      00024F B3               [ 4]  633 	or	a, e
      000250 4F               [ 4]  634 	ld	c, a
      000251 7C               [ 4]  635 	ld	a, h
      000252 B2               [ 4]  636 	or	a, d
      000253 47               [ 4]  637 	ld	b, a
                           000254   638 	C$Fade_b.c$47$1_0$146	= .
                                    639 	.globl	C$Fade_b.c$47$1_0$146
                                    640 ;C:/ZGB-2023.0/common/src/Fade_b.c:47: }
      000254 E8 04            [16]  641 	add	sp, #4
                           000256   642 	C$Fade_b.c$47$1_0$146	= .
                                    643 	.globl	C$Fade_b.c$47$1_0$146
                           000256   644 	XG$UpdateColor$0$0	= .
                                    645 	.globl	XG$UpdateColor$0$0
      000256 C9               [16]  646 	ret
                           000257   647 	G$FadeStepColor$0$0	= .
                                    648 	.globl	G$FadeStepColor$0$0
                           000257   649 	C$Fade_b.c$49$1_0$148	= .
                                    650 	.globl	C$Fade_b.c$49$1_0$148
                                    651 ;C:/ZGB-2023.0/common/src/Fade_b.c:49: void FadeStepColor(UINT8 i) {
                                    652 ;	---------------------------------
                                    653 ; Function FadeStepColor
                                    654 ; ---------------------------------
      000257                        655 _FadeStepColor::
      000257 E8 E7            [16]  656 	add	sp, #-25
      000259 F8 12            [12]  657 	ldhl	sp,	#18
                           00025B   658 	C$Fade_b.c$53$2_0$148	= .
                                    659 	.globl	C$Fade_b.c$53$2_0$148
                                    660 ;C:/ZGB-2023.0/common/src/Fade_b.c:53: UWORD* col = ZGB_Fading_BPal;
                           00025B   661 	C$Fade_b.c$54$2_0$148	= .
                                    662 	.globl	C$Fade_b.c$54$2_0$148
                                    663 ;C:/ZGB-2023.0/common/src/Fade_b.c:54: UWORD* col_s = ZGB_Fading_SPal;
                           00025B   664 	C$Fade_b.c$56$5_0$152	= .
                                    665 	.globl	C$Fade_b.c$56$5_0$152
                                    666 ;C:/ZGB-2023.0/common/src/Fade_b.c:56: for(pal = 0; pal < 8; pal ++) {
      00025B 22               [ 8]  667 	ld	(hl+), a
      00025C 01r00r00         [12]  668 	ld	bc, #_ZGB_Fading_BPal+0
      00025F 11r40r00         [12]  669 	ld	de, #_ZGB_Fading_SPal+0
      000262 36 00            [12]  670 	ld	(hl), #0x00
                           000264   671 	C$Fade_b.c$57$1_0$148	= .
                                    672 	.globl	C$Fade_b.c$57$1_0$148
                                    673 ;C:/ZGB-2023.0/common/src/Fade_b.c:57: for(c = 0; c < 4; ++c, ++col, ++col_s) {
      000264                        674 00109$:
      000264 F8 14            [12]  675 	ldhl	sp,	#20
      000266 AF               [ 4]  676 	xor	a, a
      000267 22               [ 8]  677 	ld	(hl+), a
      000268 79               [ 4]  678 	ld	a, c
      000269 22               [ 8]  679 	ld	(hl+), a
      00026A 78               [ 4]  680 	ld	a, b
      00026B 22               [ 8]  681 	ld	(hl+), a
      00026C 7B               [ 4]  682 	ld	a, e
      00026D 22               [ 8]  683 	ld	(hl+), a
      00026E 72               [ 8]  684 	ld	(hl), d
      00026F                        685 00103$:
                           00026F   686 	C$Fade_b.c$58$5_0$152	= .
                                    687 	.globl	C$Fade_b.c$58$5_0$152
                                    688 ;C:/ZGB-2023.0/common/src/Fade_b.c:58: palette[c] = UpdateColor(i, *col);
      00026F F8 14            [12]  689 	ldhl	sp,	#20
      000271 7E               [ 8]  690 	ld	a, (hl)
      000272 0E 00            [ 8]  691 	ld	c, #0x00
      000274 87               [ 4]  692 	add	a, a
      000275 CB 11            [ 8]  693 	rl	c
      000277 F8 10            [12]  694 	ldhl	sp,	#16
      000279 22               [ 8]  695 	ld	(hl+), a
      00027A 71               [ 8]  696 	ld	(hl), c
      00027B E5               [16]  697 	push	hl
      00027C 21 02 00         [12]  698 	ld	hl, #2
      00027F 39               [ 8]  699 	add	hl, sp
      000280 5D               [ 4]  700 	ld	e, l
      000281 54               [ 4]  701 	ld	d, h
      000282 E1               [12]  702 	pop	hl
      000283 F8 10            [12]  703 	ldhl	sp,	#16
      000285 2A               [ 8]  704 	ld	a,	(hl+)
      000286 66               [ 8]  705 	ld	h, (hl)
      000287 6F               [ 4]  706 	ld	l, a
      000288 19               [ 8]  707 	add	hl, de
      000289 4D               [ 4]  708 	ld	c, l
      00028A 44               [ 4]  709 	ld	b, h
      00028B F8 15            [12]  710 	ldhl	sp,#21
      00028D 2A               [ 8]  711 	ld	a, (hl+)
      00028E 5F               [ 4]  712 	ld	e, a
      00028F 56               [ 8]  713 	ld	d, (hl)
      000290 1A               [ 8]  714 	ld	a, (de)
      000291 6F               [ 4]  715 	ld	l, a
                                    716 ;	spillPairReg hl
                                    717 ;	spillPairReg hl
      000292 13               [ 8]  718 	inc	de
      000293 1A               [ 8]  719 	ld	a, (de)
      000294 67               [ 4]  720 	ld	h, a
                                    721 ;	spillPairReg hl
                                    722 ;	spillPairReg hl
      000295 C5               [16]  723 	push	bc
      000296 5D               [ 4]  724 	ld	e, l
      000297 54               [ 4]  725 	ld	d, h
      000298 F8 14            [12]  726 	ldhl	sp,	#20
      00029A 7E               [ 8]  727 	ld	a, (hl)
      00029B CDrBDr01         [24]  728 	call	_UpdateColor
      00029E 59               [ 4]  729 	ld	e, c
      00029F 50               [ 4]  730 	ld	d, b
      0002A0 C1               [12]  731 	pop	bc
      0002A1 7B               [ 4]  732 	ld	a, e
      0002A2 02               [ 8]  733 	ld	(bc), a
      0002A3 03               [ 8]  734 	inc	bc
      0002A4 7A               [ 4]  735 	ld	a, d
      0002A5 02               [ 8]  736 	ld	(bc), a
                           0002A6   737 	C$Fade_b.c$59$5_0$152	= .
                                    738 	.globl	C$Fade_b.c$59$5_0$152
                                    739 ;C:/ZGB-2023.0/common/src/Fade_b.c:59: palette_s[c] = UpdateColor(i, *col_s);
      0002A6 E5               [16]  740 	push	hl
      0002A7 21 0A 00         [12]  741 	ld	hl, #10
      0002AA 39               [ 8]  742 	add	hl, sp
      0002AB 5D               [ 4]  743 	ld	e, l
      0002AC 54               [ 4]  744 	ld	d, h
      0002AD E1               [12]  745 	pop	hl
      0002AE F8 10            [12]  746 	ldhl	sp,	#16
      0002B0 2A               [ 8]  747 	ld	a,	(hl+)
      0002B1 66               [ 8]  748 	ld	h, (hl)
      0002B2 6F               [ 4]  749 	ld	l, a
      0002B3 19               [ 8]  750 	add	hl, de
      0002B4 4D               [ 4]  751 	ld	c, l
      0002B5 44               [ 4]  752 	ld	b, h
      0002B6 F8 17            [12]  753 	ldhl	sp,#23
      0002B8 2A               [ 8]  754 	ld	a, (hl+)
      0002B9 5F               [ 4]  755 	ld	e, a
      0002BA 56               [ 8]  756 	ld	d, (hl)
      0002BB 1A               [ 8]  757 	ld	a, (de)
      0002BC 6F               [ 4]  758 	ld	l, a
                                    759 ;	spillPairReg hl
                                    760 ;	spillPairReg hl
      0002BD 13               [ 8]  761 	inc	de
      0002BE 1A               [ 8]  762 	ld	a, (de)
      0002BF 67               [ 4]  763 	ld	h, a
                                    764 ;	spillPairReg hl
                                    765 ;	spillPairReg hl
      0002C0 C5               [16]  766 	push	bc
      0002C1 5D               [ 4]  767 	ld	e, l
      0002C2 54               [ 4]  768 	ld	d, h
      0002C3 F8 14            [12]  769 	ldhl	sp,	#20
      0002C5 7E               [ 8]  770 	ld	a, (hl)
      0002C6 CDrBDr01         [24]  771 	call	_UpdateColor
      0002C9 59               [ 4]  772 	ld	e, c
      0002CA 50               [ 4]  773 	ld	d, b
      0002CB C1               [12]  774 	pop	bc
      0002CC 7B               [ 4]  775 	ld	a, e
      0002CD 02               [ 8]  776 	ld	(bc), a
      0002CE 03               [ 8]  777 	inc	bc
      0002CF 7A               [ 4]  778 	ld	a, d
      0002D0 02               [ 8]  779 	ld	(bc), a
                           0002D1   780 	C$Fade_b.c$57$4_0$151	= .
                                    781 	.globl	C$Fade_b.c$57$4_0$151
                                    782 ;C:/ZGB-2023.0/common/src/Fade_b.c:57: for(c = 0; c < 4; ++c, ++col, ++col_s) {
      0002D1 F8 14            [12]  783 	ldhl	sp,	#20
      0002D3 34               [12]  784 	inc	(hl)
      0002D4 23               [ 8]  785 	inc	hl
      0002D5 2A               [ 8]  786 	ld	a, (hl+)
      0002D6 5F               [ 4]  787 	ld	e, a
      0002D7 56               [ 8]  788 	ld	d, (hl)
      0002D8 21 02 00         [12]  789 	ld	hl, #0x0002
      0002DB 19               [ 8]  790 	add	hl, de
      0002DC E5               [16]  791 	push	hl
      0002DD 7D               [ 4]  792 	ld	a, l
      0002DE F8 17            [12]  793 	ldhl	sp,	#23
      0002E0 77               [ 8]  794 	ld	(hl), a
      0002E1 E1               [12]  795 	pop	hl
      0002E2 7C               [ 4]  796 	ld	a, h
      0002E3 F8 16            [12]  797 	ldhl	sp,	#22
      0002E5 22               [ 8]  798 	ld	(hl+), a
      0002E6 2A               [ 8]  799 	ld	a, (hl+)
      0002E7 5F               [ 4]  800 	ld	e, a
      0002E8 56               [ 8]  801 	ld	d, (hl)
      0002E9 21 02 00         [12]  802 	ld	hl, #0x0002
      0002EC 19               [ 8]  803 	add	hl, de
      0002ED E5               [16]  804 	push	hl
      0002EE 7D               [ 4]  805 	ld	a, l
      0002EF F8 19            [12]  806 	ldhl	sp,	#25
      0002F1 77               [ 8]  807 	ld	(hl), a
      0002F2 E1               [12]  808 	pop	hl
      0002F3 7C               [ 4]  809 	ld	a, h
      0002F4 F8 18            [12]  810 	ldhl	sp,	#24
      0002F6 77               [ 8]  811 	ld	(hl), a
      0002F7 F8 14            [12]  812 	ldhl	sp,	#20
      0002F9 7E               [ 8]  813 	ld	a, (hl)
      0002FA D6 04            [ 8]  814 	sub	a, #0x04
      0002FC DAr6Fr02         [16]  815 	jp	C, 00103$
                           0002FF   816 	C$Fade_b.c$61$1_0$148	= .
                                    817 	.globl	C$Fade_b.c$61$1_0$148
                                    818 ;C:/ZGB-2023.0/common/src/Fade_b.c:61: set_bkg_palette(pal, 1, palette);
      0002FF 23               [ 8]  819 	inc	hl
      000300 2A               [ 8]  820 	ld	a, (hl+)
      000301 4F               [ 4]  821 	ld	c, a
      000302 2A               [ 8]  822 	ld	a, (hl+)
      000303 47               [ 4]  823 	ld	b, a
      000304 2A               [ 8]  824 	ld	a, (hl+)
      000305 5F               [ 4]  825 	ld	e, a
      000306 56               [ 8]  826 	ld	d, (hl)
      000307 C5               [16]  827 	push	bc
      000308 D5               [16]  828 	push	de
      000309 21 04 00         [12]  829 	ld	hl, #4
      00030C 39               [ 8]  830 	add	hl, sp
      00030D E5               [16]  831 	push	hl
      00030E 3E 01            [ 8]  832 	ld	a, #0x01
      000310 F5               [16]  833 	push	af
      000311 33               [ 8]  834 	inc	sp
      000312 F8 1A            [12]  835 	ldhl	sp,	#26
      000314 7E               [ 8]  836 	ld	a, (hl)
      000315 F5               [16]  837 	push	af
      000316 33               [ 8]  838 	inc	sp
      000317 CDr00r00         [24]  839 	call	_set_bkg_palette
      00031A E8 04            [16]  840 	add	sp, #4
      00031C 21 0C 00         [12]  841 	ld	hl, #12
      00031F 39               [ 8]  842 	add	hl, sp
      000320 E5               [16]  843 	push	hl
      000321 3E 01            [ 8]  844 	ld	a, #0x01
      000323 F5               [16]  845 	push	af
      000324 33               [ 8]  846 	inc	sp
      000325 F8 1A            [12]  847 	ldhl	sp,	#26
      000327 7E               [ 8]  848 	ld	a, (hl)
      000328 F5               [16]  849 	push	af
      000329 33               [ 8]  850 	inc	sp
      00032A CDr00r00         [24]  851 	call	_set_sprite_palette
      00032D E8 04            [16]  852 	add	sp, #4
      00032F D1               [12]  853 	pop	de
      000330 C1               [12]  854 	pop	bc
                           000331   855 	C$Fade_b.c$56$2_0$149	= .
                                    856 	.globl	C$Fade_b.c$56$2_0$149
                                    857 ;C:/ZGB-2023.0/common/src/Fade_b.c:56: for(pal = 0; pal < 8; pal ++) {
      000331 F8 13            [12]  858 	ldhl	sp,	#19
      000333 34               [12]  859 	inc	(hl)
      000334 7E               [ 8]  860 	ld	a, (hl)
      000335 D6 08            [ 8]  861 	sub	a, #0x08
      000337 DAr64r02         [16]  862 	jp	C, 00109$
                           00033A   863 	C$Fade_b.c$64$1_0$148	= .
                                    864 	.globl	C$Fade_b.c$64$1_0$148
                                    865 ;C:/ZGB-2023.0/common/src/Fade_b.c:64: delay(20);
      00033A 11 14 00         [12]  866 	ld	de, #0x0014
      00033D CDr00r00         [24]  867 	call	_delay
                           000340   868 	C$Fade_b.c$65$1_0$148	= .
                                    869 	.globl	C$Fade_b.c$65$1_0$148
                                    870 ;C:/ZGB-2023.0/common/src/Fade_b.c:65: }
      000340 E8 19            [16]  871 	add	sp, #25
                           000342   872 	C$Fade_b.c$65$1_0$148	= .
                                    873 	.globl	C$Fade_b.c$65$1_0$148
                           000342   874 	XG$FadeStepColor$0$0	= .
                                    875 	.globl	XG$FadeStepColor$0$0
      000342 C9               [16]  876 	ret
                           000343   877 	G$FadeInCOLOR$0$0	= .
                                    878 	.globl	G$FadeInCOLOR$0$0
                           000343   879 	C$Fade_b.c$67$1_0$154	= .
                                    880 	.globl	C$Fade_b.c$67$1_0$154
                                    881 ;C:/ZGB-2023.0/common/src/Fade_b.c:67: void FadeInCOLOR() {
                                    882 ;	---------------------------------
                                    883 ; Function FadeInCOLOR
                                    884 ; ---------------------------------
      000343                        885 _FadeInCOLOR::
                           000343   886 	C$Fade_b.c$69$2_0$154	= .
                                    887 	.globl	C$Fade_b.c$69$2_0$154
                                    888 ;C:/ZGB-2023.0/common/src/Fade_b.c:69: for(i = 0; i != 6; i ++) {
      000343 0E 00            [ 8]  889 	ld	c, #0x00
      000345                        890 00102$:
                           000345   891 	C$Fade_b.c$70$3_0$155	= .
                                    892 	.globl	C$Fade_b.c$70$3_0$155
                                    893 ;C:/ZGB-2023.0/common/src/Fade_b.c:70: FadeStepColor(i);	
      000345 C5               [16]  894 	push	bc
      000346 79               [ 4]  895 	ld	a, c
      000347 CDr57r02         [24]  896 	call	_FadeStepColor
      00034A C1               [12]  897 	pop	bc
                           00034B   898 	C$Fade_b.c$69$2_0$154	= .
                                    899 	.globl	C$Fade_b.c$69$2_0$154
                                    900 ;C:/ZGB-2023.0/common/src/Fade_b.c:69: for(i = 0; i != 6; i ++) {
      00034B 0C               [ 4]  901 	inc	c
      00034C 79               [ 4]  902 	ld	a, c
      00034D D6 06            [ 8]  903 	sub	a, #0x06
      00034F 20 F4            [12]  904 	jr	NZ, 00102$
                           000351   905 	C$Fade_b.c$72$2_0$154	= .
                                    906 	.globl	C$Fade_b.c$72$2_0$154
                                    907 ;C:/ZGB-2023.0/common/src/Fade_b.c:72: }
                           000351   908 	C$Fade_b.c$72$2_0$154	= .
                                    909 	.globl	C$Fade_b.c$72$2_0$154
                           000351   910 	XG$FadeInCOLOR$0$0	= .
                                    911 	.globl	XG$FadeInCOLOR$0$0
      000351 C9               [16]  912 	ret
                           000352   913 	G$FadeIn_b$0$0	= .
                                    914 	.globl	G$FadeIn_b$0$0
                           000352   915 	C$Fade_b.c$74$2_0$156	= .
                                    916 	.globl	C$Fade_b.c$74$2_0$156
                                    917 ;C:/ZGB-2023.0/common/src/Fade_b.c:74: void FadeIn_b() BANKED{
                                    918 ;	---------------------------------
                                    919 ; Function FadeIn_b
                                    920 ; ---------------------------------
                           000001   921 	b_FadeIn_b	= 1
      000352                        922 _FadeIn_b::
                           000352   923 	C$Fade_b.c$80$1_0$156	= .
                                    924 	.globl	C$Fade_b.c$80$1_0$156
                                    925 ;C:/ZGB-2023.0/common/src/Fade_b.c:80: FadeInDMG();
                           000352   926 	C$Fade_b.c$81$1_0$156	= .
                                    927 	.globl	C$Fade_b.c$81$1_0$156
                                    928 ;C:/ZGB-2023.0/common/src/Fade_b.c:81: }
                           000352   929 	C$Fade_b.c$81$1_0$156	= .
                                    930 	.globl	C$Fade_b.c$81$1_0$156
                           000352   931 	XG$FadeIn_b$0$0	= .
                                    932 	.globl	XG$FadeIn_b$0$0
      000352 C3rB9r01         [16]  933 	jp	_FadeInDMG
                           000355   934 	G$FadeOutDMG$0$0	= .
                                    935 	.globl	G$FadeOutDMG$0$0
                           000355   936 	C$Fade_b.c$83$1_0$157	= .
                                    937 	.globl	C$Fade_b.c$83$1_0$157
                                    938 ;C:/ZGB-2023.0/common/src/Fade_b.c:83: void FadeOutDMG() {
                                    939 ;	---------------------------------
                                    940 ; Function FadeOutDMG
                                    941 ; ---------------------------------
      000355                        942 _FadeOutDMG::
                           000355   943 	C$Fade_b.c$84$1_0$157	= .
                                    944 	.globl	C$Fade_b.c$84$1_0$157
                                    945 ;C:/ZGB-2023.0/common/src/Fade_b.c:84: FadeDMG(1);
      000355 3E 01            [ 8]  946 	ld	a, #0x01
                           000357   947 	C$Fade_b.c$85$1_0$157	= .
                                    948 	.globl	C$Fade_b.c$85$1_0$157
                                    949 ;C:/ZGB-2023.0/common/src/Fade_b.c:85: }
                           000357   950 	C$Fade_b.c$85$1_0$157	= .
                                    951 	.globl	C$Fade_b.c$85$1_0$157
                           000357   952 	XG$FadeOutDMG$0$0	= .
                                    953 	.globl	XG$FadeOutDMG$0$0
      000357 C3r0Cr00         [16]  954 	jp	_FadeDMG
                           00035A   955 	G$FadeOutColor$0$0	= .
                                    956 	.globl	G$FadeOutColor$0$0
                           00035A   957 	C$Fade_b.c$87$1_0$159	= .
                                    958 	.globl	C$Fade_b.c$87$1_0$159
                                    959 ;C:/ZGB-2023.0/common/src/Fade_b.c:87: void FadeOutColor() {
                                    960 ;	---------------------------------
                                    961 ; Function FadeOutColor
                                    962 ; ---------------------------------
      00035A                        963 _FadeOutColor::
                           00035A   964 	C$Fade_b.c$89$2_0$159	= .
                                    965 	.globl	C$Fade_b.c$89$2_0$159
                                    966 ;C:/ZGB-2023.0/common/src/Fade_b.c:89: for(i = 5; i != 0xFF; -- i) {
      00035A 0E 05            [ 8]  967 	ld	c, #0x05
      00035C                        968 00102$:
                           00035C   969 	C$Fade_b.c$90$3_0$160	= .
                                    970 	.globl	C$Fade_b.c$90$3_0$160
                                    971 ;C:/ZGB-2023.0/common/src/Fade_b.c:90: FadeStepColor(i);	
      00035C C5               [16]  972 	push	bc
      00035D 79               [ 4]  973 	ld	a, c
      00035E CDr57r02         [24]  974 	call	_FadeStepColor
      000361 C1               [12]  975 	pop	bc
                           000362   976 	C$Fade_b.c$89$2_0$159	= .
                                    977 	.globl	C$Fade_b.c$89$2_0$159
                                    978 ;C:/ZGB-2023.0/common/src/Fade_b.c:89: for(i = 5; i != 0xFF; -- i) {
      000362 0D               [ 4]  979 	dec	c
      000363 79               [ 4]  980 	ld	a, c
      000364 3C               [ 4]  981 	inc	a
      000365 20 F5            [12]  982 	jr	NZ, 00102$
                           000367   983 	C$Fade_b.c$92$2_0$159	= .
                                    984 	.globl	C$Fade_b.c$92$2_0$159
                                    985 ;C:/ZGB-2023.0/common/src/Fade_b.c:92: }
                           000367   986 	C$Fade_b.c$92$2_0$159	= .
                                    987 	.globl	C$Fade_b.c$92$2_0$159
                           000367   988 	XG$FadeOutColor$0$0	= .
                                    989 	.globl	XG$FadeOutColor$0$0
      000367 C9               [16]  990 	ret
                           000368   991 	G$FadeOut_b$0$0	= .
                                    992 	.globl	G$FadeOut_b$0$0
                           000368   993 	C$Fade_b.c$94$2_0$161	= .
                                    994 	.globl	C$Fade_b.c$94$2_0$161
                                    995 ;C:/ZGB-2023.0/common/src/Fade_b.c:94: void FadeOut_b() BANKED{
                                    996 ;	---------------------------------
                                    997 ; Function FadeOut_b
                                    998 ; ---------------------------------
                           000001   999 	b_FadeOut_b	= 1
      000368                       1000 _FadeOut_b::
                           000368  1001 	C$Fade_b.c$100$1_0$161	= .
                                   1002 	.globl	C$Fade_b.c$100$1_0$161
                                   1003 ;C:/ZGB-2023.0/common/src/Fade_b.c:100: FadeOutDMG();
                           000368  1004 	C$Fade_b.c$101$1_0$161	= .
                                   1005 	.globl	C$Fade_b.c$101$1_0$161
                                   1006 ;C:/ZGB-2023.0/common/src/Fade_b.c:101: }
                           000368  1007 	C$Fade_b.c$101$1_0$161	= .
                                   1008 	.globl	C$Fade_b.c$101$1_0$161
                           000368  1009 	XG$FadeOut_b$0$0	= .
                                   1010 	.globl	XG$FadeOut_b$0$0
      000368 C3r55r03         [16] 1011 	jp	_FadeOutDMG
                                   1012 	.area _CODE_1
                                   1013 	.area _INITIALIZER
                                   1014 	.area _CABS (ABS)
