ASxxxx Linker V03.00/V05.40 + sdld,  page 1.
Hexadecimal  [32-Bits]

Area                                    Addr        Size        Decimal Bytes (Attributes)
--------------------------------        ----        ----        ------- ----- ------------
.  .ABS.                            00000000    00000000 =           0. bytes (ABS,CON)

      Value  Global                              Global Defined In Module
      -----  --------------------------------   ------------------------
     00000000  .__.ABS.                           itoa
     00000000  _rRAMG                             
     00000000  l__BASE                         
     00000000  l__BSS                          
     00000000  l__CABS                         
     00000000  l__CODE_0                       
     00000000  l__DABS                         
     00000000  l__HEADER                       
     00000000  l__HEADER_LCD                   
     00000000  l__HEADER_NESTED_TIM            
     00000000  l__HEAP                         
     00000000  l__HEAP_END                     
     00000000  l__HRAM                         
     00000000  l__LIT                          
     00000000  s__CABS                         
     00000000  s__DABS                         
     00000000  s__HEADER                       
     00000000  s__HEADER0                      
     00000000  s__HEADER1                      
     00000000  s__HEADER10                     
     00000000  s__HEADER11                     
     00000000  s__HEADER2                      
     00000000  s__HEADER3                      
     00000000  s__HEADER4                      
     00000000  s__HEADER5                      
     00000000  s__HEADER6                      
     00000000  s__HEADER7                      
     00000000  s__HEADER8                      
     00000000  s__HEADER9                      
     00000000  s__HEADER_LCD                   
     00000000  s__HEADER_LCD0                  
     00000000  s__HEADER_NESTED_TIM            
     00000000  s__HEADER_NESTED_TIM0           
     00000000  s__HEADERa                      
     00000000  s__HEADERb                      
     00000000  s__HEADERc                      
     00000000  s__HEADERd                      
     00000000  s__HEADERe                      
     00000000  s__HEADERf                      
     00000000  s__HRAM                         
     00000000  s__HRAM12                       
     00000001  ___bank_SpriteFire                 SpriteFire
     00000001  ___bank_horse5frames               horse5frames_gbr
     00000001  ___bank_map                        map_gbm
     00000001  ___bank_maprome00                  maprome00_gbm
     00000001  ___bank_mapromet                   mapromet_gbr
     00000001  ___bank_tiles                      tilesold_gbr
     00000001  b_FadeIn_b                         Fade_b
     00000001  b_FadeOut_b                        Fade_b
     00000001  l__GSFINAL                      
ASxxxx Linker V03.00/V05.40 + sdld,  page 2.
Hexadecimal  [32-Bits]

Area                                    Addr        Size        Decimal Bytes (Attributes)
--------------------------------        ----        ----        ------- ----- ------------
.  .ABS.                            00000000    00000000 =           0. bytes (ABS,CON)

      Value  Global                              Global Defined In Module
      -----  --------------------------------   ------------------------
     00000001  l__HEADER0                      
     00000001  l__HEADER5                      
     00000001  l__HEADERa                      
     00000001  l__HEADERb                      
     00000001  l__HEADERc                      
     00000001  l__HEADERe                      
     00000001  l__HEADERf                      
     00000002  ___bank_SpriteBiga                 SpriteBiga
     00000002  ___bank_SpriteCompass              SpriteCompass
     00000002  ___bank_SpriteHorse                SpriteHorse
     00000002  ___bank_SpritePlayer               SpritePlayer
     00000002  ___bank_StateGame                  StateGame
     00000002  ___bank_biga                       biga_gbr
     00000002  ___bank_fire                       fire_gbr
     00000002  ___bank_font                       font_gbr
     00000002  ___bank_horse                      horse_gbr
     00000002  ___bank_horse8frames               horse8frames_gbr
     00000002  ___bank_hudm                       hudm_gbm
     00000002  ___bank_hudt                       hudt_gbr
     00000002  ___bank_hudtdifcoat                hudtdifcoat_gbr
     00000002  ___bank_hudtdifelmet               hudtdifelmet_gbr
     00000002  ___bank_mapcircuit_tiles           tiles_gbr
     00000002  ___bank_maprome_map                maprome_gbm
     00000002  ___bank_oldhorse                   oldhorse_gbr
     00000002  ___bank_player                     player_gbr
     00000002  b_hud_compass_h_r                  StateGame
     00000002  b_hud_compass_r_u_33               StateGame
     00000002  b_update_compass                   StateGame
     00000002  b_update_euphoria                  StateGame
     00000002  b_update_hp                        StateGame
     00000002  b_update_stamina                   StateGame
     00000002  b_update_turning                   StateGame
     00000002  l__HEADER10                     
     00000002  l__HEADER6                      
     00000002  l__HEADERd                      
     00000003  ___bank_SpriteCamera               SpriteCamera
     00000003  ___bank_SpriteStep                 SpriteStep
     00000003  ___bank_camera                     camera_gbr
     00000003  ___bank_compass                    compass_gbr
     00000003  ___bank_hudtatkflame               hudtatkflame_gbr
     00000003  ___bank_hudtatkgas                 hudtatkgas_gbr
     00000003  ___bank_hudtatkgladio              hudtatkgladio_gbr
     00000003  ___bank_hudtatklance               hudtatklance_gbr
     00000003  ___bank_hudtdifshield              hudtdifshield_gbr
     00000003  ___bank_step                       step_gbr
     00000003  l__HEADER9                      
     00000003  l__HEADER_LCD0                  
     00000003  l__HRAM12                       
     00000005  l__HEADER1                      
     00000006  l__HEADER8                      
     00000006  l__HEADER_NESTED_TIM0           
ASxxxx Linker V03.00/V05.40 + sdld,  page 3.
Hexadecimal  [32-Bits]

Area                                    Addr        Size        Decimal Bytes (Attributes)
--------------------------------        ----        ----        ------- ----- ------------
.  .ABS.                            00000000    00000000 =           0. bytes (ABS,CON)

      Value  Global                              Global Defined In Module
      -----  --------------------------------   ------------------------
     00000007  l__HEADER2                      
     00000008  l__HEADER3                      
     0000000C  l__GSINIT                       
     00000030  l__HEADER7                      
     0000005C  l__HEADER4                      
     00000080  l__INITIALIZED                  
     00000080  l__INITIALIZER                  
     000000AF  l__HEADER11                     
     000000FF  G$__bank_SpriteBiga$0_0$0          SpriteBiga
     000000FF  G$__bank_SpriteCamera$0_0$0        SpriteCamera
     000000FF  G$__bank_SpriteCompass$0_0$0       SpriteCompass
     000000FF  G$__bank_SpriteFire$0_0$0          SpriteFire
     000000FF  G$__bank_SpriteHorse$0_0$0         SpriteHorse
     000000FF  G$__bank_SpritePlayer$0_0$0        SpritePlayer
     000000FF  G$__bank_SpriteStep$0_0$0          SpriteStep
     000000FF  G$__bank_StateGame$0_0$0           StateGame
     000000FF  G$__bank_font$0_0$0                font_gbr
     000000FF  G$__bank_hudm$0_0$0                hudm_gbm
     000000FF  G$__bank_hudt$0_0$0                hudt_gbr
     000000FF  G$__bank_hudtatkflame$0_0$0        hudtatkflame_gbr
     000000FF  G$__bank_hudtatkgas$0_0$0          hudtatkgas_gbr
     000000FF  G$__bank_hudtatkgladio$0_0$0       hudtatkgladio_gbr
     000000FF  G$__bank_hudtatklance$0_0$0        hudtatklance_gbr
     000000FF  G$__bank_hudtdifcoat$0_0$0         hudtdifcoat_gbr
     000000FF  G$__bank_hudtdifelmet$0_0$0        hudtdifelmet_gbr
     000000FF  G$__bank_hudtdifshield$0_0$0       hudtdifshield_gbr
     000000FF  G$__bank_map$0_0$0                 map_gbm
     000000FF  G$__bank_mapcircuit_tiles$0_0$0    tiles_gbr
     000000FF  G$__bank_maprome00$0_0$0           maprome00_gbm
     000000FF  G$__bank_maprome_map$0_0$0         maprome_gbm
     000000FF  G$__bank_mapromet$0_0$0            mapromet_gbr
     000000FF  G$__bank_tiles$0_0$0               tilesold_gbr
     00000200  s__CODE                         
     000002D2  l__HOME                         
     00000789  l__DATA                         
     00000B1A  l__CODE_3                       
     00002000  _rROMB0                            
     00002C59  l__CODE                         
     00002E59  s__HOME                         
     00003000  _rROMB1                            
     0000312B  s__BASE                         
     0000312B  s__CODE_0                       
     0000312B  s__INITIALIZER                  
     0000312B  s__LIT                          
     000031AB  s__GSINIT                       
     000031B7  s__GSFINAL                      
     000038C8  l__CODE_1                       
     00003FF1  l__CODE_2                       
     00004000  _rRAMB                             
     00008000  __VRAM                             
     00008000  __VRAM8000                         
ASxxxx Linker V03.00/V05.40 + sdld,  page 4.
Hexadecimal  [32-Bits]

Area                                    Addr        Size        Decimal Bytes (Attributes)
--------------------------------        ----        ----        ------- ----- ------------
.  .ABS.                            00000000    00000000 =           0. bytes (ABS,CON)

      Value  Global                              Global Defined In Module
      -----  --------------------------------   ------------------------
     00008800  __VRAM8800                         
     00009000  __VRAM9000                         
     00009800  __SCRN0                            
     00009C00  __SCRN1                            
     0000A000  __SRAM                             
     0000C000  __RAM                              
     0000C000  _shadow_OAM                     
     0000C0A0  s__DATA                         
     0000C829  s__BSS                          
     0000C829  s__INITIALIZED                  
     0000C8A9  s__HEAP                         
     0000C8A9  s__HEAP_END                     
     0000D000  __RAMBANK                          
     0000DEFF  .STACK                          
     0000DF00  G$oam_mirror$0_0$0                 OAMManager
     0000DF00  _oam_mirror                        OAMManager
     0000FE00  __OAMRAM                           
     0000FF00  _P1_REG                            
     0000FF00  __IO                               
     0000FF01  _SB_REG                            
     0000FF02  _SC_REG                            
     0000FF04  _DIV_REG                           
     0000FF05  _TIMA_REG                          
     0000FF06  _TMA_REG                           
     0000FF07  _TAC_REG                           
     0000FF0F  _IF_REG                            
     0000FF10  _NR10_REG                          
     0000FF11  _NR11_REG                          
     0000FF12  _NR12_REG                          
     0000FF13  _NR13_REG                          
     0000FF14  _NR14_REG                          
     0000FF16  _NR21_REG                          
     0000FF17  _NR22_REG                          
     0000FF18  _NR23_REG                          
     0000FF19  _NR24_REG                          
     0000FF1A  _NR30_REG                          
     0000FF1B  _NR31_REG                          
     0000FF1C  _NR32_REG                          
     0000FF1D  _NR33_REG                          
     0000FF1E  _NR34_REG                          
     0000FF20  _NR41_REG                          
     0000FF21  _NR42_REG                          
     0000FF22  _NR43_REG                          
     0000FF23  _NR44_REG                          
     0000FF24  _NR50_REG                          
     0000FF25  _NR51_REG                          
     0000FF26  _NR52_REG                          
     0000FF30  _AUD3WAVE                          
     0000FF30  _PCM_SAMPLE                        
     0000FF30  __AUD3WAVERAM                      
     0000FF40  _LCDC_REG                          
ASxxxx Linker V03.00/V05.40 + sdld,  page 5.
Hexadecimal  [32-Bits]

Area                                    Addr        Size        Decimal Bytes (Attributes)
--------------------------------        ----        ----        ------- ----- ------------
.  .ABS.                            00000000    00000000 =           0. bytes (ABS,CON)

      Value  Global                              Global Defined In Module
      -----  --------------------------------   ------------------------
     0000FF41  _STAT_REG                          
     0000FF42  _SCY_REG                           
     0000FF43  _SCX_REG                           
     0000FF44  _LY_REG                            
     0000FF45  _LYC_REG                           
     0000FF46  _DMA_REG                           
     0000FF47  _BGP_REG                           
     0000FF48  _OBP0_REG                          
     0000FF49  _OBP1_REG                          
     0000FF4A  _WY_REG                            
     0000FF4B  _WX_REG                            
     0000FF4D  _KEY1_REG                          
     0000FF4F  _VBK_REG                           
     0000FF51  _HDMA1_REG                         
     0000FF52  _HDMA2_REG                         
     0000FF53  _HDMA3_REG                         
     0000FF54  _HDMA4_REG                         
     0000FF55  _HDMA5_REG                         
     0000FF56  _RP_REG                            
     0000FF68  _BCPS_REG                          
     0000FF69  _BCPD_REG                          
     0000FF6A  _OCPS_REG                          
     0000FF6B  _OCPD_REG                          
     0000FF70  _SVBK_REG                          
     0000FF76  _PCM12_REG                         
     0000FF77  _PCM34_REG                         
     0000FF80  .refresh_OAM                    
     0000FF80  __HRAM                             
     0000FFFF  _IE_REG                            
     00014000  s__CODE_1                       
     00024000  s__CODE_2                       
     00034000  s__CODE_3                       

ASxxxx Linker V03.00/V05.40 + sdld,  page 6.
Hexadecimal  [32-Bits]

Area                                    Addr        Size        Decimal Bytes (Attributes)
--------------------------------        ----        ----        ------- ----- ------------
_CODE                               00000200    00002C59 =       11353. bytes (REL,CON)

      Value  Global                              Global Defined In Module
      -----  --------------------------------   ------------------------
     00000200  G$sine_wave$0_0$0                  CircleMath
     00000200  _sine_wave                         CircleMath
     00000300  A$ZGBMain$64                       ZGBMain
     00000300  C$ZGBMain.c$10$0_0$160             ZGBMain
     00000300  G$GetTileReplacement$0$0           ZGBMain
     00000300  _GetTileReplacement                ZGBMain
     00000302  A$ZGBMain$65                       ZGBMain
     00000304  A$ZGBMain$66                       ZGBMain
     00000305  A$ZGBMain$67                       ZGBMain
     00000306  A$ZGBMain$68                       ZGBMain
     00000307  A$ZGBMain$72                       ZGBMain
     00000307  C$ZGBMain.c$11$1_0$160             ZGBMain
     0000030A  A$ZGBMain$73                       ZGBMain
     0000030B  A$ZGBMain$74                       ZGBMain
     0000030D  A$ZGBMain$78                       ZGBMain
     0000030D  C$ZGBMain.c$12$2_0$161             ZGBMain
     0000030F  A$ZGBMain$79                       ZGBMain
     00000310  A$ZGBMain$80                       ZGBMain
     00000311  A$ZGBMain$81                       ZGBMain
     00000312  A$ZGBMain$82                       ZGBMain
     00000313  A$ZGBMain$83                       ZGBMain
     00000314  A$ZGBMain$84                       ZGBMain
     00000315  A$ZGBMain$85                       ZGBMain
     00000316  A$ZGBMain$86                       ZGBMain
     00000317  A$ZGBMain$87                       ZGBMain
     00000319  A$ZGBMain$88                       ZGBMain
     0000031B  A$ZGBMain$89                       ZGBMain
     0000031C  A$ZGBMain$90                       ZGBMain
     0000031D  A$ZGBMain$91                       ZGBMain
     0000031E  A$ZGBMain$92                       ZGBMain
     0000031F  A$ZGBMain$93                       ZGBMain
     00000321  A$ZGBMain$97                       ZGBMain
     00000321  C$ZGBMain.c$13$3_0$162             ZGBMain
     00000322  A$ZGBMain$98                       ZGBMain
     00000323  A$ZGBMain$102                      ZGBMain
     00000323  C$ZGBMain.c$14$3_0$162             ZGBMain
     00000325  A$ZGBMain$103                      ZGBMain
     00000326  A$ZGBMain$104                      ZGBMain
     00000327  A$ZGBMain$105                      ZGBMain
     00000328  A$ZGBMain$106                      ZGBMain
     00000329  A$ZGBMain$107                      ZGBMain
     0000032A  A$ZGBMain$108                      ZGBMain
     0000032C  A$ZGBMain$109                      ZGBMain
     0000032D  A$ZGBMain$110                      ZGBMain
     0000032F  A$ZGBMain$115                      ZGBMain
     0000032F  C$ZGBMain.c$17$2_0$161             ZGBMain
     00000331  A$ZGBMain$116                      ZGBMain
     00000332  A$ZGBMain$117                      ZGBMain
     00000333  A$ZGBMain$122                      ZGBMain
     00000333  C$ZGBMain.c$20$1_0$160             ZGBMain
ASxxxx Linker V03.00/V05.40 + sdld,  page 7.
Hexadecimal  [32-Bits]

Area                                    Addr        Size        Decimal Bytes (Attributes)
--------------------------------        ----        ----        ------- ----- ------------
_CODE                               00000200    00002C59 =       11353. bytes (REL,CON)

      Value  Global                              Global Defined In Module
      -----  --------------------------------   ------------------------
     00000335  A$ZGBMain$127                      ZGBMain
     00000337  A$ZGBMain$132                      ZGBMain
     00000337  C$ZGBMain.c$21$1_0$160             ZGBMain
     00000337  XG$GetTileReplacement$0$0          ZGBMain
     00000338  _hUGE_init                         hUGEDriver_obj
     0000033A  hUGE_init                          hUGEDriver_obj
     00000390  _hUGE_mute_channel                 hUGEDriver_obj
     00000392  hUGE_mute_channel                  hUGEDriver_obj
     000005E0  _hUGE_set_position                 hUGEDriver_obj
     000005E1  hUGE_set_position                  hUGEDriver_obj
     000007A6  _hUGE_dosound                      hUGEDriver_obj
     000007A6  hUGE_dosound                       hUGEDriver_obj
     00000AD2  __divsuchar                        divmod
     00000AD8  __modsuchar                        divmod
     00000AE1  __divuschar                        divmod
     00000AEA  __moduschar                        divmod
     00000AF7  __divschar                         divmod
     00000AFC  __modschar                         divmod
     00000B03  __divsint                          divmod
     00000B0C  __modsint                          divmod
     00000B18  __divuchar                         divmod
     00000B1D  __moduchar                         divmod
     00000B24  __divuint                          divmod
     00000B2D  __moduint                          divmod
     00000B39  .div8                              divmod
     00000B39  .mod8                              divmod
     00000B41  .div16                             divmod
     00000B41  .mod16                             divmod
     00000B77  .divu8                             divmod
     00000B77  .modu8                             divmod
     00000B7A  .divu16                            divmod
     00000B7A  .modu16                            divmod
     00000BBA  A$Sprite$103                       Sprite
     00000BBA  C$Sprite.c$8$0_0$179               Sprite
     00000BBA  G$SetFrame$0$0                     Sprite
     00000BBA  _SetFrame                          Sprite
     00000BBC  A$Sprite$104                       Sprite
     00000BBE  A$Sprite$105                       Sprite
     00000BBF  A$Sprite$106                       Sprite
     00000BC0  A$Sprite$107                       Sprite
     00000BC1  A$Sprite$108                       Sprite
     00000BC2  A$Sprite$109                       Sprite
     00000BC3  A$Sprite$113                       Sprite
     00000BC3  C$Sprite.c$10$1_0$179              Sprite
     00000BC4  A$Sprite$114                       Sprite
     00000BC5  A$Sprite$115                       Sprite
     00000BC6  A$Sprite$116                       Sprite
     00000BC7  A$Sprite$117                       Sprite
     00000BC8  A$Sprite$118                       Sprite
     00000BC9  A$Sprite$119                       Sprite
     00000BCA  A$Sprite$120                       Sprite
ASxxxx Linker V03.00/V05.40 + sdld,  page 8.
Hexadecimal  [32-Bits]

Area                                    Addr        Size        Decimal Bytes (Attributes)
--------------------------------        ----        ----        ------- ----- ------------
_CODE                               00000200    00002C59 =       11353. bytes (REL,CON)

      Value  Global                              Global Defined In Module
      -----  --------------------------------   ------------------------
     00000BCD  A$Sprite$121                       Sprite
     00000BCE  A$Sprite$125                       Sprite
     00000BCE  C$Sprite.c$11$1_0$179              Sprite
     00000BD0  A$Sprite$126                       Sprite
     00000BD1  A$Sprite$127                       Sprite
     00000BD2  A$Sprite$128                       Sprite
     00000BD3  A$Sprite$129                       Sprite
     00000BD6  A$Sprite$130                       Sprite
     00000BD7  A$Sprite$131                       Sprite
     00000BD8  A$Sprite$132                       Sprite
     00000BD9  A$Sprite$133                       Sprite
     00000BDA  A$Sprite$134                       Sprite
     00000BDC  A$Sprite$135                       Sprite
     00000BDD  A$Sprite$136                       Sprite
     00000BDE  A$Sprite$139                       Sprite
     00000BDF  A$Sprite$142                       Sprite
     00000BE0  A$Sprite$143                       Sprite
     00000BE1  A$Sprite$144                       Sprite
     00000BE2  A$Sprite$145                       Sprite
     00000BE3  A$Sprite$146                       Sprite
     00000BE6  A$Sprite$147                       Sprite
     00000BE7  A$Sprite$148                       Sprite
     00000BE8  A$Sprite$149                       Sprite
     00000BE9  A$Sprite$150                       Sprite
     00000BEA  A$Sprite$151                       Sprite
     00000BEC  A$Sprite$152                       Sprite
     00000BED  A$Sprite$153                       Sprite
     00000BEF  A$Sprite$154                       Sprite
     00000BF0  A$Sprite$155                       Sprite
     00000BF1  A$Sprite$156                       Sprite
     00000BF2  A$Sprite$157                       Sprite
     00000BF3  A$Sprite$158                       Sprite
     00000BF4  A$Sprite$159                       Sprite
     00000BF5  A$Sprite$160                       Sprite
     00000BF6  A$Sprite$161                       Sprite
     00000BF7  A$Sprite$162                       Sprite
     00000BF8  A$Sprite$163                       Sprite
     00000BF9  A$Sprite$167                       Sprite
     00000BF9  C$Sprite.c$12$1_0$179              Sprite
     00000BFC  A$Sprite$171                       Sprite
     00000BFC  C$Sprite.c$13$1_0$179              Sprite
     00000BFE  A$Sprite$172                       Sprite
     00000BFF  A$Sprite$173                       Sprite
     00000C00  A$Sprite$174                       Sprite
     00000C01  A$Sprite$175                       Sprite
     00000C04  A$Sprite$176                       Sprite
     00000C05  A$Sprite$177                       Sprite
     00000C06  A$Sprite$178                       Sprite
     00000C07  A$Sprite$179                       Sprite
     00000C09  A$Sprite$180                       Sprite
     00000C0A  A$Sprite$181                       Sprite
ASxxxx Linker V03.00/V05.40 + sdld,  page 9.
Hexadecimal  [32-Bits]

Area                                    Addr        Size        Decimal Bytes (Attributes)
--------------------------------        ----        ----        ------- ----- ------------
_CODE                               00000200    00002C59 =       11353. bytes (REL,CON)

      Value  Global                              Global Defined In Module
      -----  --------------------------------   ------------------------
     00000C0B  A$Sprite$185                       Sprite
     00000C0D  A$Sprite$190                       Sprite
     00000C0D  C$Sprite.c$14$1_0$179              Sprite
     00000C0D  XG$SetFrame$0$0                    Sprite
     00000C0E  A$Sprite$200                       Sprite
     00000C0E  C$Sprite.c$16$1_0$181              Sprite
     00000C0E  G$InitSprite$0$0                   Sprite
     00000C0E  _InitSprite                        Sprite
     00000C10  A$Sprite$201                       Sprite
     00000C11  A$Sprite$202                       Sprite
     00000C12  A$Sprite$203                       Sprite
     00000C14  A$Sprite$204                       Sprite
     00000C15  A$Sprite$208                       Sprite
     00000C15  C$Sprite.c$17$1_0$181              Sprite
     00000C16  A$Sprite$209                       Sprite
     00000C18  A$Sprite$210                       Sprite
     00000C19  A$Sprite$211                       Sprite
     00000C1C  A$Sprite$212                       Sprite
     00000C1D  A$Sprite$213                       Sprite
     00000C1E  A$Sprite$214                       Sprite
     00000C1F  A$Sprite$215                       Sprite
     00000C20  A$Sprite$216                       Sprite
     00000C22  A$Sprite$217                       Sprite
     00000C23  A$Sprite$218                       Sprite
     00000C24  A$Sprite$219                       Sprite
     00000C25  A$Sprite$220                       Sprite
     00000C26  A$Sprite$224                       Sprite
     00000C26  C$Sprite.c$19$1_0$181              Sprite
     00000C27  A$Sprite$225                       Sprite
     00000C28  A$Sprite$226                       Sprite
     00000C29  A$Sprite$227                       Sprite
     00000C2B  A$Sprite$228                       Sprite
     00000C2C  A$Sprite$229                       Sprite
     00000C2D  A$Sprite$230                       Sprite
     00000C2E  A$Sprite$231                       Sprite
     00000C2F  A$Sprite$232                       Sprite
     00000C30  A$Sprite$236                       Sprite
     00000C30  C$Sprite.c$20$1_0$181              Sprite
     00000C33  A$Sprite$237                       Sprite
     00000C35  A$Sprite$238                       Sprite
     00000C36  A$Sprite$239                       Sprite
     00000C38  A$Sprite$240                       Sprite
     00000C39  A$Sprite$241                       Sprite
     00000C3A  A$Sprite$242                       Sprite
     00000C3B  A$Sprite$243                       Sprite
     00000C3D  A$Sprite$244                       Sprite
     00000C3E  A$Sprite$245                       Sprite
     00000C3F  A$Sprite$246                       Sprite
     00000C40  A$Sprite$247                       Sprite
     00000C42  A$Sprite$248                       Sprite
     00000C43  A$Sprite$249                       Sprite
ASxxxx Linker V03.00/V05.40 + sdld,  page 10.
Hexadecimal  [32-Bits]

Area                                    Addr        Size        Decimal Bytes (Attributes)
--------------------------------        ----        ----        ------- ----- ------------
_CODE                               00000200    00002C59 =       11353. bytes (REL,CON)

      Value  Global                              Global Defined In Module
      -----  --------------------------------   ------------------------
     00000C44  A$Sprite$250                       Sprite
     00000C45  A$Sprite$251                       Sprite
     00000C46  A$Sprite$252                       Sprite
     00000C47  A$Sprite$253                       Sprite
     00000C48  A$Sprite$257                       Sprite
     00000C48  C$Sprite.c$22$1_0$181              Sprite
     00000C4B  A$Sprite$258                       Sprite
     00000C4C  A$Sprite$259                       Sprite
     00000C4D  A$Sprite$260                       Sprite
     00000C4E  A$Sprite$261                       Sprite
     00000C50  A$Sprite$262                       Sprite
     00000C51  A$Sprite$263                       Sprite
     00000C52  A$Sprite$264                       Sprite
     00000C53  A$Sprite$265                       Sprite
     00000C55  A$Sprite$266                       Sprite
     00000C56  A$Sprite$267                       Sprite
     00000C59  A$Sprite$268                       Sprite
     00000C5A  A$Sprite$269                       Sprite
     00000C5C  A$Sprite$270                       Sprite
     00000C5D  A$Sprite$271                       Sprite
     00000C5E  A$Sprite$272                       Sprite
     00000C5F  A$Sprite$273                       Sprite
     00000C60  A$Sprite$274                       Sprite
     00000C62  A$Sprite$275                       Sprite
     00000C63  A$Sprite$276                       Sprite
     00000C64  A$Sprite$277                       Sprite
     00000C65  A$Sprite$278                       Sprite
     00000C66  A$Sprite$279                       Sprite
     00000C67  A$Sprite$280                       Sprite
     00000C68  A$Sprite$284                       Sprite
     00000C68  C$Sprite.c$26$1_0$181              Sprite
     00000C6B  A$Sprite$285                       Sprite
     00000C6C  A$Sprite$286                       Sprite
     00000C6E  A$Sprite$290                       Sprite
     00000C6E  C$Sprite.c$28$1_0$181              Sprite
     00000C71  A$Sprite$291                       Sprite
     00000C72  A$Sprite$292                       Sprite
     00000C73  A$Sprite$293                       Sprite
     00000C74  A$Sprite$294                       Sprite
     00000C75  A$Sprite$298                       Sprite
     00000C75  C$Sprite.c$30$1_0$181              Sprite
     00000C76  A$Sprite$299                       Sprite
     00000C77  A$Sprite$300                       Sprite
     00000C78  A$Sprite$301                       Sprite
     00000C79  A$Sprite$302                       Sprite
     00000C7C  A$Sprite$303                       Sprite
     00000C7D  A$Sprite$307                       Sprite
     00000C7D  C$Sprite.c$32$1_0$181              Sprite
     00000C80  A$Sprite$308                       Sprite
     00000C81  A$Sprite$309                       Sprite
     00000C83  A$Sprite$313                       Sprite
ASxxxx Linker V03.00/V05.40 + sdld,  page 11.
Hexadecimal  [32-Bits]

Area                                    Addr        Size        Decimal Bytes (Attributes)
--------------------------------        ----        ----        ------- ----- ------------
_CODE                               00000200    00002C59 =       11353. bytes (REL,CON)

      Value  Global                              Global Defined In Module
      -----  --------------------------------   ------------------------
     00000C83  C$Sprite.c$34$1_0$181              Sprite
     00000C86  A$Sprite$314                       Sprite
     00000C87  A$Sprite$315                       Sprite
     00000C88  A$Sprite$316                       Sprite
     00000C89  A$Sprite$317                       Sprite
     00000C8A  A$Sprite$321                       Sprite
     00000C8A  C$Sprite.c$35$1_0$181              Sprite
     00000C8D  A$Sprite$322                       Sprite
     00000C8E  A$Sprite$323                       Sprite
     00000C8F  A$Sprite$324                       Sprite
     00000C90  A$Sprite$325                       Sprite
     00000C91  A$Sprite$329                       Sprite
     00000C91  C$Sprite.c$37$1_0$181              Sprite
     00000C93  A$Sprite$330                       Sprite
     00000C94  A$Sprite$331                       Sprite
     00000C95  A$Sprite$332                       Sprite
     00000C96  A$Sprite$333                       Sprite
     00000C97  A$Sprite$334                       Sprite
     00000C98  A$Sprite$335                       Sprite
     00000C99  A$Sprite$336                       Sprite
     00000C9A  A$Sprite$337                       Sprite
     00000C9D  A$Sprite$338                       Sprite
     00000C9E  A$Sprite$339                       Sprite
     00000C9F  A$Sprite$343                       Sprite
     00000C9F  C$Sprite.c$38$1_0$181              Sprite
     00000CA2  A$Sprite$344                       Sprite
     00000CA3  A$Sprite$345                       Sprite
     00000CA4  A$Sprite$346                       Sprite
     00000CA5  A$Sprite$347                       Sprite
     00000CA7  A$Sprite$348                       Sprite
     00000CA8  A$Sprite$349                       Sprite
     00000CA9  A$Sprite$350                       Sprite
     00000CAA  A$Sprite$351                       Sprite
     00000CAC  A$Sprite$352                       Sprite
     00000CAD  A$Sprite$353                       Sprite
     00000CAE  A$Sprite$354                       Sprite
     00000CAF  A$Sprite$355                       Sprite
     00000CB0  A$Sprite$356                       Sprite
     00000CB1  A$Sprite$357                       Sprite
     00000CB2  A$Sprite$358                       Sprite
     00000CB3  A$Sprite$359                       Sprite
     00000CB4  A$Sprite$360                       Sprite
     00000CB5  A$Sprite$361                       Sprite
     00000CB6  A$Sprite$365                       Sprite
     00000CB6  C$Sprite.c$39$1_0$181              Sprite
     00000CB9  A$Sprite$366                       Sprite
     00000CBA  A$Sprite$367                       Sprite
     00000CBB  A$Sprite$368                       Sprite
     00000CBC  A$Sprite$369                       Sprite
     00000CBD  A$Sprite$370                       Sprite
     00000CBE  A$Sprite$371                       Sprite
ASxxxx Linker V03.00/V05.40 + sdld,  page 12.
Hexadecimal  [32-Bits]

Area                                    Addr        Size        Decimal Bytes (Attributes)
--------------------------------        ----        ----        ------- ----- ------------
_CODE                               00000200    00002C59 =       11353. bytes (REL,CON)

      Value  Global                              Global Defined In Module
      -----  --------------------------------   ------------------------
     00000CBF  A$Sprite$372                       Sprite
     00000CC0  A$Sprite$373                       Sprite
     00000CC1  A$Sprite$377                       Sprite
     00000CC1  C$Sprite.c$40$1_0$181              Sprite
     00000CC4  A$Sprite$381                       Sprite
     00000CC6  A$Sprite$386                       Sprite
     00000CC6  C$Sprite.c$41$1_0$181              Sprite
     00000CC6  XG$InitSprite$0$0                  Sprite
     00000CC7  A$Sprite$396                       Sprite
     00000CC7  C$Sprite.c$43$1_0$183              Sprite
     00000CC7  G$SetSpriteAnim$0$0                Sprite
     00000CC7  _SetSpriteAnim                     Sprite
     00000CC9  A$Sprite$397                       Sprite
     00000CCB  A$Sprite$398                       Sprite
     00000CCC  A$Sprite$399                       Sprite
     00000CCD  A$Sprite$403                       Sprite
     00000CCD  C$Sprite.c$44$1_0$183              Sprite
     00000CCE  A$Sprite$404                       Sprite
     00000CCF  A$Sprite$405                       Sprite
     00000CD0  A$Sprite$406                       Sprite
     00000CD1  A$Sprite$407                       Sprite
     00000CD2  A$Sprite$408                       Sprite
     00000CD5  A$Sprite$409                       Sprite
     00000CD6  A$Sprite$410                       Sprite
     00000CD7  A$Sprite$411                       Sprite
     00000CD8  A$Sprite$412                       Sprite
     00000CD9  A$Sprite$413                       Sprite
     00000CDA  A$Sprite$414                       Sprite
     00000CDB  A$Sprite$415                       Sprite
     00000CDC  A$Sprite$416                       Sprite
     00000CDD  A$Sprite$419                       Sprite
     00000CDE  A$Sprite$420                       Sprite
     00000CDF  A$Sprite$421                       Sprite
     00000CE0  A$Sprite$424                       Sprite
     00000CE1  A$Sprite$425                       Sprite
     00000CE2  A$Sprite$426                       Sprite
     00000CE4  A$Sprite$427                       Sprite
     00000CE5  A$Sprite$428                       Sprite
     00000CE6  A$Sprite$429                       Sprite
     00000CE8  A$Sprite$434                       Sprite
     00000CE8  C$Sprite.c$45$2_0$184              Sprite
     00000CE9  A$Sprite$435                       Sprite
     00000CEA  A$Sprite$436                       Sprite
     00000CEB  A$Sprite$437                       Sprite
     00000CEC  A$Sprite$438                       Sprite
     00000CED  A$Sprite$442                       Sprite
     00000CED  C$Sprite.c$46$2_0$184              Sprite
     00000CEE  A$Sprite$443                       Sprite
     00000CEF  A$Sprite$444                       Sprite
     00000CF1  A$Sprite$445                       Sprite
     00000CF2  A$Sprite$446                       Sprite
ASxxxx Linker V03.00/V05.40 + sdld,  page 13.
Hexadecimal  [32-Bits]

Area                                    Addr        Size        Decimal Bytes (Attributes)
--------------------------------        ----        ----        ------- ----- ------------
_CODE                               00000200    00002C59 =       11353. bytes (REL,CON)

      Value  Global                              Global Defined In Module
      -----  --------------------------------   ------------------------
     00000CF3  A$Sprite$447                       Sprite
     00000CF4  A$Sprite$448                       Sprite
     00000CF7  A$Sprite$452                       Sprite
     00000CF7  C$Sprite.c$47$2_0$184              Sprite
     00000CF9  A$Sprite$453                       Sprite
     00000CFA  A$Sprite$454                       Sprite
     00000CFB  A$Sprite$455                       Sprite
     00000CFC  A$Sprite$456                       Sprite
     00000CFF  A$Sprite$457                       Sprite
     00000D00  A$Sprite$458                       Sprite
     00000D01  A$Sprite$459                       Sprite
     00000D02  A$Sprite$460                       Sprite
     00000D03  A$Sprite$461                       Sprite
     00000D04  A$Sprite$465                       Sprite
     00000D04  C$Sprite.c$48$2_0$184              Sprite
     00000D06  A$Sprite$466                       Sprite
     00000D07  A$Sprite$467                       Sprite
     00000D08  A$Sprite$468                       Sprite
     00000D09  A$Sprite$469                       Sprite
     00000D0C  A$Sprite$470                       Sprite
     00000D0D  A$Sprite$471                       Sprite
     00000D0E  A$Sprite$472                       Sprite
     00000D0F  A$Sprite$473                       Sprite
     00000D10  A$Sprite$474                       Sprite
     00000D11  A$Sprite$478                       Sprite
     00000D11  C$Sprite.c$49$2_0$184              Sprite
     00000D13  A$Sprite$479                       Sprite
     00000D14  A$Sprite$480                       Sprite
     00000D15  A$Sprite$481                       Sprite
     00000D16  A$Sprite$482                       Sprite
     00000D19  A$Sprite$483                       Sprite
     00000D1A  A$Sprite$484                       Sprite
     00000D1B  A$Sprite$485                       Sprite
     00000D1C  A$Sprite$486                       Sprite
     00000D1E  A$Sprite$487                       Sprite
     00000D1F  A$Sprite$488                       Sprite
     00000D20  A$Sprite$493                       Sprite
     00000D20  C$Sprite.c$51$1_0$183              Sprite
     00000D22  A$Sprite$494                       Sprite
     00000D23  A$Sprite$495                       Sprite
     00000D24  A$Sprite$496                       Sprite
     00000D25  A$Sprite$506                       Sprite
     00000D25  C$Sprite.c$88$1_0$187              Sprite
     00000D25  G$DrawSprite$0$0                   Sprite
     00000D25  _DrawSprite                        Sprite
     00000D27  A$Sprite$510                       Sprite
     00000D2A  A$Sprite$511                       Sprite
     00000D2C  A$Sprite$512                       Sprite
     00000D2D  A$Sprite$513                       Sprite
     00000D30  A$Sprite$514                       Sprite
     00000D32  A$Sprite$515                       Sprite
ASxxxx Linker V03.00/V05.40 + sdld,  page 14.
Hexadecimal  [32-Bits]

Area                                    Addr        Size        Decimal Bytes (Attributes)
--------------------------------        ----        ----        ------- ----- ------------
_CODE                               00000200    00002C59 =       11353. bytes (REL,CON)

      Value  Global                              Global Defined In Module
      -----  --------------------------------   ------------------------
     00000D33  A$Sprite$516                       Sprite
     00000D34  A$Sprite$517                       Sprite
     00000D35  A$Sprite$518                       Sprite
     00000D36  A$Sprite$519                       Sprite
     00000D39  A$Sprite$520                       Sprite
     00000D3A  A$Sprite$521                       Sprite
     00000D3B  A$Sprite$522                       Sprite
     00000D3C  A$Sprite$523                       Sprite
     00000D3F  A$Sprite$527                       Sprite
     00000D41  A$Sprite$528                       Sprite
     00000D42  A$Sprite$529                       Sprite
     00000D43  A$Sprite$530                       Sprite
     00000D44  A$Sprite$531                       Sprite
     00000D47  A$Sprite$532                       Sprite
     00000D48  A$Sprite$533                       Sprite
     00000D49  A$Sprite$534                       Sprite
     00000D4A  A$Sprite$535                       Sprite
     00000D4B  A$Sprite$536                       Sprite
     00000D4D  A$Sprite$537                       Sprite
     00000D4E  A$Sprite$538                       Sprite
     00000D4F  A$Sprite$539                       Sprite
     00000D50  A$Sprite$540                       Sprite
     00000D51  A$Sprite$541                       Sprite
     00000D52  A$Sprite$542                       Sprite
     00000D53  A$Sprite$543                       Sprite
     00000D56  A$Sprite$544                       Sprite
     00000D57  A$Sprite$545                       Sprite
     00000D58  A$Sprite$546                       Sprite
     00000D59  A$Sprite$547                       Sprite
     00000D5A  A$Sprite$548                       Sprite
     00000D5B  A$Sprite$549                       Sprite
     00000D5E  A$Sprite$550                       Sprite
     00000D5F  A$Sprite$551                       Sprite
     00000D60  A$Sprite$552                       Sprite
     00000D62  A$Sprite$554                       Sprite
     00000D63  A$Sprite$556                       Sprite
     00000D64  A$Sprite$557                       Sprite
     00000D66  A$Sprite$558                       Sprite
     00000D68  A$Sprite$559                       Sprite
     00000D69  A$Sprite$560                       Sprite
     00000D6A  A$Sprite$564                       Sprite
     00000D6D  A$Sprite$565                       Sprite
     00000D6E  A$Sprite$566                       Sprite
     00000D6F  A$Sprite$567                       Sprite
     00000D70  A$Sprite$571                       Sprite
     00000D70  C$Sprite.c$98$2_0$188              Sprite
     00000D73  A$Sprite$572                       Sprite
     00000D74  A$Sprite$573                       Sprite
     00000D75  A$Sprite$574                       Sprite
     00000D77  A$Sprite$575                       Sprite
     00000D78  A$Sprite$576                       Sprite
ASxxxx Linker V03.00/V05.40 + sdld,  page 15.
Hexadecimal  [32-Bits]

Area                                    Addr        Size        Decimal Bytes (Attributes)
--------------------------------        ----        ----        ------- ----- ------------
_CODE                               00000200    00002C59 =       11353. bytes (REL,CON)

      Value  Global                              Global Defined In Module
      -----  --------------------------------   ------------------------
     00000D7B  A$Sprite$580                       Sprite
     00000D7B  C$Sprite.c$99$3_0$189              Sprite
     00000D7E  A$Sprite$581                       Sprite
     00000D7F  A$Sprite$582                       Sprite
     00000D80  A$Sprite$583                       Sprite
     00000D81  A$Sprite$587                       Sprite
     00000D84  A$Sprite$588                       Sprite
     00000D85  A$Sprite$589                       Sprite
     00000D86  A$Sprite$590                       Sprite
     00000D87  A$Sprite$594                       Sprite
     00000D87  C$Sprite.c$99$1_0$187              Sprite
     00000D8A  A$Sprite$595                       Sprite
     00000D8B  A$Sprite$596                       Sprite
     00000D8C  A$Sprite$597                       Sprite
     00000D8D  A$Sprite$601                       Sprite
     00000D8D  C$Sprite.c$100$3_0$189             Sprite
     00000D8E  A$Sprite$602                       Sprite
     00000D90  A$Sprite$603                       Sprite
     00000D91  A$Sprite$604                       Sprite
     00000D94  A$Sprite$605                       Sprite
     00000D95  A$Sprite$606                       Sprite
     00000D96  A$Sprite$607                       Sprite
     00000D97  A$Sprite$609                       Sprite
     00000D98  A$Sprite$612                       Sprite
     00000D99  A$Sprite$613                       Sprite
     00000D9B  A$Sprite$614                       Sprite
     00000D9C  A$Sprite$615                       Sprite
     00000D9D  A$Sprite$616                       Sprite
     00000D9F  A$Sprite$620                       Sprite
     00000D9F  C$Sprite.c$101$4_0$190             Sprite
     00000DA0  A$Sprite$621                       Sprite
     00000DA1  A$Sprite$626                       Sprite
     00000DA4  A$Sprite$627                       Sprite
     00000DA5  A$Sprite$628                       Sprite
     00000DA6  A$Sprite$629                       Sprite
     00000DA7  A$Sprite$633                       Sprite
     00000DA7  C$Sprite.c$104$3_0$189             Sprite
     00000DAA  A$Sprite$634                       Sprite
     00000DAB  A$Sprite$635                       Sprite
     00000DAC  A$Sprite$636                       Sprite
     00000DAD  A$Sprite$638                       Sprite
     00000DAE  A$Sprite$641                       Sprite
     00000DAF  A$Sprite$642                       Sprite
     00000DB1  A$Sprite$643                       Sprite
     00000DB2  A$Sprite$644                       Sprite
     00000DB3  A$Sprite$645                       Sprite
     00000DB5  A$Sprite$646                       Sprite
     00000DB6  A$Sprite$647                       Sprite
     00000DB7  A$Sprite$648                       Sprite
     00000DB9  A$Sprite$649                       Sprite
     00000DBA  A$Sprite$650                       Sprite
ASxxxx Linker V03.00/V05.40 + sdld,  page 16.
Hexadecimal  [32-Bits]

Area                                    Addr        Size        Decimal Bytes (Attributes)
--------------------------------        ----        ----        ------- ----- ------------
_CODE                               00000200    00002C59 =       11353. bytes (REL,CON)

      Value  Global                              Global Defined In Module
      -----  --------------------------------   ------------------------
     00000DBB  A$Sprite$651                       Sprite
     00000DBC  A$Sprite$652                       Sprite
     00000DBD  A$Sprite$653                       Sprite
     00000DBF  A$Sprite$654                       Sprite
     00000DC0  A$Sprite$658                       Sprite
     00000DC0  C$Sprite.c$105$3_0$189             Sprite
     00000DC1  A$Sprite$659                       Sprite
     00000DC2  A$Sprite$660                       Sprite
     00000DC3  A$Sprite$661                       Sprite
     00000DC6  A$Sprite$662                       Sprite
     00000DC7  A$Sprite$666                       Sprite
     00000DCA  A$Sprite$667                       Sprite
     00000DCB  A$Sprite$668                       Sprite
     00000DCC  A$Sprite$669                       Sprite
     00000DCD  A$Sprite$673                       Sprite
     00000DCD  C$Sprite.c$106$3_0$189             Sprite
     00000DD0  A$Sprite$674                       Sprite
     00000DD1  A$Sprite$675                       Sprite
     00000DD2  A$Sprite$676                       Sprite
     00000DD3  A$Sprite$677                       Sprite
     00000DD5  A$Sprite$678                       Sprite
     00000DD6  A$Sprite$679                       Sprite
     00000DD7  A$Sprite$680                       Sprite
     00000DD8  A$Sprite$681                       Sprite
     00000DDA  A$Sprite$682                       Sprite
     00000DDB  A$Sprite$683                       Sprite
     00000DDC  A$Sprite$684                       Sprite
     00000DDD  A$Sprite$685                       Sprite
     00000DDE  A$Sprite$686                       Sprite
     00000DDF  A$Sprite$687                       Sprite
     00000DE0  A$Sprite$688                       Sprite
     00000DE1  A$Sprite$689                       Sprite
     00000DE4  A$Sprite$690                       Sprite
     00000DE5  A$Sprite$691                       Sprite
     00000DE6  A$Sprite$692                       Sprite
     00000DE7  A$Sprite$693                       Sprite
     00000DE8  A$Sprite$694                       Sprite
     00000DEA  A$Sprite$695                       Sprite
     00000DEB  A$Sprite$696                       Sprite
     00000DED  A$Sprite$697                       Sprite
     00000DEE  A$Sprite$698                       Sprite
     00000DEF  A$Sprite$699                       Sprite
     00000DF0  A$Sprite$700                       Sprite
     00000DF1  A$Sprite$701                       Sprite
     00000DF2  A$Sprite$702                       Sprite
     00000DF4  A$Sprite$703                       Sprite
     00000DF5  A$Sprite$704                       Sprite
     00000DF6  A$Sprite$705                       Sprite
     00000DF7  A$Sprite$706                       Sprite
     00000DF8  A$Sprite$707                       Sprite
     00000DF9  A$Sprite$708                       Sprite
ASxxxx Linker V03.00/V05.40 + sdld,  page 17.
Hexadecimal  [32-Bits]

Area                                    Addr        Size        Decimal Bytes (Attributes)
--------------------------------        ----        ----        ------- ----- ------------
_CODE                               00000200    00002C59 =       11353. bytes (REL,CON)

      Value  Global                              Global Defined In Module
      -----  --------------------------------   ------------------------
     00000DFA  A$Sprite$712                       Sprite
     00000DFA  C$Sprite.c$107$3_0$189             Sprite
     00000DFD  A$Sprite$716                       Sprite
     00000E00  A$Sprite$717                       Sprite
     00000E01  A$Sprite$718                       Sprite
     00000E02  A$Sprite$719                       Sprite
     00000E03  A$Sprite$723                       Sprite
     00000E03  C$Sprite.c$97$1_0$187              Sprite
     00000E06  A$Sprite$724                       Sprite
     00000E07  A$Sprite$728                       Sprite
     00000E07  C$Sprite.c$108$3_0$189             Sprite
     00000E08  A$Sprite$729                       Sprite
     00000E0A  A$Sprite$730                       Sprite
     00000E0B  A$Sprite$735                       Sprite
     00000E0E  A$Sprite$736                       Sprite
     00000E10  A$Sprite$737                       Sprite
     00000E11  A$Sprite$738                       Sprite
     00000E14  A$Sprite$739                       Sprite
     00000E16  A$Sprite$743                       Sprite
     00000E16  C$Sprite.c$112$1_0$187             Sprite
     00000E17  A$Sprite$744                       Sprite
     00000E18  A$Sprite$745                       Sprite
     00000E19  A$Sprite$746                       Sprite
     00000E1A  A$Sprite$747                       Sprite
     00000E1D  A$Sprite$748                       Sprite
     00000E1E  A$Sprite$749                       Sprite
     00000E1F  A$Sprite$750                       Sprite
     00000E20  A$Sprite$751                       Sprite
     00000E21  A$Sprite$752                       Sprite
     00000E24  A$Sprite$753                       Sprite
     00000E26  A$Sprite$754                       Sprite
     00000E27  A$Sprite$755                       Sprite
     00000E2A  A$Sprite$756                       Sprite
     00000E2C  A$Sprite$757                       Sprite
     00000E2D  A$Sprite$758                       Sprite
     00000E2E  A$Sprite$759                       Sprite
     00000E2F  A$Sprite$760                       Sprite
     00000E30  A$Sprite$761                       Sprite
     00000E31  A$Sprite$762                       Sprite
     00000E32  A$Sprite$763                       Sprite
     00000E33  A$Sprite$764                       Sprite
     00000E34  A$Sprite$765                       Sprite
     00000E35  A$Sprite$766                       Sprite
     00000E37  A$Sprite$767                       Sprite
     00000E38  A$Sprite$768                       Sprite
     00000E39  A$Sprite$772                       Sprite
     00000E39  C$Sprite.c$113$1_0$187             Sprite
     00000E3B  A$Sprite$773                       Sprite
     00000E3C  A$Sprite$774                       Sprite
     00000E3D  A$Sprite$775                       Sprite
     00000E3E  A$Sprite$776                       Sprite
ASxxxx Linker V03.00/V05.40 + sdld,  page 18.
Hexadecimal  [32-Bits]

Area                                    Addr        Size        Decimal Bytes (Attributes)
--------------------------------        ----        ----        ------- ----- ------------
_CODE                               00000200    00002C59 =       11353. bytes (REL,CON)

      Value  Global                              Global Defined In Module
      -----  --------------------------------   ------------------------
     00000E41  A$Sprite$777                       Sprite
     00000E42  A$Sprite$778                       Sprite
     00000E43  A$Sprite$779                       Sprite
     00000E44  A$Sprite$780                       Sprite
     00000E45  A$Sprite$781                       Sprite
     00000E48  A$Sprite$782                       Sprite
     00000E4A  A$Sprite$783                       Sprite
     00000E4B  A$Sprite$784                       Sprite
     00000E4E  A$Sprite$785                       Sprite
     00000E50  A$Sprite$786                       Sprite
     00000E51  A$Sprite$787                       Sprite
     00000E52  A$Sprite$788                       Sprite
     00000E53  A$Sprite$789                       Sprite
     00000E54  A$Sprite$790                       Sprite
     00000E55  A$Sprite$791                       Sprite
     00000E56  A$Sprite$792                       Sprite
     00000E57  A$Sprite$793                       Sprite
     00000E58  A$Sprite$794                       Sprite
     00000E59  A$Sprite$795                       Sprite
     00000E5B  A$Sprite$796                       Sprite
     00000E5C  A$Sprite$800                       Sprite
     00000E5C  C$Sprite.c$115$1_0$187             Sprite
     00000E5D  A$Sprite$801                       Sprite
     00000E5E  A$Sprite$802                       Sprite
     00000E5F  A$Sprite$803                       Sprite
     00000E60  A$Sprite$804                       Sprite
     00000E61  A$Sprite$805                       Sprite
     00000E62  A$Sprite$806                       Sprite
     00000E65  A$Sprite$807                       Sprite
     00000E66  A$Sprite$808                       Sprite
     00000E67  A$Sprite$809                       Sprite
     00000E68  A$Sprite$810                       Sprite
     00000E69  A$Sprite$811                       Sprite
     00000E6B  A$Sprite$812                       Sprite
     00000E6C  A$Sprite$813                       Sprite
     00000E6E  A$Sprite$814                       Sprite
     00000E71  A$Sprite$815                       Sprite
     00000E73  A$Sprite$816                       Sprite
     00000E74  A$Sprite$817                       Sprite
     00000E75  A$Sprite$818                       Sprite
     00000E76  A$Sprite$819                       Sprite
     00000E79  A$Sprite$820                       Sprite
     00000E7A  A$Sprite$821                       Sprite
     00000E7B  A$Sprite$822                       Sprite
     00000E7C  A$Sprite$823                       Sprite
     00000E7D  A$Sprite$824                       Sprite
     00000E7F  A$Sprite$825                       Sprite
     00000E80  A$Sprite$826                       Sprite
     00000E82  A$Sprite$827                       Sprite
     00000E85  A$Sprite$831                       Sprite
     00000E85  C$Sprite.c$116$2_0$191             Sprite
ASxxxx Linker V03.00/V05.40 + sdld,  page 19.
Hexadecimal  [32-Bits]

Area                                    Addr        Size        Decimal Bytes (Attributes)
--------------------------------        ----        ----        ------- ----- ------------
_CODE                               00000200    00002C59 =       11353. bytes (REL,CON)

      Value  Global                              Global Defined In Module
      -----  --------------------------------   ------------------------
     00000E87  A$Sprite$832                       Sprite
     00000E88  A$Sprite$833                       Sprite
     00000E89  A$Sprite$834                       Sprite
     00000E8A  A$Sprite$835                       Sprite
     00000E8D  A$Sprite$836                       Sprite
     00000E8E  A$Sprite$837                       Sprite
     00000E8F  A$Sprite$838                       Sprite
     00000E90  A$Sprite$839                       Sprite
     00000E92  A$Sprite$840                       Sprite
     00000E93  A$Sprite$841                       Sprite
     00000E94  A$Sprite$842                       Sprite
     00000E95  A$Sprite$843                       Sprite
     00000E97  A$Sprite$844                       Sprite
     00000E98  A$Sprite$848                       Sprite
     00000E98  C$Sprite.c$117$2_0$191             Sprite
     00000E9A  A$Sprite$849                       Sprite
     00000E9B  A$Sprite$850                       Sprite
     00000E9C  A$Sprite$851                       Sprite
     00000E9D  A$Sprite$852                       Sprite
     00000EA0  A$Sprite$853                       Sprite
     00000EA1  A$Sprite$854                       Sprite
     00000EA2  A$Sprite$855                       Sprite
     00000EA3  A$Sprite$859                       Sprite
     00000EA3  C$Sprite.c$118$2_0$191             Sprite
     00000EA6  A$Sprite$860                       Sprite
     00000EA8  A$Sprite$861                       Sprite
     00000EA9  A$Sprite$865                       Sprite
     00000EA9  C$Sprite.c$119$2_0$191             Sprite
     00000EAB  A$Sprite$866                       Sprite
     00000EAC  A$Sprite$867                       Sprite
     00000EAD  A$Sprite$868                       Sprite
     00000EAE  A$Sprite$869                       Sprite
     00000EAF  A$Sprite$870                       Sprite
     00000EB0  A$Sprite$871                       Sprite
     00000EB1  A$Sprite$872                       Sprite
     00000EB2  A$Sprite$873                       Sprite
     00000EB5  A$Sprite$874                       Sprite
     00000EB6  A$Sprite$875                       Sprite
     00000EB7  A$Sprite$879                       Sprite
     00000EBA  A$Sprite$880                       Sprite
     00000EBC  A$Sprite$881                       Sprite
     00000EBD  A$Sprite$882                       Sprite
     00000EC0  A$Sprite$883                       Sprite
     00000EC2  A$Sprite$887                       Sprite
     00000EC3  A$Sprite$888                       Sprite
     00000EC4  A$Sprite$889                       Sprite
     00000EC5  A$Sprite$890                       Sprite
     00000EC6  A$Sprite$891                       Sprite
     00000EC9  A$Sprite$892                       Sprite
     00000ECA  A$Sprite$893                       Sprite
     00000ECB  A$Sprite$894                       Sprite
ASxxxx Linker V03.00/V05.40 + sdld,  page 20.
Hexadecimal  [32-Bits]

Area                                    Addr        Size        Decimal Bytes (Attributes)
--------------------------------        ----        ----        ------- ----- ------------
_CODE                               00000200    00002C59 =       11353. bytes (REL,CON)

      Value  Global                              Global Defined In Module
      -----  --------------------------------   ------------------------
     00000ECC  A$Sprite$895                       Sprite
     00000ECD  A$Sprite$896                       Sprite
     00000ECF  A$Sprite$897                       Sprite
     00000ED0  A$Sprite$901                       Sprite
     00000ED0  C$Sprite.c$118$1_0$187             Sprite
     00000ED3  A$Sprite$902                       Sprite
     00000ED5  A$Sprite$906                       Sprite
     00000ED6  A$Sprite$907                       Sprite
     00000ED7  A$Sprite$908                       Sprite
     00000ED9  A$Sprite$909                       Sprite
     00000EDA  A$Sprite$910                       Sprite
     00000EDC  A$Sprite$911                       Sprite
     00000EDD  A$Sprite$915                       Sprite
     00000EDD  C$Sprite.c$106$1_0$187             Sprite
     00000EDF  A$Sprite$916                       Sprite
     00000EE0  A$Sprite$917                       Sprite
     00000EE1  A$Sprite$918                       Sprite
     00000EE2  A$Sprite$919                       Sprite
     00000EE5  A$Sprite$920                       Sprite
     00000EE6  A$Sprite$921                       Sprite
     00000EE7  A$Sprite$922                       Sprite
     00000EE8  A$Sprite$923                       Sprite
     00000EEA  A$Sprite$924                       Sprite
     00000EEB  A$Sprite$925                       Sprite
     00000EEC  A$Sprite$926                       Sprite
     00000EED  A$Sprite$927                       Sprite
     00000EEF  A$Sprite$928                       Sprite
     00000EF0  A$Sprite$932                       Sprite
     00000EF0  C$Sprite.c$122$1_0$187             Sprite
     00000EF2  A$Sprite$933                       Sprite
     00000EF3  A$Sprite$934                       Sprite
     00000EF4  A$Sprite$935                       Sprite
     00000EF5  A$Sprite$936                       Sprite
     00000EF8  A$Sprite$937                       Sprite
     00000EF9  A$Sprite$938                       Sprite
     00000EFA  A$Sprite$939                       Sprite
     00000EFB  A$Sprite$940                       Sprite
     00000EFD  A$Sprite$941                       Sprite
     00000EFE  A$Sprite$942                       Sprite
     00000EFF  A$Sprite$943                       Sprite
     00000F00  A$Sprite$944                       Sprite
     00000F02  A$Sprite$945                       Sprite
     00000F03  A$Sprite$949                       Sprite
     00000F05  A$Sprite$950                       Sprite
     00000F06  A$Sprite$951                       Sprite
     00000F07  A$Sprite$952                       Sprite
     00000F09  A$Sprite$956                       Sprite
     00000F09  C$Sprite.c$123$1_0$187             Sprite
     00000F0B  A$Sprite$957                       Sprite
     00000F0C  A$Sprite$958                       Sprite
     00000F0D  A$Sprite$959                       Sprite
ASxxxx Linker V03.00/V05.40 + sdld,  page 21.
Hexadecimal  [32-Bits]

Area                                    Addr        Size        Decimal Bytes (Attributes)
--------------------------------        ----        ----        ------- ----- ------------
_CODE                               00000200    00002C59 =       11353. bytes (REL,CON)

      Value  Global                              Global Defined In Module
      -----  --------------------------------   ------------------------
     00000F0E  A$Sprite$960                       Sprite
     00000F11  A$Sprite$961                       Sprite
     00000F12  A$Sprite$962                       Sprite
     00000F13  A$Sprite$963                       Sprite
     00000F14  A$Sprite$967                       Sprite
     00000F16  A$Sprite$968                       Sprite
     00000F17  A$Sprite$969                       Sprite
     00000F18  A$Sprite$970                       Sprite
     00000F1A  A$Sprite$974                       Sprite
     00000F1A  C$Sprite.c$124$1_0$187             Sprite
     00000F1C  A$Sprite$975                       Sprite
     00000F1D  A$Sprite$976                       Sprite
     00000F1E  A$Sprite$977                       Sprite
     00000F1F  A$Sprite$978                       Sprite
     00000F22  A$Sprite$979                       Sprite
     00000F23  A$Sprite$980                       Sprite
     00000F24  A$Sprite$981                       Sprite
     00000F25  A$Sprite$985                       Sprite
     00000F25  C$Sprite.c$120$2_0$191             Sprite
     00000F27  A$Sprite$986                       Sprite
     00000F28  A$Sprite$987                       Sprite
     00000F2A  A$Sprite$988                       Sprite
     00000F2D  A$Sprite$989                       Sprite
     00000F2F  A$Sprite$990                       Sprite
     00000F30  A$Sprite$991                       Sprite
     00000F32  A$Sprite$992                       Sprite
     00000F35  A$Sprite$993                       Sprite
     00000F38  A$Sprite$998                       Sprite
     00000F38  C$Sprite.c$122$3_0$192             Sprite
     00000F3A  A$Sprite$999                       Sprite
     00000F3B  A$Sprite$1000                      Sprite
     00000F3C  A$Sprite$1001                      Sprite
     00000F3D  A$Sprite$1002                      Sprite
     00000F3F  A$Sprite$1003                      Sprite
     00000F40  A$Sprite$1004                      Sprite
     00000F41  A$Sprite$1005                      Sprite
     00000F42  A$Sprite$1006                      Sprite
     00000F43  A$Sprite$1007                      Sprite
     00000F46  A$Sprite$1008                      Sprite
     00000F48  A$Sprite$1009                      Sprite
     00000F49  A$Sprite$1010                      Sprite
     00000F4A  A$Sprite$1011                      Sprite
     00000F4B  A$Sprite$1012                      Sprite
     00000F4C  A$Sprite$1013                      Sprite
     00000F4D  A$Sprite$1016                      Sprite
     00000F4E  A$Sprite$1017                      Sprite
     00000F4F  A$Sprite$1019                      Sprite
     00000F50  A$Sprite$1020                      Sprite
     00000F51  A$Sprite$1021                      Sprite
     00000F54  A$Sprite$1022                      Sprite
     00000F55  A$Sprite$1023                      Sprite
ASxxxx Linker V03.00/V05.40 + sdld,  page 22.
Hexadecimal  [32-Bits]

Area                                    Addr        Size        Decimal Bytes (Attributes)
--------------------------------        ----        ----        ------- ----- ------------
_CODE                               00000200    00002C59 =       11353. bytes (REL,CON)

      Value  Global                              Global Defined In Module
      -----  --------------------------------   ------------------------
     00000F56  A$Sprite$1024                      Sprite
     00000F57  A$Sprite$1026                      Sprite
     00000F5A  A$Sprite$1027                      Sprite
     00000F5C  A$Sprite$1029                      Sprite
     00000F5D  A$Sprite$1030                      Sprite
     00000F5E  A$Sprite$1031                      Sprite
     00000F5F  A$Sprite$1032                      Sprite
     00000F60  A$Sprite$1033                      Sprite
     00000F62  A$Sprite$1034                      Sprite
     00000F63  A$Sprite$1035                      Sprite
     00000F66  A$Sprite$1039                      Sprite
     00000F66  C$Sprite.c$122$5_0$197             Sprite
     00000F69  A$Sprite$1040                      Sprite
     00000F6A  A$Sprite$1041                      Sprite
     00000F6B  A$Sprite$1042                      Sprite
     00000F6E  A$Sprite$1047                      Sprite
     00000F6E  C$Sprite.c$123$3_0$192             Sprite
     00000F6F  A$Sprite$1048                      Sprite
     00000F71  A$Sprite$1049                      Sprite
     00000F72  A$Sprite$1050                      Sprite
     00000F73  A$Sprite$1051                      Sprite
     00000F74  A$Sprite$1052                      Sprite
     00000F76  A$Sprite$1053                      Sprite
     00000F77  A$Sprite$1054                      Sprite
     00000F78  A$Sprite$1055                      Sprite
     00000F79  A$Sprite$1056                      Sprite
     00000F7A  A$Sprite$1057                      Sprite
     00000F7D  A$Sprite$1058                      Sprite
     00000F7F  A$Sprite$1059                      Sprite
     00000F80  A$Sprite$1060                      Sprite
     00000F81  A$Sprite$1061                      Sprite
     00000F82  A$Sprite$1062                      Sprite
     00000F83  A$Sprite$1063                      Sprite
     00000F84  A$Sprite$1064                      Sprite
     00000F85  A$Sprite$1065                      Sprite
     00000F86  A$Sprite$1066                      Sprite
     00000F87  A$Sprite$1067                      Sprite
     00000F89  A$Sprite$1068                      Sprite
     00000F8A  A$Sprite$1069                      Sprite
     00000F8C  A$Sprite$1070                      Sprite
     00000F8D  A$Sprite$1071                      Sprite
     00000F8E  A$Sprite$1073                      Sprite
     00000F91  A$Sprite$1074                      Sprite
     00000F92  A$Sprite$1075                      Sprite
     00000F93  A$Sprite$1076                      Sprite
     00000F94  A$Sprite$1078                      Sprite
     00000F97  A$Sprite$1079                      Sprite
     00000F99  A$Sprite$1081                      Sprite
     00000F9B  A$Sprite$1082                      Sprite
     00000F9C  A$Sprite$1083                      Sprite
     00000F9E  A$Sprite$1084                      Sprite
ASxxxx Linker V03.00/V05.40 + sdld,  page 23.
Hexadecimal  [32-Bits]

Area                                    Addr        Size        Decimal Bytes (Attributes)
--------------------------------        ----        ----        ------- ----- ------------
_CODE                               00000200    00002C59 =       11353. bytes (REL,CON)

      Value  Global                              Global Defined In Module
      -----  --------------------------------   ------------------------
     00000FA0  A$Sprite$1085                      Sprite
     00000FA2  A$Sprite$1086                      Sprite
     00000FA5  A$Sprite$1087                      Sprite
     00000FA7  A$Sprite$1089                      Sprite
     00000FAA  A$Sprite$1091                      Sprite
     00000FAB  A$Sprite$1092                      Sprite
     00000FAC  A$Sprite$1093                      Sprite
     00000FAD  A$Sprite$1094                      Sprite
     00000FAE  A$Sprite$1095                      Sprite
     00000FAF  A$Sprite$1096                      Sprite
     00000FB0  A$Sprite$1097                      Sprite
     00000FB2  A$Sprite$1098                      Sprite
     00000FB3  A$Sprite$1099                      Sprite
     00000FB6  A$Sprite$1103                      Sprite
     00000FB6  C$Sprite.c$123$5_0$200             Sprite
     00000FB9  A$Sprite$1104                      Sprite
     00000FBA  A$Sprite$1105                      Sprite
     00000FBB  A$Sprite$1106                      Sprite
     00000FBE  A$Sprite$1111                      Sprite
     00000FBE  C$Sprite.c$124$3_0$192             Sprite
     00000FC0  A$Sprite$1112                      Sprite
     00000FC1  A$Sprite$1113                      Sprite
     00000FC2  A$Sprite$1114                      Sprite
     00000FC3  A$Sprite$1115                      Sprite
     00000FC4  A$Sprite$1116                      Sprite
     00000FC5  A$Sprite$1117                      Sprite
     00000FC7  A$Sprite$1118                      Sprite
     00000FC8  A$Sprite$1119                      Sprite
     00000FC9  A$Sprite$1120                      Sprite
     00000FCA  A$Sprite$1121                      Sprite
     00000FCB  A$Sprite$1122                      Sprite
     00000FCE  A$Sprite$1123                      Sprite
     00000FD0  A$Sprite$1124                      Sprite
     00000FD1  A$Sprite$1125                      Sprite
     00000FD2  A$Sprite$1126                      Sprite
     00000FD3  A$Sprite$1127                      Sprite
     00000FD4  A$Sprite$1128                      Sprite
     00000FD5  A$Sprite$1131                      Sprite
     00000FD6  A$Sprite$1132                      Sprite
     00000FD7  A$Sprite$1134                      Sprite
     00000FD8  A$Sprite$1135                      Sprite
     00000FD9  A$Sprite$1136                      Sprite
     00000FDC  A$Sprite$1137                      Sprite
     00000FDD  A$Sprite$1138                      Sprite
     00000FDE  A$Sprite$1139                      Sprite
     00000FDF  A$Sprite$1141                      Sprite
     00000FE2  A$Sprite$1142                      Sprite
     00000FE4  A$Sprite$1144                      Sprite
     00000FE5  A$Sprite$1145                      Sprite
     00000FE7  A$Sprite$1146                      Sprite
     00000FE8  A$Sprite$1147                      Sprite
ASxxxx Linker V03.00/V05.40 + sdld,  page 24.
Hexadecimal  [32-Bits]

Area                                    Addr        Size        Decimal Bytes (Attributes)
--------------------------------        ----        ----        ------- ----- ------------
_CODE                               00000200    00002C59 =       11353. bytes (REL,CON)

      Value  Global                              Global Defined In Module
      -----  --------------------------------   ------------------------
     00000FEA  A$Sprite$1148                      Sprite
     00000FEB  A$Sprite$1149                      Sprite
     00000FEC  A$Sprite$1150                      Sprite
     00000FEE  A$Sprite$1151                      Sprite
     00000FEF  A$Sprite$1152                      Sprite
     00000FF2  A$Sprite$1156                      Sprite
     00000FF2  C$Sprite.c$124$5_0$203             Sprite
     00000FF5  A$Sprite$1157                      Sprite
     00000FF6  A$Sprite$1158                      Sprite
     00000FF7  A$Sprite$1159                      Sprite
     00000FF9  A$Sprite$1164                      Sprite
     00000FF9  C$Sprite.c$125$3_0$192             Sprite
     00000FFA  A$Sprite$1165                      Sprite
     00000FFC  A$Sprite$1166                      Sprite
     00000FFD  A$Sprite$1167                      Sprite
     00000FFE  A$Sprite$1168                      Sprite
     00000FFF  A$Sprite$1169                      Sprite
     00001000  A$Sprite$1170                      Sprite
     00001001  A$Sprite$1171                      Sprite
     00001003  A$Sprite$1172                      Sprite
     00001004  A$Sprite$1173                      Sprite
     00001005  A$Sprite$1174                      Sprite
     00001006  A$Sprite$1175                      Sprite
     00001007  A$Sprite$1176                      Sprite
     0000100A  A$Sprite$1177                      Sprite
     0000100C  A$Sprite$1178                      Sprite
     0000100D  A$Sprite$1179                      Sprite
     0000100E  A$Sprite$1180                      Sprite
     0000100F  A$Sprite$1181                      Sprite
     00001010  A$Sprite$1182                      Sprite
     00001011  A$Sprite$1183                      Sprite
     00001012  A$Sprite$1184                      Sprite
     00001013  A$Sprite$1185                      Sprite
     00001014  A$Sprite$1186                      Sprite
     00001015  A$Sprite$1187                      Sprite
     00001016  A$Sprite$1188                      Sprite
     00001018  A$Sprite$1189                      Sprite
     00001019  A$Sprite$1190                      Sprite
     0000101B  A$Sprite$1191                      Sprite
     0000101C  A$Sprite$1192                      Sprite
     0000101D  A$Sprite$1194                      Sprite
     00001020  A$Sprite$1195                      Sprite
     00001021  A$Sprite$1196                      Sprite
     00001022  A$Sprite$1197                      Sprite
     00001023  A$Sprite$1199                      Sprite
     00001026  A$Sprite$1200                      Sprite
     00001028  A$Sprite$1202                      Sprite
     0000102A  A$Sprite$1203                      Sprite
     0000102B  A$Sprite$1204                      Sprite
     0000102D  A$Sprite$1205                      Sprite
     0000102E  A$Sprite$1206                      Sprite
ASxxxx Linker V03.00/V05.40 + sdld,  page 25.
Hexadecimal  [32-Bits]

Area                                    Addr        Size        Decimal Bytes (Attributes)
--------------------------------        ----        ----        ------- ----- ------------
_CODE                               00000200    00002C59 =       11353. bytes (REL,CON)

      Value  Global                              Global Defined In Module
      -----  --------------------------------   ------------------------
     00001030  A$Sprite$1207                      Sprite
     00001032  A$Sprite$1208                      Sprite
     00001034  A$Sprite$1209                      Sprite
     00001036  A$Sprite$1210                      Sprite
     00001038  A$Sprite$1211                      Sprite
     00001039  A$Sprite$1212                      Sprite
     0000103A  A$Sprite$1213                      Sprite
     0000103B  A$Sprite$1214                      Sprite
     0000103D  A$Sprite$1216                      Sprite
     0000103F  A$Sprite$1217                      Sprite
     00001041  A$Sprite$1218                      Sprite
     00001042  A$Sprite$1219                      Sprite
     00001043  A$Sprite$1220                      Sprite
     00001044  A$Sprite$1222                      Sprite
     00001046  A$Sprite$1223                      Sprite
     00001047  A$Sprite$1224                      Sprite
     00001048  A$Sprite$1225                      Sprite
     00001049  A$Sprite$1226                      Sprite
     0000104A  A$Sprite$1227                      Sprite
     0000104B  A$Sprite$1228                      Sprite
     0000104C  A$Sprite$1229                      Sprite
     0000104D  A$Sprite$1230                      Sprite
     0000104F  A$Sprite$1231                      Sprite
     00001051  A$Sprite$1232                      Sprite
     00001052  A$Sprite$1233                      Sprite
     00001054  A$Sprite$1234                      Sprite
     00001055  A$Sprite$1235                      Sprite
     00001056  A$Sprite$1236                      Sprite
     00001057  A$Sprite$1237                      Sprite
     00001058  A$Sprite$1238                      Sprite
     0000105B  A$Sprite$1242                      Sprite
     0000105B  C$Sprite.c$125$5_0$206             Sprite
     0000105E  A$Sprite$1243                      Sprite
     0000105F  A$Sprite$1244                      Sprite
     00001060  A$Sprite$1252                      Sprite
     00001060  C$Sprite.c$126$2_0$191             Sprite
     00001060  C$Sprite.c$127$2_0$191             Sprite
     00001063  A$Sprite$1256                      Sprite
     00001063  C$Sprite.c$96$1_0$187              Sprite
     00001066  A$Sprite$1257                      Sprite
     00001067  A$Sprite$1258                      Sprite
     00001068  A$Sprite$1259                      Sprite
     00001069  A$Sprite$1263                      Sprite
     00001069  C$Sprite.c$130$1_0$187             Sprite
     0000106C  A$Sprite$1264                      Sprite
     0000106D  A$Sprite$1265                      Sprite
     0000106E  A$Sprite$1266                      Sprite
     0000106F  A$Sprite$1267                      Sprite
     00001070  A$Sprite$1268                      Sprite
     00001073  A$Sprite$1272                      Sprite
     00001073  C$Sprite.c$131$3_0$193             Sprite
ASxxxx Linker V03.00/V05.40 + sdld,  page 26.
Hexadecimal  [32-Bits]

Area                                    Addr        Size        Decimal Bytes (Attributes)
--------------------------------        ----        ----        ------- ----- ------------
_CODE                               00000200    00002C59 =       11353. bytes (REL,CON)

      Value  Global                              Global Defined In Module
      -----  --------------------------------   ------------------------
     00001076  A$Sprite$1273                      Sprite
     00001078  A$Sprite$1274                      Sprite
     00001079  A$Sprite$1275                      Sprite
     0000107A  A$Sprite$1276                      Sprite
     0000107B  A$Sprite$1277                      Sprite
     0000107C  A$Sprite$1278                      Sprite
     0000107D  A$Sprite$1279                      Sprite
     0000107E  A$Sprite$1280                      Sprite
     0000107F  A$Sprite$1281                      Sprite
     00001080  A$Sprite$1282                      Sprite
     00001083  A$Sprite$1283                      Sprite
     00001085  A$Sprite$1284                      Sprite
     00001088  A$Sprite$1289                      Sprite
     00001088  C$Sprite.c$135$1_0$187             Sprite
     0000108A  A$Sprite$1290                      Sprite
     0000108B  A$Sprite$1291                      Sprite
     0000108C  A$Sprite$1292                      Sprite
     0000108D  A$Sprite$1293                      Sprite
     00001090  A$Sprite$1294                      Sprite
     00001091  A$Sprite$1295                      Sprite
     00001092  A$Sprite$1296                      Sprite
     00001093  A$Sprite$1297                      Sprite
     00001094  A$Sprite$1298                      Sprite
     00001096  A$Sprite$1299                      Sprite
     00001097  A$Sprite$1300                      Sprite
     00001098  A$Sprite$1301                      Sprite
     00001099  A$Sprite$1302                      Sprite
     0000109A  A$Sprite$1303                      Sprite
     0000109B  A$Sprite$1304                      Sprite
     0000109C  A$Sprite$1305                      Sprite
     0000109F  A$Sprite$1306                      Sprite
     000010A0  A$Sprite$1307                      Sprite
     000010A1  A$Sprite$1308                      Sprite
     000010A2  A$Sprite$1309                      Sprite
     000010A3  A$Sprite$1310                      Sprite
     000010A4  A$Sprite$1311                      Sprite
     000010A5  A$Sprite$1312                      Sprite
     000010A8  A$Sprite$1313                      Sprite
     000010A9  A$Sprite$1314                      Sprite
     000010AA  A$Sprite$1315                      Sprite
     000010AB  A$Sprite$1316                      Sprite
     000010AC  A$Sprite$1317                      Sprite
     000010AD  A$Sprite$1318                      Sprite
     000010AF  A$Sprite$1322                      Sprite
     000010AF  C$Sprite.c$136$1_0$187             Sprite
     000010B1  A$Sprite$1323                      Sprite
     000010B2  A$Sprite$1324                      Sprite
     000010B3  A$Sprite$1325                      Sprite
     000010B4  A$Sprite$1326                      Sprite
     000010B7  A$Sprite$1327                      Sprite
     000010B8  A$Sprite$1328                      Sprite
ASxxxx Linker V03.00/V05.40 + sdld,  page 27.
Hexadecimal  [32-Bits]

Area                                    Addr        Size        Decimal Bytes (Attributes)
--------------------------------        ----        ----        ------- ----- ------------
_CODE                               00000200    00002C59 =       11353. bytes (REL,CON)

      Value  Global                              Global Defined In Module
      -----  --------------------------------   ------------------------
     000010B9  A$Sprite$1329                      Sprite
     000010BA  A$Sprite$1330                      Sprite
     000010BB  A$Sprite$1331                      Sprite
     000010BC  A$Sprite$1332                      Sprite
     000010BD  A$Sprite$1333                      Sprite
     000010BF  A$Sprite$1334                      Sprite
     000010C0  A$Sprite$1335                      Sprite
     000010C1  A$Sprite$1336                      Sprite
     000010C2  A$Sprite$1337                      Sprite
     000010C3  A$Sprite$1338                      Sprite
     000010C4  A$Sprite$1339                      Sprite
     000010C5  A$Sprite$1340                      Sprite
     000010C6  A$Sprite$1341                      Sprite
     000010C7  A$Sprite$1342                      Sprite
     000010C8  A$Sprite$1343                      Sprite
     000010C9  A$Sprite$1344                      Sprite
     000010CA  A$Sprite$1345                      Sprite
     000010CB  A$Sprite$1346                      Sprite
     000010CC  A$Sprite$1347                      Sprite
     000010CD  A$Sprite$1348                      Sprite
     000010CE  A$Sprite$1349                      Sprite
     000010CF  A$Sprite$1350                      Sprite
     000010D1  A$Sprite$1351                      Sprite
     000010D2  A$Sprite$1352                      Sprite
     000010D3  A$Sprite$1353                      Sprite
     000010D4  A$Sprite$1354                      Sprite
     000010D6  A$Sprite$1355                      Sprite
     000010D7  A$Sprite$1356                      Sprite
     000010D8  A$Sprite$1357                      Sprite
     000010D9  A$Sprite$1358                      Sprite
     000010DA  A$Sprite$1359                      Sprite
     000010DD  A$Sprite$1360                      Sprite
     000010DE  A$Sprite$1361                      Sprite
     000010DF  A$Sprite$1362                      Sprite
     000010E0  A$Sprite$1363                      Sprite
     000010E2  A$Sprite$1364                      Sprite
     000010E3  A$Sprite$1365                      Sprite
     000010E4  A$Sprite$1366                      Sprite
     000010E5  A$Sprite$1367                      Sprite
     000010E7  A$Sprite$1368                      Sprite
     000010E8  A$Sprite$1369                      Sprite
     000010E9  A$Sprite$1370                      Sprite
     000010EA  A$Sprite$1371                      Sprite
     000010EB  A$Sprite$1372                      Sprite
     000010EC  A$Sprite$1373                      Sprite
     000010ED  A$Sprite$1374                      Sprite
     000010EE  A$Sprite$1375                      Sprite
     000010F0  A$Sprite$1376                      Sprite
     000010F1  A$Sprite$1377                      Sprite
     000010F3  A$Sprite$1378                      Sprite
     000010F4  A$Sprite$1379                      Sprite
ASxxxx Linker V03.00/V05.40 + sdld,  page 28.
Hexadecimal  [32-Bits]

Area                                    Addr        Size        Decimal Bytes (Attributes)
--------------------------------        ----        ----        ------- ----- ------------
_CODE                               00000200    00002C59 =       11353. bytes (REL,CON)

      Value  Global                              Global Defined In Module
      -----  --------------------------------   ------------------------
     000010F5  A$Sprite$1380                      Sprite
     000010F6  A$Sprite$1381                      Sprite
     000010F7  A$Sprite$1382                      Sprite
     000010FA  A$Sprite$1383                      Sprite
     000010FB  A$Sprite$1384                      Sprite
     000010FC  A$Sprite$1385                      Sprite
     000010FD  A$Sprite$1386                      Sprite
     000010FF  A$Sprite$1387                      Sprite
     00001100  A$Sprite$1388                      Sprite
     00001101  A$Sprite$1389                      Sprite
     00001102  A$Sprite$1390                      Sprite
     00001104  A$Sprite$1391                      Sprite
     00001105  A$Sprite$1392                      Sprite
     00001107  A$Sprite$1393                      Sprite
     00001108  A$Sprite$1394                      Sprite
     00001109  A$Sprite$1395                      Sprite
     0000110B  A$Sprite$1396                      Sprite
     0000110C  A$Sprite$1397                      Sprite
     0000110D  A$Sprite$1398                      Sprite
     0000110E  A$Sprite$1399                      Sprite
     0000110F  A$Sprite$1400                      Sprite
     00001110  A$Sprite$1401                      Sprite
     00001111  A$Sprite$1402                      Sprite
     00001113  A$Sprite$1407                      Sprite
     00001113  C$Sprite.c$138$3_0$195             Sprite
     00001116  A$Sprite$1408                      Sprite
     00001118  A$Sprite$1409                      Sprite
     00001119  A$Sprite$1410                      Sprite
     0000111B  A$Sprite$1411                      Sprite
     0000111C  A$Sprite$1412                      Sprite
     0000111D  A$Sprite$1413                      Sprite
     0000111F  A$Sprite$1414                      Sprite
     00001122  A$Sprite$1419                      Sprite
     00001124  A$Sprite$1424                      Sprite
     00001124  C$Sprite.c$141$1_0$187             Sprite
     00001124  XG$DrawSprite$0$0                  Sprite
     00001125  A$Sprite$1434                      Sprite
     00001125  C$Sprite.c$144$1_0$209             Sprite
     00001125  G$TranslateSprite$0$0              Sprite
     00001125  _TranslateSprite                   Sprite
     00001127  A$Sprite$1435                      Sprite
     00001128  A$Sprite$1439                      Sprite
     00001128  C$Sprite.c$145$2_0$209             Sprite
     0000112A  A$Sprite$1440                      Sprite
     0000112C  A$Sprite$1444                      Sprite
     0000112D  A$Sprite$1445                      Sprite
     00001130  A$Sprite$1446                      Sprite
     00001131  A$Sprite$1447                      Sprite
     00001132  A$Sprite$1448                      Sprite
     00001133  A$Sprite$1449                      Sprite
     00001134  A$Sprite$1450                      Sprite
ASxxxx Linker V03.00/V05.40 + sdld,  page 29.
Hexadecimal  [32-Bits]

Area                                    Addr        Size        Decimal Bytes (Attributes)
--------------------------------        ----        ----        ------- ----- ------------
_CODE                               00000200    00002C59 =       11353. bytes (REL,CON)

      Value  Global                              Global Defined In Module
      -----  --------------------------------   ------------------------
     00001136  A$Sprite$1451                      Sprite
     00001137  A$Sprite$1452                      Sprite
     00001138  A$Sprite$1453                      Sprite
     00001139  A$Sprite$1454                      Sprite
     0000113B  A$Sprite$1455                      Sprite
     0000113C  A$Sprite$1456                      Sprite
     0000113D  A$Sprite$1457                      Sprite
     00001140  A$Sprite$1458                      Sprite
     00001141  A$Sprite$1459                      Sprite
     00001142  A$Sprite$1460                      Sprite
     00001143  A$Sprite$1461                      Sprite
     00001144  A$Sprite$1462                      Sprite
     00001146  A$Sprite$1463                      Sprite
     00001147  A$Sprite$1464                      Sprite
     00001148  A$Sprite$1465                      Sprite
     00001149  A$Sprite$1466                      Sprite
     0000114B  A$Sprite$1470                      Sprite
     0000114B  C$Sprite.c$160$1_0$209             Sprite
     0000114C  A$Sprite$1471                      Sprite
     0000114D  A$Sprite$1472                      Sprite
     0000114E  A$Sprite$1473                      Sprite
     0000114F  A$Sprite$1474                      Sprite
     00001150  A$Sprite$1475                      Sprite
     00001151  A$Sprite$1479                      Sprite
     00001152  A$Sprite$1480                      Sprite
     00001155  A$Sprite$1481                      Sprite
     00001156  A$Sprite$1482                      Sprite
     00001157  A$Sprite$1483                      Sprite
     00001158  A$Sprite$1484                      Sprite
     00001159  A$Sprite$1485                      Sprite
     0000115B  A$Sprite$1486                      Sprite
     0000115C  A$Sprite$1487                      Sprite
     0000115D  A$Sprite$1488                      Sprite
     0000115E  A$Sprite$1489                      Sprite
     00001160  A$Sprite$1490                      Sprite
     00001161  A$Sprite$1494                      Sprite
     00001161  C$Sprite.c$182$1_0$209             Sprite
     00001164  A$Sprite$1495                      Sprite
     00001165  A$Sprite$1496                      Sprite
     00001166  A$Sprite$1497                      Sprite
     00001167  A$Sprite$1498                      Sprite
     00001169  A$Sprite$1499                      Sprite
     0000116A  A$Sprite$1500                      Sprite
     0000116B  A$Sprite$1501                      Sprite
     0000116C  A$Sprite$1502                      Sprite
     0000116E  A$Sprite$1503                      Sprite
     0000116F  A$Sprite$1507                      Sprite
     0000116F  C$Sprite.c$151$1_0$209             Sprite
     00001170  A$Sprite$1508                      Sprite
     00001171  A$Sprite$1509                      Sprite
     00001174  A$Sprite$1513                      Sprite
ASxxxx Linker V03.00/V05.40 + sdld,  page 30.
Hexadecimal  [32-Bits]

Area                                    Addr        Size        Decimal Bytes (Attributes)
--------------------------------        ----        ----        ------- ----- ------------
_CODE                               00000200    00002C59 =       11353. bytes (REL,CON)

      Value  Global                              Global Defined In Module
      -----  --------------------------------   ------------------------
     00001175  A$Sprite$1514                      Sprite
     00001176  A$Sprite$1515                      Sprite
     00001177  A$Sprite$1516                      Sprite
     00001178  A$Sprite$1517                      Sprite
     0000117A  A$Sprite$1518                      Sprite
     0000117C  A$Sprite$1519                      Sprite
     0000117E  A$Sprite$1520                      Sprite
     00001180  A$Sprite$1521                      Sprite
     00001181  A$Sprite$1522                      Sprite
     00001183  A$Sprite$1524                      Sprite
     00001185  A$Sprite$1525                      Sprite
     00001187  A$Sprite$1526                      Sprite
     00001188  A$Sprite$1528                      Sprite
     0000118A  A$Sprite$1529                      Sprite
     0000118B  A$Sprite$1530                      Sprite
     0000118D  A$Sprite$1531                      Sprite
     0000118E  A$Sprite$1535                      Sprite
     0000118E  C$Sprite.c$153$1_0$209             Sprite
     00001190  A$Sprite$1536                      Sprite
     00001191  A$Sprite$1537                      Sprite
     00001192  A$Sprite$1538                      Sprite
     00001193  A$Sprite$1539                      Sprite
     00001194  A$Sprite$1540                      Sprite
     00001195  A$Sprite$1541                      Sprite
     00001196  A$Sprite$1542                      Sprite
     00001197  A$Sprite$1543                      Sprite
     00001198  A$Sprite$1547                      Sprite
     00001198  C$Sprite.c$152$2_0$210             Sprite
     0000119A  A$Sprite$1548                      Sprite
     0000119B  A$Sprite$1549                      Sprite
     0000119C  A$Sprite$1550                      Sprite
     0000119E  A$Sprite$1554                      Sprite
     0000119E  C$Sprite.c$153$3_0$211             Sprite
     000011A0  A$Sprite$1555                      Sprite
     000011A1  A$Sprite$1556                      Sprite
     000011A2  A$Sprite$1557                      Sprite
     000011A3  A$Sprite$1558                      Sprite
     000011A4  A$Sprite$1559                      Sprite
     000011A5  A$Sprite$1560                      Sprite
     000011A6  A$Sprite$1563                      Sprite
     000011A8  A$Sprite$1566                      Sprite
     000011A9  A$Sprite$1567                      Sprite
     000011AA  A$Sprite$1568                      Sprite
     000011AB  A$Sprite$1576                      Sprite
     000011AB  C$Sprite.c$155$3_0$212             Sprite
     000011AB  C$Sprite.c$159$2_0$210             Sprite
     000011AC  A$Sprite$1577                      Sprite
     000011AD  A$Sprite$1578                      Sprite
     000011AF  A$Sprite$1579                      Sprite
     000011B1  A$Sprite$1580                      Sprite
     000011B3  A$Sprite$1581                      Sprite
ASxxxx Linker V03.00/V05.40 + sdld,  page 31.
Hexadecimal  [32-Bits]

Area                                    Addr        Size        Decimal Bytes (Attributes)
--------------------------------        ----        ----        ------- ----- ------------
_CODE                               00000200    00002C59 =       11353. bytes (REL,CON)

      Value  Global                              Global Defined In Module
      -----  --------------------------------   ------------------------
     000011B5  A$Sprite$1582                      Sprite
     000011B7  A$Sprite$1583                      Sprite
     000011B9  A$Sprite$1587                      Sprite
     000011B9  C$Sprite.c$160$2_0$210             Sprite
     000011BB  A$Sprite$1588                      Sprite
     000011BC  A$Sprite$1589                      Sprite
     000011BD  A$Sprite$1590                      Sprite
     000011BE  A$Sprite$1591                      Sprite
     000011BF  A$Sprite$1592                      Sprite
     000011C0  A$Sprite$1593                      Sprite
     000011C1  A$Sprite$1597                      Sprite
     000011C1  C$Sprite.c$161$2_0$210             Sprite
     000011C2  A$Sprite$1600                      Sprite
     000011C3  A$Sprite$1601                      Sprite
     000011C5  A$Sprite$1602                      Sprite
     000011C7  A$Sprite$1603                      Sprite
     000011C9  A$Sprite$1604                      Sprite
     000011CB  A$Sprite$1605                      Sprite
     000011CD  A$Sprite$1606                      Sprite
     000011CF  A$Sprite$1607                      Sprite
     000011D0  A$Sprite$1608                      Sprite
     000011D2  A$Sprite$1609                      Sprite
     000011D3  A$Sprite$1613                      Sprite
     000011D3  C$Sprite.c$162$2_0$210             Sprite
     000011D4  A$Sprite$1614                      Sprite
     000011D5  A$Sprite$1615                      Sprite
     000011D8  A$Sprite$1619                      Sprite
     000011D8  C$Sprite.c$167$2_0$210             Sprite
     000011DB  A$Sprite$1620                      Sprite
     000011DC  A$Sprite$1621                      Sprite
     000011DD  A$Sprite$1622                      Sprite
     000011DE  A$Sprite$1623                      Sprite
     000011DF  A$Sprite$1624                      Sprite
     000011E0  A$Sprite$1625                      Sprite
     000011E3  A$Sprite$1629                      Sprite
     000011E5  A$Sprite$1630                      Sprite
     000011E6  A$Sprite$1631                      Sprite
     000011E7  A$Sprite$1632                      Sprite
     000011E8  A$Sprite$1633                      Sprite
     000011E9  A$Sprite$1634                      Sprite
     000011EB  A$Sprite$1635                      Sprite
     000011EC  A$Sprite$1636                      Sprite
     000011ED  A$Sprite$1637                      Sprite
     000011EE  A$Sprite$1638                      Sprite
     000011EF  A$Sprite$1642                      Sprite
     000011EF  C$Sprite.c$176$1_0$209             Sprite
     000011F2  A$Sprite$1643                      Sprite
     000011F3  A$Sprite$1644                      Sprite
     000011F5  A$Sprite$1645                      Sprite
     000011F6  A$Sprite$1649                      Sprite
     000011F6  C$Sprite.c$172$2_0$210             Sprite
ASxxxx Linker V03.00/V05.40 + sdld,  page 32.
Hexadecimal  [32-Bits]

Area                                    Addr        Size        Decimal Bytes (Attributes)
--------------------------------        ----        ----        ------- ----- ------------
_CODE                               00000200    00002C59 =       11353. bytes (REL,CON)

      Value  Global                              Global Defined In Module
      -----  --------------------------------   ------------------------
     000011F8  A$Sprite$1650                      Sprite
     000011F9  A$Sprite$1651                      Sprite
     000011FA  A$Sprite$1652                      Sprite
     000011FD  A$Sprite$1653                      Sprite
     000011FE  A$Sprite$1654                      Sprite
     000011FF  A$Sprite$1655                      Sprite
     00001200  A$Sprite$1656                      Sprite
     00001201  A$Sprite$1657                      Sprite
     00001202  A$Sprite$1658                      Sprite
     00001203  A$Sprite$1659                      Sprite
     00001205  A$Sprite$1663                      Sprite
     00001205  C$Sprite.c$173$3_0$215             Sprite
     00001207  A$Sprite$1664                      Sprite
     00001208  A$Sprite$1665                      Sprite
     0000120A  A$Sprite$1666                      Sprite
     0000120C  A$Sprite$1670                      Sprite
     0000120C  C$Sprite.c$174$3_0$215             Sprite
     0000120E  A$Sprite$1671                      Sprite
     00001210  A$Sprite$1672                      Sprite
     00001212  A$Sprite$1677                      Sprite
     00001212  C$Sprite.c$176$3_0$215             Sprite
     00001214  A$Sprite$1678                      Sprite
     00001215  A$Sprite$1679                      Sprite
     00001216  A$Sprite$1680                      Sprite
     00001217  A$Sprite$1681                      Sprite
     00001219  A$Sprite$1686                      Sprite
     00001219  C$Sprite.c$178$3_0$216             Sprite
     0000121B  A$Sprite$1687                      Sprite
     0000121C  A$Sprite$1688                      Sprite
     0000121E  A$Sprite$1689                      Sprite
     0000121F  A$Sprite$1690                      Sprite
     00001220  A$Sprite$1691                      Sprite
     00001221  A$Sprite$1692                      Sprite
     00001223  A$Sprite$1693                      Sprite
     00001224  A$Sprite$1694                      Sprite
     00001226  A$Sprite$1695                      Sprite
     00001227  A$Sprite$1696                      Sprite
     00001229  A$Sprite$1697                      Sprite
     0000122A  A$Sprite$1698                      Sprite
     0000122C  A$Sprite$1699                      Sprite
     0000122D  A$Sprite$1700                      Sprite
     0000122F  A$Sprite$1701                      Sprite
     00001230  A$Sprite$1702                      Sprite
     00001232  A$Sprite$1703                      Sprite
     00001233  A$Sprite$1704                      Sprite
     00001235  A$Sprite$1705                      Sprite
     00001236  A$Sprite$1706                      Sprite
     00001237  A$Sprite$1711                      Sprite
     00001237  C$Sprite.c$182$2_0$210             Sprite
     00001239  A$Sprite$1712                      Sprite
     0000123A  A$Sprite$1713                      Sprite
ASxxxx Linker V03.00/V05.40 + sdld,  page 33.
Hexadecimal  [32-Bits]

Area                                    Addr        Size        Decimal Bytes (Attributes)
--------------------------------        ----        ----        ------- ----- ------------
_CODE                               00000200    00002C59 =       11353. bytes (REL,CON)

      Value  Global                              Global Defined In Module
      -----  --------------------------------   ------------------------
     0000123B  A$Sprite$1714                      Sprite
     0000123C  A$Sprite$1715                      Sprite
     0000123D  A$Sprite$1716                      Sprite
     0000123E  A$Sprite$1717                      Sprite
     00001240  A$Sprite$1718                      Sprite
     00001242  A$Sprite$1719                      Sprite
     00001243  A$Sprite$1720                      Sprite
     00001244  A$Sprite$1721                      Sprite
     00001245  A$Sprite$1722                      Sprite
     00001246  A$Sprite$1723                      Sprite
     00001247  A$Sprite$1724                      Sprite
     00001248  A$Sprite$1725                      Sprite
     00001249  A$Sprite$1729                      Sprite
     00001249  C$Sprite.c$183$2_0$210             Sprite
     0000124A  A$Sprite$1730                      Sprite
     0000124B  A$Sprite$1731                      Sprite
     0000124E  A$Sprite$1732                      Sprite
     0000124F  A$Sprite$1733                      Sprite
     00001250  A$Sprite$1734                      Sprite
     00001251  A$Sprite$1735                      Sprite
     00001252  A$Sprite$1736                      Sprite
     00001253  A$Sprite$1737                      Sprite
     00001255  A$Sprite$1741                      Sprite
     00001255  C$Sprite.c$184$3_0$217             Sprite
     00001257  A$Sprite$1742                      Sprite
     00001259  A$Sprite$1746                      Sprite
     00001259  C$Sprite.c$185$3_0$217             Sprite
     0000125B  A$Sprite$1747                      Sprite
     0000125D  A$Sprite$1748                      Sprite
     0000125F  A$Sprite$1753                      Sprite
     0000125F  C$Sprite.c$187$3_0$217             Sprite
     00001261  A$Sprite$1754                      Sprite
     00001262  A$Sprite$1755                      Sprite
     00001263  A$Sprite$1756                      Sprite
     00001265  A$Sprite$1761                      Sprite
     00001265  C$Sprite.c$189$3_0$218             Sprite
     00001267  A$Sprite$1762                      Sprite
     00001269  A$Sprite$1763                      Sprite
     0000126B  A$Sprite$1764                      Sprite
     0000126D  A$Sprite$1765                      Sprite
     0000126F  A$Sprite$1766                      Sprite
     00001271  A$Sprite$1767                      Sprite
     00001273  A$Sprite$1768                      Sprite
     00001274  A$Sprite$1773                      Sprite
     00001274  C$Sprite.c$192$2_0$210             Sprite
     00001277  A$Sprite$1774                      Sprite
     00001278  A$Sprite$1775                      Sprite
     00001279  A$Sprite$1776                      Sprite
     0000127C  A$Sprite$1777                      Sprite
     0000127D  A$Sprite$1781                      Sprite
     0000127D  C$Sprite.c$193$2_0$210             Sprite
ASxxxx Linker V03.00/V05.40 + sdld,  page 34.
Hexadecimal  [32-Bits]

Area                                    Addr        Size        Decimal Bytes (Attributes)
--------------------------------        ----        ----        ------- ----- ------------
_CODE                               00000200    00002C59 =       11353. bytes (REL,CON)

      Value  Global                              Global Defined In Module
      -----  --------------------------------   ------------------------
     0000127F  A$Sprite$1782                      Sprite
     00001280  A$Sprite$1783                      Sprite
     00001282  A$Sprite$1784                      Sprite
     00001285  A$Sprite$1785                      Sprite
     00001286  A$Sprite$1786                      Sprite
     00001287  A$Sprite$1787                      Sprite
     00001288  A$Sprite$1788                      Sprite
     0000128B  A$Sprite$1789                      Sprite
     0000128D  A$Sprite$1790                      Sprite
     0000128E  A$Sprite$1791                      Sprite
     0000128F  A$Sprite$1792                      Sprite
     00001290  A$Sprite$1793                      Sprite
     00001291  A$Sprite$1794                      Sprite
     00001292  A$Sprite$1795                      Sprite
     00001293  A$Sprite$1796                      Sprite
     00001295  A$Sprite$1797                      Sprite
     00001296  A$Sprite$1798                      Sprite
     00001297  A$Sprite$1799                      Sprite
     00001298  A$Sprite$1800                      Sprite
     00001299  A$Sprite$1801                      Sprite
     0000129A  A$Sprite$1802                      Sprite
     0000129D  A$Sprite$1803                      Sprite
     0000129E  A$Sprite$1804                      Sprite
     000012A1  A$Sprite$1805                      Sprite
     000012A4  A$Sprite$1806                      Sprite
     000012A5  A$Sprite$1807                      Sprite
     000012A8  A$Sprite$1811                      Sprite
     000012A8  C$Sprite.c$194$2_0$210             Sprite
     000012AA  A$Sprite$1815                      Sprite
     000012AA  C$Sprite.c$195$4_0$220             Sprite
     000012AB  A$Sprite$1816                      Sprite
     000012AC  A$Sprite$1817                      Sprite
     000012AD  A$Sprite$1818                      Sprite
     000012AE  A$Sprite$1820                      Sprite
     000012AF  A$Sprite$1821                      Sprite
     000012B0  A$Sprite$1822                      Sprite
     000012B3  A$Sprite$1826                      Sprite
     000012B3  C$Sprite.c$196$4_0$220             Sprite
     000012B6  A$Sprite$1827                      Sprite
     000012B7  A$Sprite$1830                      Sprite
     000012BA  A$Sprite$1831                      Sprite
     000012BB  A$Sprite$1834                      Sprite
     000012BC  A$Sprite$1835                      Sprite
     000012BF  A$Sprite$1836                      Sprite
     000012C1  A$Sprite$1837                      Sprite
     000012C2  A$Sprite$1838                      Sprite
     000012C3  A$Sprite$1839                      Sprite
     000012C4  A$Sprite$1840                      Sprite
     000012C7  A$Sprite$1844                      Sprite
     000012C7  C$Sprite.c$197$5_0$221             Sprite
     000012C9  A$Sprite$1845                      Sprite
ASxxxx Linker V03.00/V05.40 + sdld,  page 35.
Hexadecimal  [32-Bits]

Area                                    Addr        Size        Decimal Bytes (Attributes)
--------------------------------        ----        ----        ------- ----- ------------
_CODE                               00000200    00002C59 =       11353. bytes (REL,CON)

      Value  Global                              Global Defined In Module
      -----  --------------------------------   ------------------------
     000012CA  A$Sprite$1846                      Sprite
     000012CB  A$Sprite$1847                      Sprite
     000012CD  A$Sprite$1851                      Sprite
     000012CD  C$Sprite.c$198$6_0$222             Sprite
     000012CF  A$Sprite$1852                      Sprite
     000012D0  A$Sprite$1853                      Sprite
     000012D1  A$Sprite$1854                      Sprite
     000012D2  A$Sprite$1855                      Sprite
     000012D4  A$Sprite$1856                      Sprite
     000012D6  A$Sprite$1858                      Sprite
     000012D8  A$Sprite$1859                      Sprite
     000012DA  A$Sprite$1860                      Sprite
     000012DB  A$Sprite$1861                      Sprite
     000012DD  A$Sprite$1862                      Sprite
     000012DE  A$Sprite$1863                      Sprite
     000012E0  A$Sprite$1864                      Sprite
     000012E2  A$Sprite$1865                      Sprite
     000012E3  A$Sprite$1866                      Sprite
     000012E4  A$Sprite$1867                      Sprite
     000012E5  A$Sprite$1868                      Sprite
     000012E6  A$Sprite$1869                      Sprite
     000012E8  A$Sprite$1870                      Sprite
     000012E9  A$Sprite$1871                      Sprite
     000012EB  A$Sprite$1872                      Sprite
     000012EC  A$Sprite$1873                      Sprite
     000012EE  A$Sprite$1874                      Sprite
     000012F0  A$Sprite$1875                      Sprite
     000012F1  A$Sprite$1876                      Sprite
     000012F2  A$Sprite$1877                      Sprite
     000012F3  A$Sprite$1878                      Sprite
     000012F5  A$Sprite$1879                      Sprite
     000012F6  A$Sprite$1880                      Sprite
     000012F7  A$Sprite$1881                      Sprite
     000012F8  A$Sprite$1882                      Sprite
     000012F9  A$Sprite$1883                      Sprite
     000012FA  A$Sprite$1884                      Sprite
     000012FB  A$Sprite$1885                      Sprite
     000012FC  A$Sprite$1886                      Sprite
     000012FD  A$Sprite$1887                      Sprite
     000012FF  A$Sprite$1888                      Sprite
     00001300  A$Sprite$1889                      Sprite
     00001301  A$Sprite$1890                      Sprite
     00001303  A$Sprite$1891                      Sprite
     00001304  A$Sprite$1892                      Sprite
     00001305  A$Sprite$1893                      Sprite
     00001306  A$Sprite$1894                      Sprite
     00001308  A$Sprite$1895                      Sprite
     00001309  A$Sprite$1896                      Sprite
     0000130A  A$Sprite$1897                      Sprite
     0000130B  A$Sprite$1898                      Sprite
     0000130C  A$Sprite$1899                      Sprite
ASxxxx Linker V03.00/V05.40 + sdld,  page 36.
Hexadecimal  [32-Bits]

Area                                    Addr        Size        Decimal Bytes (Attributes)
--------------------------------        ----        ----        ------- ----- ------------
_CODE                               00000200    00002C59 =       11353. bytes (REL,CON)

      Value  Global                              Global Defined In Module
      -----  --------------------------------   ------------------------
     0000130D  A$Sprite$1900                      Sprite
     0000130F  A$Sprite$1905                      Sprite
     0000130F  C$Sprite.c$200$6_0$223             Sprite
     00001311  A$Sprite$1906                      Sprite
     00001312  A$Sprite$1907                      Sprite
     00001313  A$Sprite$1908                      Sprite
     00001314  A$Sprite$1909                      Sprite
     00001315  A$Sprite$1910                      Sprite
     00001316  A$Sprite$1911                      Sprite
     00001317  A$Sprite$1912                      Sprite
     00001318  A$Sprite$1913                      Sprite
     00001319  A$Sprite$1914                      Sprite
     0000131B  A$Sprite$1915                      Sprite
     0000131C  A$Sprite$1916                      Sprite
     0000131D  A$Sprite$1917                      Sprite
     0000131E  A$Sprite$1918                      Sprite
     00001320  A$Sprite$1919                      Sprite
     00001321  A$Sprite$1920                      Sprite
     00001323  A$Sprite$1922                      Sprite
     00001325  A$Sprite$1923                      Sprite
     00001327  A$Sprite$1924                      Sprite
     00001328  A$Sprite$1925                      Sprite
     0000132A  A$Sprite$1926                      Sprite
     0000132B  A$Sprite$1927                      Sprite
     0000132D  A$Sprite$1928                      Sprite
     0000132F  A$Sprite$1929                      Sprite
     00001330  A$Sprite$1930                      Sprite
     00001331  A$Sprite$1931                      Sprite
     00001332  A$Sprite$1932                      Sprite
     00001334  A$Sprite$1933                      Sprite
     00001335  A$Sprite$1934                      Sprite
     00001336  A$Sprite$1935                      Sprite
     00001337  A$Sprite$1936                      Sprite
     00001338  A$Sprite$1937                      Sprite
     00001339  A$Sprite$1942                      Sprite
     00001339  C$Sprite.c$203$5_0$221             Sprite
     0000133C  A$Sprite$1943                      Sprite
     0000133D  A$Sprite$1944                      Sprite
     0000133E  A$Sprite$1945                      Sprite
     0000133F  A$Sprite$1946                      Sprite
     00001340  A$Sprite$1947                      Sprite
     00001342  A$Sprite$1948                      Sprite
     00001343  A$Sprite$1952                      Sprite
     00001343  C$Sprite.c$204$5_0$221             Sprite
     00001346  A$Sprite$1956                      Sprite
     00001346  C$Sprite.c$205$5_0$221             Sprite
     00001348  A$Sprite$1961                      Sprite
     00001348  C$Sprite.c$195$3_0$219             Sprite
     00001349  A$Sprite$1962                      Sprite
     0000134C  A$Sprite$1963                      Sprite
     0000134F  A$Sprite$1964                      Sprite
ASxxxx Linker V03.00/V05.40 + sdld,  page 37.
Hexadecimal  [32-Bits]

Area                                    Addr        Size        Decimal Bytes (Attributes)
--------------------------------        ----        ----        ------- ----- ------------
_CODE                               00000200    00002C59 =       11353. bytes (REL,CON)

      Value  Global                              Global Defined In Module
      -----  --------------------------------   ------------------------
     00001350  A$Sprite$1965                      Sprite
     00001353  A$Sprite$1966                      Sprite
     00001354  A$Sprite$1967                      Sprite
     00001355  A$Sprite$1968                      Sprite
     00001358  A$Sprite$1969                      Sprite
     00001359  A$Sprite$1970                      Sprite
     0000135C  A$Sprite$1971                      Sprite
     0000135F  A$Sprite$1976                      Sprite
     0000135F  C$Sprite.c$208$2_0$210             Sprite
     00001362  A$Sprite$1984                      Sprite
     00001362  C$Sprite.c$211$1_0$209             Sprite
     00001362  C$Sprite.c$212$1_0$209             Sprite
     00001364  A$Sprite$1985                      Sprite
     00001365  A$Sprite$1986                      Sprite
     00001366  A$Sprite$1987                      Sprite
     00001367  A$Sprite$1988                      Sprite
     00001368  A$Sprite$1989                      Sprite
     00001369  A$Sprite$1990                      Sprite
     0000136A  A$Sprite$1991                      Sprite
     0000136B  A$Sprite$1992                      Sprite
     0000136C  A$Sprite$1993                      Sprite
     0000136E  A$Sprite$1994                      Sprite
     0000136F  A$Sprite$1995                      Sprite
     00001370  A$Sprite$1996                      Sprite
     00001371  A$Sprite$1997                      Sprite
     00001372  A$Sprite$1998                      Sprite
     00001373  A$Sprite$1999                      Sprite
     00001374  A$Sprite$2000                      Sprite
     00001375  A$Sprite$2001                      Sprite
     00001377  A$Sprite$2002                      Sprite
     00001378  A$Sprite$2003                      Sprite
     00001379  A$Sprite$2004                      Sprite
     0000137A  A$Sprite$2005                      Sprite
     0000137B  A$Sprite$2006                      Sprite
     0000137C  A$Sprite$2007                      Sprite
     0000137D  A$Sprite$2015                      Sprite
     0000137D  C$Sprite.c$213$1_0$209             Sprite
     0000137D  C$Sprite.c$224$1_0$209             Sprite
     0000137F  A$Sprite$2016                      Sprite
     00001380  A$Sprite$2017                      Sprite
     00001382  A$Sprite$2018                      Sprite
     00001383  A$Sprite$2019                      Sprite
     00001384  A$Sprite$2020                      Sprite
     00001385  A$Sprite$2021                      Sprite
     00001386  A$Sprite$2025                      Sprite
     00001386  C$Sprite.c$215$1_0$209             Sprite
     00001388  A$Sprite$2026                      Sprite
     00001389  A$Sprite$2027                      Sprite
     0000138A  A$Sprite$2028                      Sprite
     0000138D  A$Sprite$2032                      Sprite
     0000138E  A$Sprite$2033                      Sprite
ASxxxx Linker V03.00/V05.40 + sdld,  page 38.
Hexadecimal  [32-Bits]

Area                                    Addr        Size        Decimal Bytes (Attributes)
--------------------------------        ----        ----        ------- ----- ------------
_CODE                               00000200    00002C59 =       11353. bytes (REL,CON)

      Value  Global                              Global Defined In Module
      -----  --------------------------------   ------------------------
     0000138F  A$Sprite$2034                      Sprite
     00001390  A$Sprite$2035                      Sprite
     00001391  A$Sprite$2036                      Sprite
     00001393  A$Sprite$2037                      Sprite
     00001395  A$Sprite$2038                      Sprite
     00001397  A$Sprite$2039                      Sprite
     00001399  A$Sprite$2040                      Sprite
     0000139A  A$Sprite$2041                      Sprite
     0000139C  A$Sprite$2043                      Sprite
     0000139E  A$Sprite$2044                      Sprite
     000013A0  A$Sprite$2045                      Sprite
     000013A1  A$Sprite$2047                      Sprite
     000013A3  A$Sprite$2048                      Sprite
     000013A4  A$Sprite$2049                      Sprite
     000013A6  A$Sprite$2050                      Sprite
     000013A7  A$Sprite$2054                      Sprite
     000013A7  C$Sprite.c$172$1_0$209             Sprite
     000013A9  A$Sprite$2055                      Sprite
     000013AA  A$Sprite$2056                      Sprite
     000013AB  A$Sprite$2057                      Sprite
     000013AC  A$Sprite$2058                      Sprite
     000013AD  A$Sprite$2059                      Sprite
     000013AF  A$Sprite$2060                      Sprite
     000013B0  A$Sprite$2061                      Sprite
     000013B1  A$Sprite$2062                      Sprite
     000013B2  A$Sprite$2066                      Sprite
     000013B2  C$Sprite.c$216$2_0$224             Sprite
     000013B3  A$Sprite$2067                      Sprite
     000013B4  A$Sprite$2068                      Sprite
     000013B5  A$Sprite$2069                      Sprite
     000013B6  A$Sprite$2070                      Sprite
     000013B8  A$Sprite$2074                      Sprite
     000013B8  C$Sprite.c$217$3_0$225             Sprite
     000013B9  A$Sprite$2075                      Sprite
     000013BA  A$Sprite$2076                      Sprite
     000013BB  A$Sprite$2077                      Sprite
     000013BC  A$Sprite$2078                      Sprite
     000013BD  A$Sprite$2079                      Sprite
     000013BE  A$Sprite$2080                      Sprite
     000013BF  A$Sprite$2081                      Sprite
     000013C1  A$Sprite$2082                      Sprite
     000013C2  A$Sprite$2083                      Sprite
     000013C4  A$Sprite$2084                      Sprite
     000013C5  A$Sprite$2085                      Sprite
     000013C6  A$Sprite$2086                      Sprite
     000013C7  A$Sprite$2087                      Sprite
     000013C8  A$Sprite$2088                      Sprite
     000013C9  A$Sprite$2089                      Sprite
     000013CA  A$Sprite$2090                      Sprite
     000013CC  A$Sprite$2091                      Sprite
     000013CD  A$Sprite$2092                      Sprite
ASxxxx Linker V03.00/V05.40 + sdld,  page 39.
Hexadecimal  [32-Bits]

Area                                    Addr        Size        Decimal Bytes (Attributes)
--------------------------------        ----        ----        ------- ----- ------------
_CODE                               00000200    00002C59 =       11353. bytes (REL,CON)

      Value  Global                              Global Defined In Module
      -----  --------------------------------   ------------------------
     000013CE  A$Sprite$2093                      Sprite
     000013CF  A$Sprite$2094                      Sprite
     000013D0  A$Sprite$2095                      Sprite
     000013D1  A$Sprite$2096                      Sprite
     000013D2  A$Sprite$2097                      Sprite
     000013D4  A$Sprite$2098                      Sprite
     000013D5  A$Sprite$2099                      Sprite
     000013D6  A$Sprite$2100                      Sprite
     000013D7  A$Sprite$2101                      Sprite
     000013D9  A$Sprite$2102                      Sprite
     000013DA  A$Sprite$2103                      Sprite
     000013DB  A$Sprite$2104                      Sprite
     000013DC  A$Sprite$2105                      Sprite
     000013DD  A$Sprite$2106                      Sprite
     000013DF  A$Sprite$2111                      Sprite
     000013DF  C$Sprite.c$219$3_0$226             Sprite
     000013E1  A$Sprite$2112                      Sprite
     000013E2  A$Sprite$2113                      Sprite
     000013E3  A$Sprite$2114                      Sprite
     000013E4  A$Sprite$2119                      Sprite
     000013E4  C$Sprite.c$223$2_0$224             Sprite
     000013E5  A$Sprite$2120                      Sprite
     000013E6  A$Sprite$2121                      Sprite
     000013E8  A$Sprite$2122                      Sprite
     000013EA  A$Sprite$2123                      Sprite
     000013EC  A$Sprite$2124                      Sprite
     000013EE  A$Sprite$2125                      Sprite
     000013F0  A$Sprite$2126                      Sprite
     000013F2  A$Sprite$2130                      Sprite
     000013F2  C$Sprite.c$224$2_0$224             Sprite
     000013F4  A$Sprite$2131                      Sprite
     000013F5  A$Sprite$2132                      Sprite
     000013F6  A$Sprite$2133                      Sprite
     000013F7  A$Sprite$2134                      Sprite
     000013F8  A$Sprite$2135                      Sprite
     000013F9  A$Sprite$2136                      Sprite
     000013FA  A$Sprite$2140                      Sprite
     000013FA  C$Sprite.c$225$2_0$224             Sprite
     000013FB  A$Sprite$2143                      Sprite
     000013FC  A$Sprite$2144                      Sprite
     000013FE  A$Sprite$2145                      Sprite
     00001400  A$Sprite$2146                      Sprite
     00001402  A$Sprite$2147                      Sprite
     00001404  A$Sprite$2148                      Sprite
     00001406  A$Sprite$2149                      Sprite
     00001408  A$Sprite$2150                      Sprite
     00001409  A$Sprite$2151                      Sprite
     0000140B  A$Sprite$2155                      Sprite
     0000140B  C$Sprite.c$226$2_0$224             Sprite
     0000140C  A$Sprite$2156                      Sprite
     0000140D  A$Sprite$2157                      Sprite
ASxxxx Linker V03.00/V05.40 + sdld,  page 40.
Hexadecimal  [32-Bits]

Area                                    Addr        Size        Decimal Bytes (Attributes)
--------------------------------        ----        ----        ------- ----- ------------
_CODE                               00000200    00002C59 =       11353. bytes (REL,CON)

      Value  Global                              Global Defined In Module
      -----  --------------------------------   ------------------------
     00001410  A$Sprite$2161                      Sprite
     00001410  C$Sprite.c$231$2_0$224             Sprite
     00001413  A$Sprite$2162                      Sprite
     00001414  A$Sprite$2163                      Sprite
     00001415  A$Sprite$2164                      Sprite
     00001416  A$Sprite$2165                      Sprite
     00001417  A$Sprite$2166                      Sprite
     00001418  A$Sprite$2167                      Sprite
     0000141B  A$Sprite$2171                      Sprite
     0000141D  A$Sprite$2172                      Sprite
     0000141E  A$Sprite$2173                      Sprite
     0000141F  A$Sprite$2174                      Sprite
     00001420  A$Sprite$2175                      Sprite
     00001421  A$Sprite$2176                      Sprite
     00001422  A$Sprite$2177                      Sprite
     00001423  A$Sprite$2178                      Sprite
     00001424  A$Sprite$2179                      Sprite
     00001425  A$Sprite$2183                      Sprite
     00001425  C$Sprite.c$240$1_0$209             Sprite
     00001428  A$Sprite$2184                      Sprite
     00001429  A$Sprite$2185                      Sprite
     0000142B  A$Sprite$2186                      Sprite
     0000142C  A$Sprite$2190                      Sprite
     0000142C  C$Sprite.c$236$2_0$224             Sprite
     0000142F  A$Sprite$2191                      Sprite
     00001430  A$Sprite$2192                      Sprite
     00001431  A$Sprite$2193                      Sprite
     00001432  A$Sprite$2194                      Sprite
     00001433  A$Sprite$2195                      Sprite
     00001434  A$Sprite$2196                      Sprite
     00001436  A$Sprite$2202                      Sprite
     00001436  C$Sprite.c$237$3_0$229             Sprite
     00001437  A$Sprite$2205                      Sprite
     00001439  A$Sprite$2206                      Sprite
     0000143B  A$Sprite$2210                      Sprite
     0000143B  C$Sprite.c$238$3_0$229             Sprite
     0000143D  A$Sprite$2211                      Sprite
     0000143F  A$Sprite$2212                      Sprite
     00001441  A$Sprite$2217                      Sprite
     00001441  C$Sprite.c$240$3_0$229             Sprite
     00001443  A$Sprite$2218                      Sprite
     00001444  A$Sprite$2219                      Sprite
     00001445  A$Sprite$2220                      Sprite
     00001447  A$Sprite$2225                      Sprite
     00001447  C$Sprite.c$242$3_0$230             Sprite
     00001448  A$Sprite$2226                      Sprite
     00001449  A$Sprite$2227                      Sprite
     0000144B  A$Sprite$2228                      Sprite
     0000144D  A$Sprite$2229                      Sprite
     0000144F  A$Sprite$2230                      Sprite
     00001451  A$Sprite$2231                      Sprite
ASxxxx Linker V03.00/V05.40 + sdld,  page 41.
Hexadecimal  [32-Bits]

Area                                    Addr        Size        Decimal Bytes (Attributes)
--------------------------------        ----        ----        ------- ----- ------------
_CODE                               00000200    00002C59 =       11353. bytes (REL,CON)

      Value  Global                              Global Defined In Module
      -----  --------------------------------   ------------------------
     00001453  A$Sprite$2232                      Sprite
     00001455  A$Sprite$2233                      Sprite
     00001457  A$Sprite$2234                      Sprite
     00001458  A$Sprite$2239                      Sprite
     00001458  C$Sprite.c$246$2_0$224             Sprite
     0000145A  A$Sprite$2240                      Sprite
     0000145B  A$Sprite$2241                      Sprite
     0000145C  A$Sprite$2242                      Sprite
     0000145D  A$Sprite$2243                      Sprite
     0000145E  A$Sprite$2244                      Sprite
     0000145F  A$Sprite$2247                      Sprite
     00001461  A$Sprite$2250                      Sprite
     00001462  A$Sprite$2251                      Sprite
     00001463  A$Sprite$2252                      Sprite
     00001464  A$Sprite$2253                      Sprite
     00001467  A$Sprite$2254                      Sprite
     00001468  A$Sprite$2255                      Sprite
     00001469  A$Sprite$2256                      Sprite
     0000146A  A$Sprite$2257                      Sprite
     0000146B  A$Sprite$2258                      Sprite
     0000146C  A$Sprite$2259                      Sprite
     0000146E  A$Sprite$2260                      Sprite
     0000146F  A$Sprite$2261                      Sprite
     00001470  A$Sprite$2265                      Sprite
     00001470  C$Sprite.c$247$2_0$224             Sprite
     00001471  A$Sprite$2266                      Sprite
     00001472  A$Sprite$2267                      Sprite
     00001473  A$Sprite$2268                      Sprite
     00001476  A$Sprite$2269                      Sprite
     00001477  A$Sprite$2270                      Sprite
     00001478  A$Sprite$2271                      Sprite
     00001479  A$Sprite$2272                      Sprite
     0000147A  A$Sprite$2273                      Sprite
     0000147B  A$Sprite$2274                      Sprite
     0000147D  A$Sprite$2278                      Sprite
     0000147D  C$Sprite.c$248$3_0$231             Sprite
     0000147F  A$Sprite$2279                      Sprite
     00001481  A$Sprite$2280                      Sprite
     00001483  A$Sprite$2284                      Sprite
     00001483  C$Sprite.c$249$3_0$231             Sprite
     00001485  A$Sprite$2285                      Sprite
     00001487  A$Sprite$2290                      Sprite
     00001487  C$Sprite.c$251$3_0$231             Sprite
     00001489  A$Sprite$2291                      Sprite
     0000148A  A$Sprite$2292                      Sprite
     0000148C  A$Sprite$2297                      Sprite
     0000148C  C$Sprite.c$253$3_0$232             Sprite
     0000148E  A$Sprite$2298                      Sprite
     0000148F  A$Sprite$2299                      Sprite
     00001490  A$Sprite$2300                      Sprite
     00001491  A$Sprite$2301                      Sprite
ASxxxx Linker V03.00/V05.40 + sdld,  page 42.
Hexadecimal  [32-Bits]

Area                                    Addr        Size        Decimal Bytes (Attributes)
--------------------------------        ----        ----        ------- ----- ------------
_CODE                               00000200    00002C59 =       11353. bytes (REL,CON)

      Value  Global                              Global Defined In Module
      -----  --------------------------------   ------------------------
     00001493  A$Sprite$2302                      Sprite
     00001495  A$Sprite$2303                      Sprite
     00001497  A$Sprite$2304                      Sprite
     00001499  A$Sprite$2305                      Sprite
     0000149B  A$Sprite$2306                      Sprite
     0000149D  A$Sprite$2311                      Sprite
     0000149D  C$Sprite.c$256$2_0$224             Sprite
     0000149E  A$Sprite$2312                      Sprite
     000014A1  A$Sprite$2313                      Sprite
     000014A2  A$Sprite$2314                      Sprite
     000014A3  A$Sprite$2315                      Sprite
     000014A6  A$Sprite$2316                      Sprite
     000014A7  A$Sprite$2317                      Sprite
     000014A8  A$Sprite$2321                      Sprite
     000014A8  C$Sprite.c$257$2_0$224             Sprite
     000014AA  A$Sprite$2322                      Sprite
     000014AB  A$Sprite$2323                      Sprite
     000014AD  A$Sprite$2324                      Sprite
     000014AE  A$Sprite$2325                      Sprite
     000014B1  A$Sprite$2326                      Sprite
     000014B2  A$Sprite$2327                      Sprite
     000014B3  A$Sprite$2328                      Sprite
     000014B4  A$Sprite$2329                      Sprite
     000014B7  A$Sprite$2330                      Sprite
     000014B8  A$Sprite$2331                      Sprite
     000014BA  A$Sprite$2332                      Sprite
     000014BB  A$Sprite$2335                      Sprite
     000014BD  A$Sprite$2338                      Sprite
     000014BE  A$Sprite$2339                      Sprite
     000014BF  A$Sprite$2340                      Sprite
     000014C0  A$Sprite$2341                      Sprite
     000014C3  A$Sprite$2342                      Sprite
     000014C4  A$Sprite$2343                      Sprite
     000014C7  A$Sprite$2344                      Sprite
     000014CA  A$Sprite$2345                      Sprite
     000014CB  A$Sprite$2346                      Sprite
     000014CE  A$Sprite$2350                      Sprite
     000014CE  C$Sprite.c$258$2_0$224             Sprite
     000014CF  A$Sprite$2351                      Sprite
     000014D0  A$Sprite$2352                      Sprite
     000014D2  A$Sprite$2353                      Sprite
     000014D3  A$Sprite$2357                      Sprite
     000014D3  C$Sprite.c$259$2_0$224             Sprite
     000014D5  A$Sprite$2358                      Sprite
     000014D7  A$Sprite$2359                      Sprite
     000014D9  A$Sprite$2360                      Sprite
     000014DC  A$Sprite$2361                      Sprite
     000014DE  A$Sprite$2362                      Sprite
     000014DF  A$Sprite$2363                      Sprite
     000014E0  A$Sprite$2364                      Sprite
     000014E1  A$Sprite$2365                      Sprite
ASxxxx Linker V03.00/V05.40 + sdld,  page 43.
Hexadecimal  [32-Bits]

Area                                    Addr        Size        Decimal Bytes (Attributes)
--------------------------------        ----        ----        ------- ----- ------------
_CODE                               00000200    00002C59 =       11353. bytes (REL,CON)

      Value  Global                              Global Defined In Module
      -----  --------------------------------   ------------------------
     000014E3  A$Sprite$2367                      Sprite
     000014E6  A$Sprite$2368                      Sprite
     000014E8  A$Sprite$2369                      Sprite
     000014E9  A$Sprite$2370                      Sprite
     000014EA  A$Sprite$2371                      Sprite
     000014EB  A$Sprite$2373                      Sprite
     000014ED  A$Sprite$2374                      Sprite
     000014EE  A$Sprite$2375                      Sprite
     000014EF  A$Sprite$2376                      Sprite
     000014F0  A$Sprite$2381                      Sprite
     000014F0  C$Sprite.c$260$1_0$209             Sprite
     000014F2  A$Sprite$2382                      Sprite
     000014F3  A$Sprite$2383                      Sprite
     000014F4  A$Sprite$2384                      Sprite
     000014F6  A$Sprite$2388                      Sprite
     000014F6  C$Sprite.c$261$4_0$234             Sprite
     000014F9  A$Sprite$2389                      Sprite
     000014FA  A$Sprite$2392                      Sprite
     000014FD  A$Sprite$2393                      Sprite
     000014FE  A$Sprite$2396                      Sprite
     000014FF  A$Sprite$2398                      Sprite
     00001501  A$Sprite$2399                      Sprite
     00001502  A$Sprite$2400                      Sprite
     00001503  A$Sprite$2401                      Sprite
     00001504  A$Sprite$2402                      Sprite
     00001506  A$Sprite$2406                      Sprite
     00001506  C$Sprite.c$263$1_0$209             Sprite
     00001508  A$Sprite$2407                      Sprite
     00001509  A$Sprite$2408                      Sprite
     0000150B  A$Sprite$2412                      Sprite
     0000150B  C$Sprite.c$262$5_0$235             Sprite
     0000150D  A$Sprite$2413                      Sprite
     0000150E  A$Sprite$2414                      Sprite
     0000150F  A$Sprite$2415                      Sprite
     00001511  A$Sprite$2419                      Sprite
     00001511  C$Sprite.c$263$6_0$236             Sprite
     00001512  A$Sprite$2420                      Sprite
     00001513  A$Sprite$2421                      Sprite
     00001514  A$Sprite$2422                      Sprite
     00001515  A$Sprite$2423                      Sprite
     00001517  A$Sprite$2424                      Sprite
     00001518  A$Sprite$2425                      Sprite
     0000151A  A$Sprite$2426                      Sprite
     0000151B  A$Sprite$2427                      Sprite
     0000151D  A$Sprite$2428                      Sprite
     0000151E  A$Sprite$2429                      Sprite
     0000151F  A$Sprite$2430                      Sprite
     00001520  A$Sprite$2431                      Sprite
     00001521  A$Sprite$2432                      Sprite
     00001522  A$Sprite$2433                      Sprite
     00001523  A$Sprite$2434                      Sprite
ASxxxx Linker V03.00/V05.40 + sdld,  page 44.
Hexadecimal  [32-Bits]

Area                                    Addr        Size        Decimal Bytes (Attributes)
--------------------------------        ----        ----        ------- ----- ------------
_CODE                               00000200    00002C59 =       11353. bytes (REL,CON)

      Value  Global                              Global Defined In Module
      -----  --------------------------------   ------------------------
     00001524  A$Sprite$2435                      Sprite
     00001525  A$Sprite$2436                      Sprite
     00001527  A$Sprite$2437                      Sprite
     00001528  A$Sprite$2438                      Sprite
     00001529  A$Sprite$2439                      Sprite
     0000152A  A$Sprite$2440                      Sprite
     0000152B  A$Sprite$2441                      Sprite
     0000152C  A$Sprite$2442                      Sprite
     0000152E  A$Sprite$2443                      Sprite
     0000152F  A$Sprite$2444                      Sprite
     00001530  A$Sprite$2445                      Sprite
     00001531  A$Sprite$2446                      Sprite
     00001532  A$Sprite$2447                      Sprite
     00001533  A$Sprite$2448                      Sprite
     00001534  A$Sprite$2449                      Sprite
     00001536  A$Sprite$2454                      Sprite
     00001536  C$Sprite.c$265$6_0$237             Sprite
     00001537  A$Sprite$2457                      Sprite
     00001538  A$Sprite$2460                      Sprite
     00001539  A$Sprite$2461                      Sprite
     0000153A  A$Sprite$2462                      Sprite
     0000153B  A$Sprite$2463                      Sprite
     0000153C  A$Sprite$2464                      Sprite
     0000153D  A$Sprite$2465                      Sprite
     0000153E  A$Sprite$2466                      Sprite
     00001540  A$Sprite$2467                      Sprite
     00001541  A$Sprite$2468                      Sprite
     00001542  A$Sprite$2469                      Sprite
     00001543  A$Sprite$2470                      Sprite
     00001544  A$Sprite$2471                      Sprite
     00001545  A$Sprite$2472                      Sprite
     00001546  A$Sprite$2477                      Sprite
     00001546  C$Sprite.c$268$5_0$235             Sprite
     00001549  A$Sprite$2478                      Sprite
     0000154A  A$Sprite$2479                      Sprite
     0000154B  A$Sprite$2480                      Sprite
     0000154C  A$Sprite$2481                      Sprite
     0000154D  A$Sprite$2482                      Sprite
     0000154F  A$Sprite$2483                      Sprite
     00001550  A$Sprite$2487                      Sprite
     00001550  C$Sprite.c$269$5_0$235             Sprite
     00001553  A$Sprite$2491                      Sprite
     00001553  C$Sprite.c$270$5_0$235             Sprite
     00001555  A$Sprite$2496                      Sprite
     00001555  C$Sprite.c$260$3_0$233             Sprite
     00001557  A$Sprite$2497                      Sprite
     00001558  A$Sprite$2498                      Sprite
     0000155B  A$Sprite$2499                      Sprite
     0000155C  A$Sprite$2500                      Sprite
     0000155E  A$Sprite$2501                      Sprite
     0000155F  A$Sprite$2502                      Sprite
ASxxxx Linker V03.00/V05.40 + sdld,  page 45.
Hexadecimal  [32-Bits]

Area                                    Addr        Size        Decimal Bytes (Attributes)
--------------------------------        ----        ----        ------- ----- ------------
_CODE                               00000200    00002C59 =       11353. bytes (REL,CON)

      Value  Global                              Global Defined In Module
      -----  --------------------------------   ------------------------
     00001560  A$Sprite$2503                      Sprite
     00001562  A$Sprite$2508                      Sprite
     00001562  C$Sprite.c$273$2_0$224             Sprite
     00001565  A$Sprite$2516                      Sprite
     00001565  C$Sprite.c$276$1_0$209             Sprite
     00001565  C$Sprite.c$277$1_0$209             Sprite
     00001567  A$Sprite$2517                      Sprite
     00001568  A$Sprite$2518                      Sprite
     00001569  A$Sprite$2519                      Sprite
     0000156A  A$Sprite$2520                      Sprite
     0000156B  A$Sprite$2521                      Sprite
     0000156C  A$Sprite$2522                      Sprite
     0000156D  A$Sprite$2523                      Sprite
     0000156E  A$Sprite$2524                      Sprite
     0000156F  A$Sprite$2525                      Sprite
     00001571  A$Sprite$2526                      Sprite
     00001572  A$Sprite$2527                      Sprite
     00001573  A$Sprite$2528                      Sprite
     00001574  A$Sprite$2529                      Sprite
     00001575  A$Sprite$2530                      Sprite
     00001576  A$Sprite$2531                      Sprite
     00001577  A$Sprite$2532                      Sprite
     00001578  A$Sprite$2533                      Sprite
     00001579  A$Sprite$2534                      Sprite
     0000157A  A$Sprite$2535                      Sprite
     0000157B  A$Sprite$2536                      Sprite
     0000157C  A$Sprite$2537                      Sprite
     0000157D  A$Sprite$2538                      Sprite
     0000157E  A$Sprite$2539                      Sprite
     0000157F  A$Sprite$2547                      Sprite
     0000157F  C$Sprite.c$278$1_0$209             Sprite
     0000157F  C$Sprite.c$280$1_0$209             Sprite
     00001581  A$Sprite$2548                      Sprite
     00001582  A$Sprite$2552                      Sprite
     00001582  C$Sprite.c$281$1_0$209             Sprite
     00001584  A$Sprite$2553                      Sprite
     00001585  A$Sprite$2554                      Sprite
     00001586  A$Sprite$2555                      Sprite
     00001587  A$Sprite$2565                      Sprite
     00001587  C$Sprite.c$283$1_0$239             Sprite
     00001587  G$CheckCollision$0$0               Sprite
     00001587  _CheckCollision                    Sprite
     00001589  A$Sprite$2566                      Sprite
     0000158B  A$Sprite$2567                      Sprite
     0000158C  A$Sprite$2568                      Sprite
     0000158D  A$Sprite$2569                      Sprite
     0000158E  A$Sprite$2570                      Sprite
     00001590  A$Sprite$2571                      Sprite
     00001591  A$Sprite$2572                      Sprite
     00001592  A$Sprite$2576                      Sprite
     00001592  C$Sprite.c$287$1_0$239             Sprite
ASxxxx Linker V03.00/V05.40 + sdld,  page 46.
Hexadecimal  [32-Bits]

Area                                    Addr        Size        Decimal Bytes (Attributes)
--------------------------------        ----        ----        ------- ----- ------------
_CODE                               00000200    00002C59 =       11353. bytes (REL,CON)

      Value  Global                              Global Defined In Module
      -----  --------------------------------   ------------------------
     00001593  A$Sprite$2577                      Sprite
     00001594  A$Sprite$2578                      Sprite
     00001595  A$Sprite$2579                      Sprite
     00001596  A$Sprite$2580                      Sprite
     00001597  A$Sprite$2581                      Sprite
     0000159A  A$Sprite$2582                      Sprite
     0000159B  A$Sprite$2583                      Sprite
     0000159C  A$Sprite$2584                      Sprite
     0000159D  A$Sprite$2585                      Sprite
     0000159E  A$Sprite$2586                      Sprite
     0000159F  A$Sprite$2587                      Sprite
     000015A0  A$Sprite$2588                      Sprite
     000015A2  A$Sprite$2589                      Sprite
     000015A3  A$Sprite$2590                      Sprite
     000015A4  A$Sprite$2591                      Sprite
     000015A5  A$Sprite$2592                      Sprite
     000015A6  A$Sprite$2593                      Sprite
     000015A7  A$Sprite$2594                      Sprite
     000015A8  A$Sprite$2595                      Sprite
     000015A9  A$Sprite$2596                      Sprite
     000015AC  A$Sprite$2597                      Sprite
     000015AD  A$Sprite$2598                      Sprite
     000015AE  A$Sprite$2599                      Sprite
     000015AF  A$Sprite$2600                      Sprite
     000015B0  A$Sprite$2601                      Sprite
     000015B2  A$Sprite$2602                      Sprite
     000015B3  A$Sprite$2603                      Sprite
     000015B4  A$Sprite$2604                      Sprite
     000015B5  A$Sprite$2605                      Sprite
     000015B6  A$Sprite$2606                      Sprite
     000015B7  A$Sprite$2607                      Sprite
     000015B8  A$Sprite$2608                      Sprite
     000015B9  A$Sprite$2609                      Sprite
     000015BA  A$Sprite$2610                      Sprite
     000015BB  A$Sprite$2611                      Sprite
     000015BC  A$Sprite$2615                      Sprite
     000015BC  C$Sprite.c$288$1_0$239             Sprite
     000015BF  A$Sprite$2616                      Sprite
     000015C0  A$Sprite$2617                      Sprite
     000015C2  A$Sprite$2618                      Sprite
     000015C3  A$Sprite$2619                      Sprite
     000015C5  A$Sprite$2620                      Sprite
     000015C6  A$Sprite$2621                      Sprite
     000015C8  A$Sprite$2625                      Sprite
     000015C8  C$Sprite.c$289$1_0$239             Sprite
     000015C9  A$Sprite$2626                      Sprite
     000015CC  A$Sprite$2631                      Sprite
     000015CC  C$Sprite.c$291$1_0$239             Sprite
     000015CE  A$Sprite$2632                      Sprite
     000015CF  A$Sprite$2636                      Sprite
     000015CF  C$Sprite.c$293$1_0$239             Sprite
ASxxxx Linker V03.00/V05.40 + sdld,  page 47.
Hexadecimal  [32-Bits]

Area                                    Addr        Size        Decimal Bytes (Attributes)
--------------------------------        ----        ----        ------- ----- ------------
_CODE                               00000200    00002C59 =       11353. bytes (REL,CON)

      Value  Global                              Global Defined In Module
      -----  --------------------------------   ------------------------
     000015D1  A$Sprite$2637                      Sprite
     000015D2  A$Sprite$2638                      Sprite
     000015D3  A$Sprite$2639                      Sprite
     000015D4  A$Sprite$2640                      Sprite
     000015D7  A$Sprite$2641                      Sprite
     000015D8  A$Sprite$2642                      Sprite
     000015D9  A$Sprite$2643                      Sprite
     000015DA  A$Sprite$2644                      Sprite
     000015DB  A$Sprite$2645                      Sprite
     000015DC  A$Sprite$2646                      Sprite
     000015DD  A$Sprite$2647                      Sprite
     000015DF  A$Sprite$2648                      Sprite
     000015E0  A$Sprite$2649                      Sprite
     000015E1  A$Sprite$2650                      Sprite
     000015E2  A$Sprite$2651                      Sprite
     000015E3  A$Sprite$2652                      Sprite
     000015E4  A$Sprite$2653                      Sprite
     000015E5  A$Sprite$2654                      Sprite
     000015E6  A$Sprite$2655                      Sprite
     000015E9  A$Sprite$2656                      Sprite
     000015EA  A$Sprite$2657                      Sprite
     000015EB  A$Sprite$2658                      Sprite
     000015EC  A$Sprite$2659                      Sprite
     000015ED  A$Sprite$2660                      Sprite
     000015EF  A$Sprite$2661                      Sprite
     000015F0  A$Sprite$2662                      Sprite
     000015F1  A$Sprite$2663                      Sprite
     000015F2  A$Sprite$2664                      Sprite
     000015F3  A$Sprite$2665                      Sprite
     000015F4  A$Sprite$2666                      Sprite
     000015F5  A$Sprite$2667                      Sprite
     000015F6  A$Sprite$2668                      Sprite
     000015F7  A$Sprite$2669                      Sprite
     000015F8  A$Sprite$2670                      Sprite
     000015F9  A$Sprite$2671                      Sprite
     000015FA  A$Sprite$2672                      Sprite
     000015FB  A$Sprite$2676                      Sprite
     000015FB  C$Sprite.c$294$1_0$239             Sprite
     000015FC  A$Sprite$2677                      Sprite
     000015FD  A$Sprite$2678                      Sprite
     000015FE  A$Sprite$2679                      Sprite
     000015FF  A$Sprite$2680                      Sprite
     00001600  A$Sprite$2681                      Sprite
     00001603  A$Sprite$2682                      Sprite
     00001604  A$Sprite$2683                      Sprite
     00001605  A$Sprite$2684                      Sprite
     00001606  A$Sprite$2685                      Sprite
     00001608  A$Sprite$2686                      Sprite
     00001609  A$Sprite$2687                      Sprite
     0000160B  A$Sprite$2688                      Sprite
     0000160C  A$Sprite$2689                      Sprite
ASxxxx Linker V03.00/V05.40 + sdld,  page 48.
Hexadecimal  [32-Bits]

Area                                    Addr        Size        Decimal Bytes (Attributes)
--------------------------------        ----        ----        ------- ----- ------------
_CODE                               00000200    00002C59 =       11353. bytes (REL,CON)

      Value  Global                              Global Defined In Module
      -----  --------------------------------   ------------------------
     0000160E  A$Sprite$2693                      Sprite
     0000160E  C$Sprite.c$295$1_0$239             Sprite
     0000160F  A$Sprite$2694                      Sprite
     00001611  A$Sprite$2699                      Sprite
     00001611  C$Sprite.c$297$1_0$239             Sprite
     00001613  A$Sprite$2700                      Sprite
     00001614  A$Sprite$2701                      Sprite
     00001615  A$Sprite$2702                      Sprite
     00001616  A$Sprite$2703                      Sprite
     00001617  A$Sprite$2704                      Sprite
     00001618  A$Sprite$2705                      Sprite
     0000161A  A$Sprite$2706                      Sprite
     0000161B  A$Sprite$2707                      Sprite
     0000161C  A$Sprite$2708                      Sprite
     0000161D  A$Sprite$2709                      Sprite
     00001620  A$Sprite$2710                      Sprite
     00001621  A$Sprite$2711                      Sprite
     00001622  A$Sprite$2712                      Sprite
     00001623  A$Sprite$2713                      Sprite
     00001624  A$Sprite$2714                      Sprite
     00001626  A$Sprite$2717                      Sprite
     00001627  A$Sprite$2718                      Sprite
     00001628  A$Sprite$2719                      Sprite
     0000162A  A$Sprite$2720                      Sprite
     0000162C  A$Sprite$2724                      Sprite
     0000162C  C$Sprite.c$298$1_0$239             Sprite
     0000162E  A$Sprite$2725                      Sprite
     0000162F  A$Sprite$2726                      Sprite
     00001630  A$Sprite$2727                      Sprite
     00001631  A$Sprite$2728                      Sprite
     00001634  A$Sprite$2729                      Sprite
     00001635  A$Sprite$2730                      Sprite
     00001636  A$Sprite$2731                      Sprite
     00001637  A$Sprite$2732                      Sprite
     00001638  A$Sprite$2733                      Sprite
     0000163A  A$Sprite$2734                      Sprite
     0000163B  A$Sprite$2735                      Sprite
     0000163C  A$Sprite$2736                      Sprite
     0000163D  A$Sprite$2737                      Sprite
     0000163F  A$Sprite$2738                      Sprite
     00001641  A$Sprite$2743                      Sprite
     00001641  C$Sprite.c$299$2_0$240             Sprite
     00001642  A$Sprite$2744                      Sprite
     00001644  A$Sprite$2749                      Sprite
     00001644  C$Sprite.c$302$1_0$239             Sprite
     00001646  A$Sprite$2750                      Sprite
     00001647  A$Sprite$2754                      Sprite
     00001647  C$Sprite.c$303$1_0$239             Sprite
     00001648  A$Sprite$2755                      Sprite
     00001649  A$Sprite$2756                      Sprite
     0000164A  A$Sprite$2757                      Sprite
ASxxxx Linker V03.00/V05.40 + sdld,  page 49.
Hexadecimal  [32-Bits]

Area                                    Addr        Size        Decimal Bytes (Attributes)
--------------------------------        ----        ----        ------- ----- ------------
_CODE                               00000200    00002C59 =       11353. bytes (REL,CON)

      Value  Global                              Global Defined In Module
      -----  --------------------------------   ------------------------
     0000164B  A$Sprite$2758                      Sprite
     0000164D  A$Sprite$2759                      Sprite
     0000164E  A$Sprite$2760                      Sprite
     0000164F  A$Sprite$2761                      Sprite
     00001650  A$Sprite$2762                      Sprite
     00001653  A$Sprite$2763                      Sprite
     00001654  A$Sprite$2764                      Sprite
     00001655  A$Sprite$2765                      Sprite
     00001656  A$Sprite$2766                      Sprite
     00001657  A$Sprite$2767                      Sprite
     00001659  A$Sprite$2770                      Sprite
     0000165A  A$Sprite$2771                      Sprite
     0000165B  A$Sprite$2772                      Sprite
     0000165D  A$Sprite$2773                      Sprite
     0000165F  A$Sprite$2777                      Sprite
     0000165F  C$Sprite.c$304$1_0$239             Sprite
     00001661  A$Sprite$2778                      Sprite
     00001662  A$Sprite$2779                      Sprite
     00001663  A$Sprite$2780                      Sprite
     00001664  A$Sprite$2781                      Sprite
     00001667  A$Sprite$2782                      Sprite
     00001668  A$Sprite$2783                      Sprite
     00001669  A$Sprite$2784                      Sprite
     0000166A  A$Sprite$2785                      Sprite
     0000166B  A$Sprite$2786                      Sprite
     0000166D  A$Sprite$2787                      Sprite
     0000166E  A$Sprite$2788                      Sprite
     0000166F  A$Sprite$2789                      Sprite
     00001670  A$Sprite$2790                      Sprite
     00001672  A$Sprite$2791                      Sprite
     00001674  A$Sprite$2796                      Sprite
     00001674  C$Sprite.c$305$2_0$241             Sprite
     00001675  A$Sprite$2797                      Sprite
     00001677  A$Sprite$2802                      Sprite
     00001677  C$Sprite.c$308$1_0$239             Sprite
     00001679  A$Sprite$2807                      Sprite
     0000167B  A$Sprite$2812                      Sprite
     0000167B  C$Sprite.c$309$1_0$239             Sprite
     0000167B  XG$CheckCollision$0$0              Sprite
     0000167C  A$main$159                         main
     0000167C  C$main.c$27$0_0$210                main
     0000167C  G$SetState$0$0                     main
     0000167C  _SetState                          main
     0000167F  A$main$163                         main
     0000167F  C$main.c$28$1_0$210                main
     00001682  A$main$164                         main
     00001684  A$main$175                         main
     00001684  C$main.c$29$1_0$210                main
     00001684  C$main.c$30$1_0$210                main
     00001684  XG$SetState$0$0                    main
     00001685  A$main$188                         main
ASxxxx Linker V03.00/V05.40 + sdld,  page 50.
Hexadecimal  [32-Bits]

Area                                    Addr        Size        Decimal Bytes (Attributes)
--------------------------------        ----        ----        ------- ----- ------------
_CODE                               00000200    00002C59 =       11353. bytes (REL,CON)

      Value  Global                              Global Defined In Module
      -----  --------------------------------   ------------------------
     00001685  C$main.c$34$1_0$211                main
     00001685  C$main.c$35$1_0$211                main
     00001685  G$vbl_update$0$0                   main
     00001685  _vbl_update                        main
     00001688  A$main$189                         main
     00001689  A$main$193                         main
     00001689  C$main.c$37$1_0$211                main
     0000168C  A$main$194                         main
     0000168D  A$main$195                         main
     0000168E  A$main$196                         main
     0000168F  A$main$197                         main
     00001692  A$main$198                         main
     00001693  A$main$199                         main
     00001694  A$main$200                         main
     00001696  A$main$204                         main
     00001696  C$main.c$38$1_0$211                main
     00001699  A$main$205                         main
     0000169A  A$main$206                         main
     0000169B  A$main$207                         main
     0000169C  A$main$208                         main
     0000169F  A$main$209                         main
     000016A0  A$main$210                         main
     000016A1  A$main$211                         main
     000016A3  A$main$215                         main
     000016A3  C$main.c$40$1_0$211                main
     000016A6  A$main$216                         main
     000016A7  A$main$217                         main
     000016A8  A$main$218                         main
     000016A9  A$main$225                         main
     000016A9  C$main.c$41$2_0$212                main
     000016A9  C$main.c$42$2_0$212                main
     000016AA  A$main$226                         main
     000016AB  A$main$227                         main
     000016AC  A$main$231                         main
     000016AC  C$main.c$43$3_0$213                main
     000016AD  A$main$239                         main
     000016AD  C$main.c$46$1_0$211                main
     000016AD  XG$vbl_update$0$0                  main
     000016B0  A$main$252                         main
     000016B0  C$main.c$84$1_0$220                main
     000016B0  C$main.c$85$1_0$220                main
     000016B0  G$SetWindowY$0$0                   main
     000016B0  _SetWindowY                        main
     000016B1  A$main$253                         main
     000016B3  A$main$257                         main
     000016B3  C$main.c$86$1_0$220                main
     000016B4  A$main$258                         main
     000016B5  A$main$259                         main
     000016B7  A$main$263                         main
     000016B7  C$main.c$87$1_0$220                main
     000016B8  A$main$264                         main
ASxxxx Linker V03.00/V05.40 + sdld,  page 51.
Hexadecimal  [32-Bits]

Area                                    Addr        Size        Decimal Bytes (Attributes)
--------------------------------        ----        ----        ------- ----- ------------
_CODE                               00000200    00002C59 =       11353. bytes (REL,CON)

      Value  Global                              Global Defined In Module
      -----  --------------------------------   ------------------------
     000016BA  A$main$265                         main
     000016BC  A$main$269                         main
     000016BC  C$main.c$88$2_0$221                main
     000016BE  A$main$270                         main
     000016C0  A$main$271                         main
     000016C2  A$main$272                         main
     000016C3  A$main$277                         main
     000016C3  C$main.c$90$2_0$222                main
     000016C5  A$main$278                         main
     000016C7  A$main$279                         main
     000016C9  A$main$283                         main
     000016C9  C$main.c$91$2_0$222                main
     000016CB  A$main$284                         main
     000016CD  A$main$292                         main
     000016CD  C$main.c$93$1_0$220                main
     000016CD  XG$SetWindowY$0$0                  main
     000016CE  A$main$305                         main
     000016CE  C$main.c$104$1_0$223               main
     000016CE  C$main.c$106$1_0$223               main
     000016CE  G$main$0$0                         main
     000016CE  _main                              main
     000016D0  A$main$307                         main
     000016D1  A$main$308                         main
     000016D2  A$main$309                         main
     000016D4  A$main$313                         main
     000016D4  C$main.c$107$3_0$225               main
     000016D7  A$main$317                         main
     000016D7  C$main.c$106$2_0$224               main
     000016D8  A$main$318                         main
     000016DA  A$main$323                         main
     000016DA  C$main.c$120$1_0$223               main
     000016DC  A$main$324                         main
     000016DD  A$main$325                         main
     000016DE  A$main$326                         main
     000016E1  A$main$327                         main
     000016E2  A$main$331                         main
     000016E2  C$main.c$121$1_0$223               main
     000016E5  A$main$335                         main
     000016E5  C$main.c$122$1_0$223               main
     000016E8  A$main$339                         main
     000016E8  C$main.c$123$1_0$223               main
     000016EB  A$main$343                         main
     000016EB  C$main.c$140$1_0$223               main
     000016EC  A$main$347                         main
     000016EC  C$main.c$129$2_0$226               main
     000016EE  A$main$348                         main
     000016F0  A$main$352                         main
     000016F0  C$main.c$131$2_0$226               main
     000016F2  A$main$353                         main
     000016F4  A$main$357                         main
     000016F4  C$main.c$134$2_0$226               main
ASxxxx Linker V03.00/V05.40 + sdld,  page 52.
Hexadecimal  [32-Bits]

Area                                    Addr        Size        Decimal Bytes (Attributes)
--------------------------------        ----        ----        ------- ----- ------------
_CODE                               00000200    00002C59 =       11353. bytes (REL,CON)

      Value  Global                              Global Defined In Module
      -----  --------------------------------   ------------------------
     000016F7  A$main$358                         main
     000016FA  A$main$362                         main
     000016FA  C$main.c$136$2_0$226               main
     000016FD  A$main$363                         main
     00001700  A$main$367                         main
     00001700  C$main.c$138$2_0$226               main
     00001702  A$main$368                         main
     00001704  A$main$369                         main
     00001706  A$main$373                         main
     00001706  C$main.c$139$2_0$226               main
     00001709  A$main$374                         main
     0000170C  A$main$375                         main
     0000170D  A$main$379                         main
     0000170D  C$main.c$142$1_0$223               main
     0000170F  A$main$380                         main
     00001712  A$main$384                         main
     00001712  C$main.c$144$1_0$223               main
     00001714  A$main$385                         main
     00001716  A$main$386                         main
     00001718  A$main$390                         main
     00001718  C$main.c$145$1_0$223               main
     0000171A  A$main$391                         main
     0000171C  A$main$399                         main
     0000171C  C$main.c$147$1_0$223               main
     0000171C  C$main.c$148$2_0$227               main
     0000171F  A$main$403                         main
     0000171F  C$main.c$150$2_0$227               main
     00001722  A$main$404                         main
     00001723  A$main$405                         main
     00001725  A$main$409                         main
     00001725  C$main.c$152$3_0$228               main
     00001728  A$main$410                         main
     0000172A  A$main$411                         main
     0000172C  A$main$412                         main
     0000172F  A$main$413                         main
     00001730  A$main$414                         main
     00001733  A$main$415                         main
     00001734  A$main$416                         main
     00001735  A$main$421                         main
     00001735  C$main.c$155$2_0$227               main
     00001738  A$main$425                         main
     00001738  C$main.c$156$2_0$227               main
     0000173B  A$main$426                         main
     0000173D  A$main$430                         main
     0000173D  C$main.c$157$2_0$227               main
     00001740  A$main$431                         main
     00001743  A$main$435                         main
     00001743  C$main.c$158$2_0$227               main
     00001744  A$main$436                         main
     00001747  A$main$437                         main
     00001748  A$main$438                         main
ASxxxx Linker V03.00/V05.40 + sdld,  page 53.
Hexadecimal  [32-Bits]

Area                                    Addr        Size        Decimal Bytes (Attributes)
--------------------------------        ----        ----        ------- ----- ------------
_CODE                               00000200    00002C59 =       11353. bytes (REL,CON)

      Value  Global                              Global Defined In Module
      -----  --------------------------------   ------------------------
     00001749  A$main$442                         main
     00001749  C$main.c$159$2_0$227               main
     0000174C  A$main$443                         main
     0000174E  A$main$447                         main
     0000174E  C$main.c$160$2_0$227               main
     00001751  A$main$448                         main
     00001753  A$main$452                         main
     00001753  C$main.c$171$2_0$227               main
     00001755  A$main$453                         main
     00001757  A$main$454                         main
     00001759  A$main$455                         main
     0000175B  A$main$456                         main
     0000175D  A$main$457                         main
     0000175F  A$main$461                         main
     0000175F  C$main.c$173$2_0$227               main
     00001761  A$main$462                         main
     00001764  A$main$463                         main
     00001765  A$main$464                         main
     00001766  A$main$465                         main
     00001768  A$main$466                         main
     0000176A  A$main$467                         main
     0000176B  A$main$468                         main
     0000176C  A$main$469                         main
     0000176D  A$main$470                         main
     0000176E  A$main$471                         main
     00001771  A$main$472                         main
     00001772  A$main$476                         main
     00001772  C$main.c$174$2_0$227               main
     00001775  A$main$477                         main
     00001778  A$main$478                         main
     00001779  A$main$481                         main
     0000177B  A$main$484                         main
     0000177C  A$main$485                         main
     0000177D  A$main$486                         main
     0000177E  A$main$487                         main
     0000177F  A$main$488                         main
     00001780  A$main$490                         main
     00001781  A$main$493                         main
     00001784  A$main$497                         main
     00001784  C$main.c$175$2_0$227               main
     00001787  A$main$501                         main
     00001787  C$main.c$176$2_0$227               main
     0000178A  A$main$502                         main
     0000178D  A$main$506                         main
     0000178D  C$main.c$177$2_0$227               main
     00001790  A$main$507                         main
     00001793  A$main$511                         main
     00001793  C$main.c$179$2_0$227               main
     00001796  A$main$512                         main
     00001797  A$main$513                         main
     00001799  A$main$517                         main
ASxxxx Linker V03.00/V05.40 + sdld,  page 54.
Hexadecimal  [32-Bits]

Area                                    Addr        Size        Decimal Bytes (Attributes)
--------------------------------        ----        ----        ------- ----- ------------
_CODE                               00000200    00002C59 =       11353. bytes (REL,CON)

      Value  Global                              Global Defined In Module
      -----  --------------------------------   ------------------------
     00001799  C$main.c$180$3_0$229               main
     0000179B  A$main$518                         main
     0000179D  A$main$519                         main
     0000179F  A$main$523                         main
     0000179F  C$main.c$181$3_0$229               main
     000017A2  A$main$529                         main
     000017A2  C$main.c$184$1_0$223               main
     000017A5  A$main$530                         main
     000017A6  A$main$531                         main
     000017A8  A$main$535                         main
     000017A8  C$main.c$185$3_0$230               main
     000017AB  A$main$536                         main
     000017AC  A$main$537                         main
     000017AE  A$main$541                         main
     000017AE  C$main.c$186$3_0$230               main
     000017B1  A$main$546                         main
     000017B1  C$main.c$187$3_0$230               main
     000017B4  A$main$547                         main
     000017B5  A$main$548                         main
     000017B7  A$main$549                         main
     000017B9  A$main$551                         main
     000017BC  A$main$555                         main
     000017BC  C$main.c$188$3_0$230               main
     000017BF  A$main$556                         main
     000017C1  A$main$560                         main
     000017C1  C$main.c$190$3_0$230               main
     000017C4  A$main$561                         main
     000017C7  A$main$562                         main
     000017CA  A$main$563                         main
     000017CD  A$main$567                         main
     000017CD  C$main.c$192$3_0$230               main
     000017D0  A$main$571                         main
     000017D0  C$main.c$193$3_0$230               main
     000017D2  A$main$572                         main
     000017D5  A$main$573                         main
     000017D6  A$main$574                         main
     000017D7  A$main$575                         main
     000017D9  A$main$576                         main
     000017DB  A$main$577                         main
     000017DC  A$main$578                         main
     000017DD  A$main$579                         main
     000017DE  A$main$580                         main
     000017DF  A$main$581                         main
     000017E2  A$main$582                         main
     000017E3  A$main$586                         main
     000017E3  C$main.c$194$3_0$230               main
     000017E6  A$main$587                         main
     000017E7  A$main$590                         main
     000017E9  A$main$593                         main
     000017EA  A$main$594                         main
     000017ED  A$main$595                         main
ASxxxx Linker V03.00/V05.40 + sdld,  page 55.
Hexadecimal  [32-Bits]

Area                                    Addr        Size        Decimal Bytes (Attributes)
--------------------------------        ----        ----        ------- ----- ------------
_CODE                               00000200    00002C59 =       11353. bytes (REL,CON)

      Value  Global                              Global Defined In Module
      -----  --------------------------------   ------------------------
     000017EE  A$main$596                         main
     000017EF  A$main$597                         main
     000017F0  A$main$598                         main
     000017F1  A$main$600                         main
     000017F2  A$main$603                         main
     000017F5  A$main$607                         main
     000017F5  C$main.c$195$3_0$230               main
     000017F8  A$main$608                         main
     000017FA  A$main$613                         main
     000017FA  C$main.c$198$2_0$227               main
     000017FD  A$main$621                         main
     000017FD  C$main.c$200$1_0$223               main
     000017FD  XG$main$0$0                        main
     00001800  A$Scroll$224                       Scroll
     00001800  C$Scroll.c$66$0_0$193              Scroll
     00001800  C$Scroll.c$88$1_0$193              Scroll
     00001800  G$SetTile$0$0                      Scroll
     00001800  _SetTile                           Scroll
     00001802  A$Scroll$225                       Scroll
     00001803  A$Scroll$226                       Scroll
     00001804  A$Scroll$227                       Scroll
     00001805  A$Scroll$228                       Scroll
     00001807  A$Scroll$231                       Scroll
     0000180A  A$Scroll$232                       Scroll
     0000180C  A$Scroll$233                       Scroll
     0000180E  A$Scroll$235                       Scroll
     0000180F  A$Scroll$236                       Scroll
     00001810  A$Scroll$237                       Scroll
     00001811  A$Scroll$245                       Scroll
     00001811  C$Scroll.c$89$1_0$193              Scroll
     00001811  XG$SetTile$0$0                     Scroll
     00001812  A$Scroll$255                       Scroll
     00001812  C$Scroll.c$91$1_0$195              Scroll
     00001812  G$UPDATE_TILE$0$0                  Scroll
     00001812  _UPDATE_TILE                       Scroll
     00001814  A$Scroll$256                       Scroll
     00001816  A$Scroll$257                       Scroll
     00001817  A$Scroll$258                       Scroll
     00001818  A$Scroll$259                       Scroll
     00001819  A$Scroll$260                       Scroll
     0000181B  A$Scroll$261                       Scroll
     0000181C  A$Scroll$262                       Scroll
     0000181D  A$Scroll$266                       Scroll
     0000181D  C$Scroll.c$100$1_0$195             Scroll
     0000181E  A$Scroll$267                       Scroll
     0000181F  A$Scroll$268                       Scroll
     00001820  A$Scroll$269                       Scroll
     00001821  A$Scroll$270                       Scroll
     00001822  A$Scroll$271                       Scroll
     00001825  A$Scroll$272                       Scroll
     00001826  A$Scroll$273                       Scroll
ASxxxx Linker V03.00/V05.40 + sdld,  page 56.
Hexadecimal  [32-Bits]

Area                                    Addr        Size        Decimal Bytes (Attributes)
--------------------------------        ----        ----        ------- ----- ------------
_CODE                               00000200    00002C59 =       11353. bytes (REL,CON)

      Value  Global                              Global Defined In Module
      -----  --------------------------------   ------------------------
     00001827  A$Scroll$274                       Scroll
     00001828  A$Scroll$275                       Scroll
     00001829  A$Scroll$276                       Scroll
     0000182A  A$Scroll$277                       Scroll
     0000182C  A$Scroll$278                       Scroll
     0000182E  A$Scroll$279                       Scroll
     0000182F  A$Scroll$280                       Scroll
     00001830  A$Scroll$281                       Scroll
     00001831  A$Scroll$282                       Scroll
     00001834  A$Scroll$283                       Scroll
     00001835  A$Scroll$284                       Scroll
     00001836  A$Scroll$285                       Scroll
     00001837  A$Scroll$286                       Scroll
     00001838  A$Scroll$287                       Scroll
     00001839  A$Scroll$288                       Scroll
     0000183B  A$Scroll$293                       Scroll
     0000183B  C$Scroll.c$101$2_0$196             Scroll
     0000183D  A$Scroll$294                       Scroll
     0000183F  A$Scroll$295                       Scroll
     00001842  A$Scroll$300                       Scroll
     00001842  C$Scroll.c$103$2_0$197             Scroll
     00001844  A$Scroll$301                       Scroll
     00001845  A$Scroll$302                       Scroll
     00001846  A$Scroll$303                       Scroll
     00001847  A$Scroll$304                       Scroll
     00001848  A$Scroll$308                       Scroll
     00001848  C$Scroll.c$104$2_0$197             Scroll
     0000184A  A$Scroll$309                       Scroll
     0000184B  A$Scroll$310                       Scroll
     0000184C  A$Scroll$311                       Scroll
     0000184D  A$Scroll$312                       Scroll
     00001850  A$Scroll$316                       Scroll
     00001850  C$Scroll.c$105$2_0$197             Scroll
     00001851  A$Scroll$317                       Scroll
     00001852  A$Scroll$318                       Scroll
     00001855  A$Scroll$322                       Scroll
     00001855  C$Scroll.c$106$3_0$198             Scroll
     00001857  A$Scroll$323                       Scroll
     00001858  A$Scroll$324                       Scroll
     00001859  A$Scroll$325                       Scroll
     0000185A  A$Scroll$326                       Scroll
     0000185B  A$Scroll$327                       Scroll
     0000185D  A$Scroll$330                       Scroll
     0000185E  A$Scroll$333                       Scroll
     0000185F  A$Scroll$334                       Scroll
     00001861  A$Scroll$335                       Scroll
     00001862  A$Scroll$336                       Scroll
     00001863  A$Scroll$337                       Scroll
     00001864  A$Scroll$338                       Scroll
     00001865  A$Scroll$339                       Scroll
     00001867  A$Scroll$340                       Scroll
ASxxxx Linker V03.00/V05.40 + sdld,  page 57.
Hexadecimal  [32-Bits]

Area                                    Addr        Size        Decimal Bytes (Attributes)
--------------------------------        ----        ----        ------- ----- ------------
_CODE                               00000200    00002C59 =       11353. bytes (REL,CON)

      Value  Global                              Global Defined In Module
      -----  --------------------------------   ------------------------
     00001868  A$Scroll$341                       Scroll
     00001869  A$Scroll$345                       Scroll
     00001869  C$Scroll.c$107$5_0$200             Scroll
     0000186B  A$Scroll$346                       Scroll
     0000186D  A$Scroll$348                       Scroll
     00001870  A$Scroll$349                       Scroll
     00001871  A$Scroll$350                       Scroll
     00001873  A$Scroll$351                       Scroll
     00001874  A$Scroll$352                       Scroll
     00001875  A$Scroll$353                       Scroll
     00001877  A$Scroll$354                       Scroll
     00001879  A$Scroll$355                       Scroll
     0000187A  A$Scroll$357                       Scroll
     0000187B  A$Scroll$358                       Scroll
     0000187D  A$Scroll$359                       Scroll
     0000187F  A$Scroll$363                       Scroll
     0000187F  C$Scroll.c$108$5_0$200             Scroll
     00001881  A$Scroll$364                       Scroll
     00001882  A$Scroll$365                       Scroll
     00001884  A$Scroll$366                       Scroll
     00001885  A$Scroll$367                       Scroll
     00001888  A$Scroll$368                       Scroll
     00001889  A$Scroll$369                       Scroll
     0000188A  A$Scroll$371                       Scroll
     0000188C  A$Scroll$374                       Scroll
     0000188D  A$Scroll$375                       Scroll
     00001890  A$Scroll$376                       Scroll
     00001891  A$Scroll$377                       Scroll
     00001892  A$Scroll$378                       Scroll
     00001893  A$Scroll$385                       Scroll
     00001893  C$Scroll.c$109$5_0$200             Scroll
     00001894  A$Scroll$386                       Scroll
     00001896  A$Scroll$387                       Scroll
     00001897  A$Scroll$388                       Scroll
     00001898  A$Scroll$389                       Scroll
     0000189A  A$Scroll$390                       Scroll
     0000189B  A$Scroll$391                       Scroll
     0000189C  A$Scroll$392                       Scroll
     0000189D  A$Scroll$393                       Scroll
     0000189E  A$Scroll$394                       Scroll
     0000189F  A$Scroll$395                       Scroll
     000018A1  A$Scroll$396                       Scroll
     000018A4  A$Scroll$397                       Scroll
     000018A5  A$Scroll$398                       Scroll
     000018A6  A$Scroll$399                       Scroll
     000018A7  A$Scroll$400                       Scroll
     000018A8  A$Scroll$401                       Scroll
     000018AA  A$Scroll$402                       Scroll
     000018AB  A$Scroll$403                       Scroll
     000018AC  A$Scroll$404                       Scroll
     000018AD  A$Scroll$405                       Scroll
ASxxxx Linker V03.00/V05.40 + sdld,  page 58.
Hexadecimal  [32-Bits]

Area                                    Addr        Size        Decimal Bytes (Attributes)
--------------------------------        ----        ----        ------- ----- ------------
_CODE                               00000200    00002C59 =       11353. bytes (REL,CON)

      Value  Global                              Global Defined In Module
      -----  --------------------------------   ------------------------
     000018AE  A$Scroll$406                       Scroll
     000018B0  A$Scroll$407                       Scroll
     000018B1  A$Scroll$408                       Scroll
     000018B2  A$Scroll$409                       Scroll
     000018B3  A$Scroll$410                       Scroll
     000018B5  A$Scroll$411                       Scroll
     000018B6  A$Scroll$412                       Scroll
     000018B7  A$Scroll$413                       Scroll
     000018B8  A$Scroll$414                       Scroll
     000018B9  A$Scroll$415                       Scroll
     000018BB  A$Scroll$424                       Scroll
     000018BB  C$Scroll.c$107$4_0$199             Scroll
     000018BB  C$Scroll.c$110$5_0$200             Scroll
     000018BD  A$Scroll$425                       Scroll
     000018BE  A$Scroll$426                       Scroll
     000018C0  A$Scroll$431                       Scroll
     000018C0  C$Scroll.c$114$3_0$198             Scroll
     000018C1  A$Scroll$432                       Scroll
     000018C2  A$Scroll$433                       Scroll
     000018C4  A$Scroll$437                       Scroll
     000018C4  C$Scroll.c$115$4_0$202             Scroll
     000018C7  A$Scroll$438                       Scroll
     000018C9  A$Scroll$439                       Scroll
     000018CA  A$Scroll$440                       Scroll
     000018CB  A$Scroll$441                       Scroll
     000018CC  A$Scroll$442                       Scroll
     000018CD  A$Scroll$443                       Scroll
     000018CE  A$Scroll$444                       Scroll
     000018D1  A$Scroll$445                       Scroll
     000018D2  A$Scroll$446                       Scroll
     000018D3  A$Scroll$450                       Scroll
     000018D3  C$Scroll.c$116$4_0$202             Scroll
     000018D5  A$Scroll$451                       Scroll
     000018D6  A$Scroll$452                       Scroll
     000018D7  A$Scroll$453                       Scroll
     000018D8  A$Scroll$454                       Scroll
     000018D9  A$Scroll$455                       Scroll
     000018DB  A$Scroll$456                       Scroll
     000018DD  A$Scroll$457                       Scroll
     000018DF  A$Scroll$458                       Scroll
     000018E1  A$Scroll$459                       Scroll
     000018E3  A$Scroll$460                       Scroll
     000018E5  A$Scroll$461                       Scroll
     000018E7  A$Scroll$462                       Scroll
     000018E8  A$Scroll$463                       Scroll
     000018E9  A$Scroll$464                       Scroll
     000018EA  A$Scroll$465                       Scroll
     000018EB  A$Scroll$468                       Scroll
     000018ED  A$Scroll$471                       Scroll
     000018EE  A$Scroll$472                       Scroll
     000018F1  A$Scroll$473                       Scroll
ASxxxx Linker V03.00/V05.40 + sdld,  page 59.
Hexadecimal  [32-Bits]

Area                                    Addr        Size        Decimal Bytes (Attributes)
--------------------------------        ----        ----        ------- ----- ------------
_CODE                               00000200    00002C59 =       11353. bytes (REL,CON)

      Value  Global                              Global Defined In Module
      -----  --------------------------------   ------------------------
     000018F2  A$Scroll$474                       Scroll
     000018F3  A$Scroll$475                       Scroll
     000018F4  A$Scroll$477                       Scroll
     000018F5  A$Scroll$480                       Scroll
     000018F6  A$Scroll$481                       Scroll
     000018F7  A$Scroll$482                       Scroll
     000018F9  A$Scroll$483                       Scroll
     000018FA  A$Scroll$484                       Scroll
     000018FB  A$Scroll$485                       Scroll
     000018FC  A$Scroll$486                       Scroll
     000018FD  A$Scroll$487                       Scroll
     000018FE  A$Scroll$488                       Scroll
     000018FF  A$Scroll$489                       Scroll
     00001900  A$Scroll$490                       Scroll
     00001901  A$Scroll$491                       Scroll
     00001902  A$Scroll$492                       Scroll
     00001903  A$Scroll$493                       Scroll
     00001904  A$Scroll$494                       Scroll
     00001905  A$Scroll$495                       Scroll
     00001906  A$Scroll$496                       Scroll
     00001907  A$Scroll$497                       Scroll
     00001908  A$Scroll$498                       Scroll
     00001909  A$Scroll$499                       Scroll
     0000190A  A$Scroll$500                       Scroll
     0000190B  A$Scroll$501                       Scroll
     0000190D  A$Scroll$502                       Scroll
     0000190E  A$Scroll$503                       Scroll
     0000190F  A$Scroll$504                       Scroll
     00001910  A$Scroll$508                       Scroll
     00001910  C$Scroll.c$117$4_0$202             Scroll
     00001911  A$Scroll$509                       Scroll
     00001914  A$Scroll$510                       Scroll
     00001915  A$Scroll$514                       Scroll
     00001915  C$Scroll.c$118$4_0$202             Scroll
     00001917  A$Scroll$515                       Scroll
     00001918  A$Scroll$516                       Scroll
     00001919  A$Scroll$517                       Scroll
     0000191A  A$Scroll$518                       Scroll
     0000191C  A$Scroll$519                       Scroll
     0000191E  A$Scroll$520                       Scroll
     00001920  A$Scroll$521                       Scroll
     00001922  A$Scroll$522                       Scroll
     00001924  A$Scroll$523                       Scroll
     00001926  A$Scroll$524                       Scroll
     00001928  A$Scroll$525                       Scroll
     00001929  A$Scroll$526                       Scroll
     0000192A  A$Scroll$529                       Scroll
     0000192B  A$Scroll$532                       Scroll
     0000192C  A$Scroll$533                       Scroll
     0000192D  A$Scroll$534                       Scroll
     00001930  A$Scroll$539                       Scroll
ASxxxx Linker V03.00/V05.40 + sdld,  page 60.
Hexadecimal  [32-Bits]

Area                                    Addr        Size        Decimal Bytes (Attributes)
--------------------------------        ----        ----        ------- ----- ------------
_CODE                               00000200    00002C59 =       11353. bytes (REL,CON)

      Value  Global                              Global Defined In Module
      -----  --------------------------------   ------------------------
     00001930  C$Scroll.c$123$1_0$195             Scroll
     00001933  A$Scroll$540                       Scroll
     00001934  A$Scroll$541                       Scroll
     00001936  A$Scroll$542                       Scroll
     00001938  A$Scroll$543                       Scroll
     00001939  A$Scroll$544                       Scroll
     0000193A  A$Scroll$545                       Scroll
     0000193B  A$Scroll$546                       Scroll
     0000193C  A$Scroll$547                       Scroll
     0000193D  A$Scroll$548                       Scroll
     0000193F  A$Scroll$549                       Scroll
     00001941  A$Scroll$554                       Scroll
     00001942  A$Scroll$555                       Scroll
     00001943  A$Scroll$556                       Scroll
     00001945  A$Scroll$557                       Scroll
     00001946  A$Scroll$558                       Scroll
     00001949  A$Scroll$559                       Scroll
     0000194A  A$Scroll$560                       Scroll
     0000194C  A$Scroll$561                       Scroll
     0000194E  A$Scroll$562                       Scroll
     0000194F  A$Scroll$563                       Scroll
     00001950  A$Scroll$564                       Scroll
     00001951  A$Scroll$565                       Scroll
     00001952  A$Scroll$566                       Scroll
     00001953  A$Scroll$567                       Scroll
     00001955  A$Scroll$568                       Scroll
     00001957  A$Scroll$571                       Scroll
     00001958  A$Scroll$572                       Scroll
     00001959  A$Scroll$573                       Scroll
     0000195A  A$Scroll$574                       Scroll
     0000195B  A$Scroll$575                       Scroll
     0000195C  A$Scroll$576                       Scroll
     0000195D  A$Scroll$577                       Scroll
     0000195E  A$Scroll$578                       Scroll
     0000195F  A$Scroll$579                       Scroll
     00001960  A$Scroll$583                       Scroll
     00001960  C$Scroll.c$124$1_0$195             Scroll
     00001962  A$Scroll$584                       Scroll
     00001963  A$Scroll$585                       Scroll
     00001964  A$Scroll$586                       Scroll
     00001965  A$Scroll$587                       Scroll
     00001966  A$Scroll$588                       Scroll
     00001969  A$Scroll$592                       Scroll
     00001969  C$Scroll.c$137$1_0$195             Scroll
     0000196B  A$Scroll$593                       Scroll
     0000196C  A$Scroll$594                       Scroll
     0000196E  A$Scroll$595                       Scroll
     0000196F  A$Scroll$605                       Scroll
     0000196F  C$Scroll.c$140$1_0$204             Scroll
     0000196F  G$ScrollSetTiles$0$0               Scroll
     0000196F  _ScrollSetTiles                    Scroll
ASxxxx Linker V03.00/V05.40 + sdld,  page 61.
Hexadecimal  [32-Bits]

Area                                    Addr        Size        Decimal Bytes (Attributes)
--------------------------------        ----        ----        ------- ----- ------------
_CODE                               00000200    00002C59 =       11353. bytes (REL,CON)

      Value  Global                              Global Defined In Module
      -----  --------------------------------   ------------------------
     00001971  A$Scroll$606                       Scroll
     00001973  A$Scroll$610                       Scroll
     00001973  C$Scroll.c$145$2_0$204             Scroll
     00001974  A$Scroll$611                       Scroll
     00001976  A$Scroll$612                       Scroll
     00001977  A$Scroll$613                       Scroll
     00001979  A$Scroll$617                       Scroll
     00001979  C$Scroll.c$150$1_0$204             Scroll
     0000197B  A$Scroll$618                       Scroll
     0000197C  A$Scroll$619                       Scroll
     0000197D  A$Scroll$620                       Scroll
     0000197E  A$Scroll$624                       Scroll
     0000197E  C$Scroll.c$147$1_0$204             Scroll
     00001980  A$Scroll$625                       Scroll
     00001981  A$Scroll$626                       Scroll
     00001982  A$Scroll$627                       Scroll
     00001984  A$Scroll$631                       Scroll
     00001984  C$Scroll.c$149$2_0$205             Scroll
     00001987  A$Scroll$632                       Scroll
     00001988  A$Scroll$636                       Scroll
     00001988  C$Scroll.c$150$2_0$205             Scroll
     0000198B  A$Scroll$637                       Scroll
     0000198C  A$Scroll$638                       Scroll
     0000198D  A$Scroll$639                       Scroll
     0000198E  A$Scroll$644                       Scroll
     0000198E  C$Scroll.c$153$1_0$204             Scroll
     0000198F  A$Scroll$645                       Scroll
     00001990  A$Scroll$646                       Scroll
     00001991  A$Scroll$647                       Scroll
     00001992  A$Scroll$648                       Scroll
     00001995  A$Scroll$649                       Scroll
     00001996  A$Scroll$650                       Scroll
     00001997  A$Scroll$654                       Scroll
     00001997  C$Scroll.c$154$1_0$204             Scroll
     00001998  A$Scroll$655                       Scroll
     0000199A  A$Scroll$656                       Scroll
     0000199B  A$Scroll$660                       Scroll
     0000199B  C$Scroll.c$155$1_0$204             Scroll
     0000199E  A$Scroll$661                       Scroll
     0000199F  A$Scroll$662                       Scroll
     000019A0  A$Scroll$663                       Scroll
     000019A1  A$Scroll$664                       Scroll
     000019A2  A$Scroll$665                       Scroll
     000019A4  A$Scroll$666                       Scroll
     000019A5  A$Scroll$667                       Scroll
     000019A6  A$Scroll$668                       Scroll
     000019A7  A$Scroll$669                       Scroll
     000019A8  A$Scroll$673                       Scroll
     000019A8  C$Scroll.c$157$1_0$204             Scroll
     000019A9  A$Scroll$674                       Scroll
     000019AA  A$Scroll$675                       Scroll
ASxxxx Linker V03.00/V05.40 + sdld,  page 62.
Hexadecimal  [32-Bits]

Area                                    Addr        Size        Decimal Bytes (Attributes)
--------------------------------        ----        ----        ------- ----- ------------
_CODE                               00000200    00002C59 =       11353. bytes (REL,CON)

      Value  Global                              Global Defined In Module
      -----  --------------------------------   ------------------------
     000019AB  A$Scroll$676                       Scroll
     000019AC  A$Scroll$677                       Scroll
     000019AD  A$Scroll$678                       Scroll
     000019AE  A$Scroll$679                       Scroll
     000019AF  A$Scroll$680                       Scroll
     000019B1  A$Scroll$681                       Scroll
     000019B2  A$Scroll$682                       Scroll
     000019B3  A$Scroll$683                       Scroll
     000019B4  A$Scroll$684                       Scroll
     000019B5  A$Scroll$685                       Scroll
     000019B8  A$Scroll$686                       Scroll
     000019BA  A$Scroll$690                       Scroll
     000019BA  C$Scroll.c$158$1_0$204             Scroll
     000019BC  A$Scroll$691                       Scroll
     000019BD  A$Scroll$692                       Scroll
     000019BE  A$Scroll$693                       Scroll
     000019C1  A$Scroll$697                       Scroll
     000019C1  C$Scroll.c$159$3_0$207             Scroll
     000019C3  A$Scroll$698                       Scroll
     000019C4  A$Scroll$700                       Scroll
     000019C7  A$Scroll$701                       Scroll
     000019C8  A$Scroll$702                       Scroll
     000019CA  A$Scroll$706                       Scroll
     000019CA  C$Scroll.c$160$3_0$207             Scroll
     000019CD  A$Scroll$707                       Scroll
     000019CE  A$Scroll$708                       Scroll
     000019D0  A$Scroll$709                       Scroll
     000019D1  A$Scroll$710                       Scroll
     000019D2  A$Scroll$711                       Scroll
     000019D3  A$Scroll$712                       Scroll
     000019D5  A$Scroll$713                       Scroll
     000019D6  A$Scroll$714                       Scroll
     000019D7  A$Scroll$715                       Scroll
     000019D8  A$Scroll$716                       Scroll
     000019DA  A$Scroll$717                       Scroll
     000019DB  A$Scroll$718                       Scroll
     000019DC  A$Scroll$719                       Scroll
     000019DD  A$Scroll$720                       Scroll
     000019DE  A$Scroll$721                       Scroll
     000019E0  A$Scroll$722                       Scroll
     000019E1  A$Scroll$723                       Scroll
     000019E3  A$Scroll$724                       Scroll
     000019E5  A$Scroll$725                       Scroll
     000019E6  A$Scroll$726                       Scroll
     000019E8  A$Scroll$727                       Scroll
     000019E9  A$Scroll$728                       Scroll
     000019EA  A$Scroll$729                       Scroll
     000019EB  A$Scroll$730                       Scroll
     000019EC  A$Scroll$731                       Scroll
     000019ED  A$Scroll$732                       Scroll
     000019EF  A$Scroll$733                       Scroll
ASxxxx Linker V03.00/V05.40 + sdld,  page 63.
Hexadecimal  [32-Bits]

Area                                    Addr        Size        Decimal Bytes (Attributes)
--------------------------------        ----        ----        ------- ----- ------------
_CODE                               00000200    00002C59 =       11353. bytes (REL,CON)

      Value  Global                              Global Defined In Module
      -----  --------------------------------   ------------------------
     000019F0  A$Scroll$734                       Scroll
     000019F1  A$Scroll$735                       Scroll
     000019F2  A$Scroll$736                       Scroll
     000019F3  A$Scroll$737                       Scroll
     000019F4  A$Scroll$738                       Scroll
     000019F5  A$Scroll$739                       Scroll
     000019F6  A$Scroll$740                       Scroll
     000019F8  A$Scroll$742                       Scroll
     000019F9  A$Scroll$744                       Scroll
     000019FA  A$Scroll$745                       Scroll
     000019FC  A$Scroll$746                       Scroll
     000019FD  A$Scroll$747                       Scroll
     000019FE  A$Scroll$748                       Scroll
     000019FF  A$Scroll$749                       Scroll
     00001A00  A$Scroll$753                       Scroll
     00001A00  C$Scroll.c$159$2_0$206             Scroll
     00001A01  A$Scroll$754                       Scroll
     00001A03  A$Scroll$759                       Scroll
     00001A03  C$Scroll.c$179$1_0$204             Scroll
     00001A06  A$Scroll$763                       Scroll
     00001A06  C$Scroll.c$181$1_0$204             Scroll
     00001A07  A$Scroll$764                       Scroll
     00001A08  A$Scroll$768                       Scroll
     00001A08  C$Scroll.c$182$1_0$204             Scroll
     00001A0A  A$Scroll$769                       Scroll
     00001A0B  A$Scroll$770                       Scroll
     00001A0C  A$Scroll$771                       Scroll
     00001A0D  A$Scroll$781                       Scroll
     00001A0D  C$Scroll.c$184$1_0$209             Scroll
     00001A0D  G$UpdateMapTile$0$0                Scroll
     00001A0D  _UpdateMapTile                     Scroll
     00001A0E  A$Scroll$782                       Scroll
     00001A0F  A$Scroll$789                       Scroll
     00001A0F  C$Scroll.c$187$1_1$210             Scroll
     00001A0F  C$Scroll.c$188$1_1$210             Scroll
     00001A11  A$Scroll$790                       Scroll
     00001A12  A$Scroll$791                       Scroll
     00001A13  A$Scroll$792                       Scroll
     00001A14  A$Scroll$793                       Scroll
     00001A15  A$Scroll$797                       Scroll
     00001A15  C$Scroll.c$189$1_1$210             Scroll
     00001A16  A$Scroll$798                       Scroll
     00001A17  A$Scroll$799                       Scroll
     00001A19  A$Scroll$803                       Scroll
     00001A19  C$Scroll.c$190$1_1$210             Scroll
     00001A1A  A$Scroll$804                       Scroll
     00001A1B  A$Scroll$805                       Scroll
     00001A1C  A$Scroll$806                       Scroll
     00001A1E  A$Scroll$807                       Scroll
     00001A1F  A$Scroll$808                       Scroll
     00001A20  A$Scroll$809                       Scroll
ASxxxx Linker V03.00/V05.40 + sdld,  page 64.
Hexadecimal  [32-Bits]

Area                                    Addr        Size        Decimal Bytes (Attributes)
--------------------------------        ----        ----        ------- ----- ------------
_CODE                               00000200    00002C59 =       11353. bytes (REL,CON)

      Value  Global                              Global Defined In Module
      -----  --------------------------------   ------------------------
     00001A21  A$Scroll$810                       Scroll
     00001A22  A$Scroll$811                       Scroll
     00001A23  A$Scroll$812                       Scroll
     00001A26  A$Scroll$813                       Scroll
     00001A28  A$Scroll$814                       Scroll
     00001A2A  A$Scroll$819                       Scroll
     00001A2A  C$Scroll.c$192$1_1$210             Scroll
     00001A2C  A$Scroll$820                       Scroll
     00001A2D  A$Scroll$821                       Scroll
     00001A2E  A$Scroll$822                       Scroll
     00001A2F  A$Scroll$823                       Scroll
     00001A31  A$Scroll$824                       Scroll
     00001A32  A$Scroll$825                       Scroll
     00001A33  A$Scroll$826                       Scroll
     00001A34  A$Scroll$827                       Scroll
     00001A35  A$Scroll$828                       Scroll
     00001A36  A$Scroll$829                       Scroll
     00001A39  A$Scroll$830                       Scroll
     00001A3B  A$Scroll$835                       Scroll
     00001A3B  C$Scroll.c$208$1_1$209             Scroll
     00001A3C  A$Scroll$836                       Scroll
     00001A3E  A$Scroll$837                       Scroll
     00001A3F  A$Scroll$847                       Scroll
     00001A3F  C$Scroll.c$210$1_1$212             Scroll
     00001A3F  G$LoadMap$0$0                      Scroll
     00001A3F  _LoadMap                           Scroll
     00001A41  A$Scroll$848                       Scroll
     00001A43  A$Scroll$849                       Scroll
     00001A44  A$Scroll$850                       Scroll
     00001A45  A$Scroll$854                       Scroll
     00001A45  C$Scroll.c$211$1_0$212             Scroll
     00001A47  A$Scroll$855                       Scroll
     00001A48  A$Scroll$856                       Scroll
     00001A49  A$Scroll$857                       Scroll
     00001A4A  A$Scroll$858                       Scroll
     00001A4D  A$Scroll$859                       Scroll
     00001A4E  A$Scroll$863                       Scroll
     00001A4E  C$Scroll.c$214$1_1$213             Scroll
     00001A50  A$Scroll$864                       Scroll
     00001A51  A$Scroll$865                       Scroll
     00001A52  A$Scroll$866                       Scroll
     00001A53  A$Scroll$867                       Scroll
     00001A56  A$Scroll$868                       Scroll
     00001A57  A$Scroll$869                       Scroll
     00001A58  A$Scroll$870                       Scroll
     00001A5A  A$Scroll$871                       Scroll
     00001A5B  A$Scroll$872                       Scroll
     00001A5E  A$Scroll$873                       Scroll
     00001A5F  A$Scroll$874                       Scroll
     00001A60  A$Scroll$875                       Scroll
     00001A61  A$Scroll$876                       Scroll
ASxxxx Linker V03.00/V05.40 + sdld,  page 65.
Hexadecimal  [32-Bits]

Area                                    Addr        Size        Decimal Bytes (Attributes)
--------------------------------        ----        ----        ------- ----- ------------
_CODE                               00000200    00002C59 =       11353. bytes (REL,CON)

      Value  Global                              Global Defined In Module
      -----  --------------------------------   ------------------------
     00001A63  A$Scroll$877                       Scroll
     00001A64  A$Scroll$878                       Scroll
     00001A65  A$Scroll$879                       Scroll
     00001A66  A$Scroll$880                       Scroll
     00001A68  A$Scroll$881                       Scroll
     00001A69  A$Scroll$882                       Scroll
     00001A6C  A$Scroll$883                       Scroll
     00001A6E  A$Scroll$884                       Scroll
     00001A6F  A$Scroll$885                       Scroll
     00001A71  A$Scroll$886                       Scroll
     00001A73  A$Scroll$887                       Scroll
     00001A74  A$Scroll$888                       Scroll
     00001A75  A$Scroll$889                       Scroll
     00001A76  A$Scroll$890                       Scroll
     00001A77  A$Scroll$891                       Scroll
     00001A79  A$Scroll$892                       Scroll
     00001A7A  A$Scroll$893                       Scroll
     00001A7B  A$Scroll$894                       Scroll
     00001A7C  A$Scroll$895                       Scroll
     00001A7D  A$Scroll$896                       Scroll
     00001A80  A$Scroll$897                       Scroll
     00001A82  A$Scroll$898                       Scroll
     00001A83  A$Scroll$899                       Scroll
     00001A85  A$Scroll$900                       Scroll
     00001A88  A$Scroll$901                       Scroll
     00001A8A  A$Scroll$902                       Scroll
     00001A8B  A$Scroll$903                       Scroll
     00001A8D  A$Scroll$904                       Scroll
     00001A8E  A$Scroll$905                       Scroll
     00001A90  A$Scroll$907                       Scroll
     00001A92  A$Scroll$912                       Scroll
     00001A92  C$Scroll.c$215$1_1$213             Scroll
     00001A94  A$Scroll$913                       Scroll
     00001A96  A$Scroll$914                       Scroll
     00001A97  A$Scroll$915                       Scroll
     00001A99  A$Scroll$919                       Scroll
     00001A99  C$Scroll.c$216$1_1$213             Scroll
     00001A9A  A$Scroll$920                       Scroll
     00001A9C  A$Scroll$924                       Scroll
     00001A9C  C$Scroll.c$217$1_1$213             Scroll
     00001A9E  A$Scroll$925                       Scroll
     00001A9F  A$Scroll$926                       Scroll
     00001AA0  A$Scroll$927                       Scroll
     00001AA1  A$Scroll$928                       Scroll
     00001AA2  A$Scroll$929                       Scroll
     00001AA3  A$Scroll$932                       Scroll
     00001AA4  A$Scroll$933                       Scroll
     00001AA5  A$Scroll$934                       Scroll
     00001AA6  A$Scroll$937                       Scroll
     00001AA7  A$Scroll$938                       Scroll
     00001AA8  A$Scroll$939                       Scroll
ASxxxx Linker V03.00/V05.40 + sdld,  page 66.
Hexadecimal  [32-Bits]

Area                                    Addr        Size        Decimal Bytes (Attributes)
--------------------------------        ----        ----        ------- ----- ------------
_CODE                               00000200    00002C59 =       11353. bytes (REL,CON)

      Value  Global                              Global Defined In Module
      -----  --------------------------------   ------------------------
     00001AAA  A$Scroll$940                       Scroll
     00001AAB  A$Scroll$941                       Scroll
     00001AAE  A$Scroll$942                       Scroll
     00001AB1  A$Scroll$943                       Scroll
     00001AB3  A$Scroll$944                       Scroll
     00001AB4  A$Scroll$945                       Scroll
     00001AB5  A$Scroll$946                       Scroll
     00001AB6  A$Scroll$947                       Scroll
     00001AB7  A$Scroll$952                       Scroll
     00001AB7  C$Scroll.c$220$1_2$214             Scroll
     00001AB8  A$Scroll$953                       Scroll
     00001AB9  A$Scroll$954                       Scroll
     00001ABA  A$Scroll$955                       Scroll
     00001ABC  A$Scroll$956                       Scroll
     00001ABD  A$Scroll$957                       Scroll
     00001ABE  A$Scroll$958                       Scroll
     00001ABF  A$Scroll$959                       Scroll
     00001AC0  A$Scroll$963                       Scroll
     00001AC0  C$Scroll.c$221$1_2$214             Scroll
     00001AC3  A$Scroll$964                       Scroll
     00001AC4  A$Scroll$965                       Scroll
     00001AC5  A$Scroll$966                       Scroll
     00001AC6  A$Scroll$967                       Scroll
     00001AC7  A$Scroll$968                       Scroll
     00001AC9  A$Scroll$969                       Scroll
     00001ACA  A$Scroll$970                       Scroll
     00001ACB  A$Scroll$971                       Scroll
     00001ACC  A$Scroll$972                       Scroll
     00001ACD  A$Scroll$976                       Scroll
     00001ACD  C$Scroll.c$222$4_2$217             Scroll
     00001AD0  A$Scroll$977                       Scroll
     00001AD1  A$Scroll$978                       Scroll
     00001AD2  A$Scroll$979                       Scroll
     00001AD3  A$Scroll$980                       Scroll
     00001AD5  A$Scroll$981                       Scroll
     00001AD6  A$Scroll$982                       Scroll
     00001AD7  A$Scroll$983                       Scroll
     00001AD8  A$Scroll$984                       Scroll
     00001ADA  A$Scroll$985                       Scroll
     00001ADB  A$Scroll$986                       Scroll
     00001ADC  A$Scroll$987                       Scroll
     00001ADD  A$Scroll$988                       Scroll
     00001ADE  A$Scroll$989                       Scroll
     00001ADF  A$Scroll$990                       Scroll
     00001AE0  A$Scroll$991                       Scroll
     00001AE1  A$Scroll$992                       Scroll
     00001AE3  A$Scroll$993                       Scroll
     00001AE5  A$Scroll$995                       Scroll
     00001AE7  A$Scroll$996                       Scroll
     00001AE8  A$Scroll$997                       Scroll
     00001AE9  A$Scroll$998                       Scroll
ASxxxx Linker V03.00/V05.40 + sdld,  page 67.
Hexadecimal  [32-Bits]

Area                                    Addr        Size        Decimal Bytes (Attributes)
--------------------------------        ----        ----        ------- ----- ------------
_CODE                               00000200    00002C59 =       11353. bytes (REL,CON)

      Value  Global                              Global Defined In Module
      -----  --------------------------------   ------------------------
     00001AEA  A$Scroll$999                       Scroll
     00001AEB  A$Scroll$1000                      Scroll
     00001AEC  A$Scroll$1001                      Scroll
     00001AEE  A$Scroll$1002                      Scroll
     00001AEF  A$Scroll$1003                      Scroll
     00001AF0  A$Scroll$1004                      Scroll
     00001AF2  A$Scroll$1008                      Scroll
     00001AF2  C$Scroll.c$223$5_2$218             Scroll
     00001AF4  A$Scroll$1009                      Scroll
     00001AF5  A$Scroll$1010                      Scroll
     00001AF7  A$Scroll$1011                      Scroll
     00001AF8  A$Scroll$1012                      Scroll
     00001AFA  A$Scroll$1013                      Scroll
     00001AFB  A$Scroll$1014                      Scroll
     00001AFD  A$Scroll$1015                      Scroll
     00001AFE  A$Scroll$1016                      Scroll
     00001B00  A$Scroll$1017                      Scroll
     00001B01  A$Scroll$1018                      Scroll
     00001B03  A$Scroll$1019                      Scroll
     00001B04  A$Scroll$1020                      Scroll
     00001B06  A$Scroll$1021                      Scroll
     00001B07  A$Scroll$1022                      Scroll
     00001B09  A$Scroll$1024                      Scroll
     00001B0B  A$Scroll$1025                      Scroll
     00001B0C  A$Scroll$1026                      Scroll
     00001B0D  A$Scroll$1027                      Scroll
     00001B0E  A$Scroll$1028                      Scroll
     00001B0F  A$Scroll$1029                      Scroll
     00001B10  A$Scroll$1030                      Scroll
     00001B12  A$Scroll$1031                      Scroll
     00001B13  A$Scroll$1032                      Scroll
     00001B14  A$Scroll$1033                      Scroll
     00001B16  A$Scroll$1037                      Scroll
     00001B16  C$Scroll.c$224$5_2$218             Scroll
     00001B17  A$Scroll$1038                      Scroll
     00001B18  A$Scroll$1039                      Scroll
     00001B19  A$Scroll$1040                      Scroll
     00001B1A  A$Scroll$1041                      Scroll
     00001B1B  A$Scroll$1042                      Scroll
     00001B1C  A$Scroll$1043                      Scroll
     00001B1D  A$Scroll$1044                      Scroll
     00001B1F  A$Scroll$1045                      Scroll
     00001B20  A$Scroll$1046                      Scroll
     00001B22  A$Scroll$1047                      Scroll
     00001B23  A$Scroll$1048                      Scroll
     00001B24  A$Scroll$1049                      Scroll
     00001B26  A$Scroll$1050                      Scroll
     00001B27  A$Scroll$1051                      Scroll
     00001B28  A$Scroll$1052                      Scroll
     00001B29  A$Scroll$1053                      Scroll
     00001B2A  A$Scroll$1054                      Scroll
ASxxxx Linker V03.00/V05.40 + sdld,  page 68.
Hexadecimal  [32-Bits]

Area                                    Addr        Size        Decimal Bytes (Attributes)
--------------------------------        ----        ----        ------- ----- ------------
_CODE                               00000200    00002C59 =       11353. bytes (REL,CON)

      Value  Global                              Global Defined In Module
      -----  --------------------------------   ------------------------
     00001B2B  A$Scroll$1055                      Scroll
     00001B2C  A$Scroll$1056                      Scroll
     00001B2E  A$Scroll$1057                      Scroll
     00001B2F  A$Scroll$1058                      Scroll
     00001B30  A$Scroll$1059                      Scroll
     00001B31  A$Scroll$1060                      Scroll
     00001B32  A$Scroll$1061                      Scroll
     00001B34  A$Scroll$1062                      Scroll
     00001B35  A$Scroll$1063                      Scroll
     00001B36  A$Scroll$1064                      Scroll
     00001B37  A$Scroll$1065                      Scroll
     00001B38  A$Scroll$1066                      Scroll
     00001B39  A$Scroll$1067                      Scroll
     00001B3A  A$Scroll$1068                      Scroll
     00001B3D  A$Scroll$1072                      Scroll
     00001B3D  C$Scroll.c$226$5_2$218             Scroll
     00001B3F  A$Scroll$1073                      Scroll
     00001B40  A$Scroll$1074                      Scroll
     00001B42  A$Scroll$1075                      Scroll
     00001B43  A$Scroll$1076                      Scroll
     00001B44  A$Scroll$1081                      Scroll
     00001B44  C$Scroll.c$227$5_2$218             Scroll
     00001B46  A$Scroll$1082                      Scroll
     00001B47  A$Scroll$1083                      Scroll
     00001B48  A$Scroll$1084                      Scroll
     00001B4A  A$Scroll$1088                      Scroll
     00001B4A  C$Scroll.c$228$5_2$218             Scroll
     00001B4B  A$Scroll$1089                      Scroll
     00001B4D  A$Scroll$1090                      Scroll
     00001B4E  A$Scroll$1091                      Scroll
     00001B4F  A$Scroll$1097                      Scroll
     00001B4F  C$Scroll.c$223$4_2$217             Scroll
     00001B51  A$Scroll$1098                      Scroll
     00001B52  A$Scroll$1099                      Scroll
     00001B54  A$Scroll$1101                      Scroll
     00001B56  A$Scroll$1102                      Scroll
     00001B57  A$Scroll$1103                      Scroll
     00001B59  A$Scroll$1104                      Scroll
     00001B5A  A$Scroll$1105                      Scroll
     00001B5C  A$Scroll$1106                      Scroll
     00001B5D  A$Scroll$1107                      Scroll
     00001B5F  A$Scroll$1108                      Scroll
     00001B60  A$Scroll$1112                      Scroll
     00001B60  C$Scroll.c$222$2_2$215             Scroll
     00001B62  A$Scroll$1113                      Scroll
     00001B63  A$Scroll$1114                      Scroll
     00001B66  A$Scroll$1119                      Scroll
     00001B66  C$Scroll.c$232$1_2$214             Scroll
     00001B69  A$Scroll$1123                      Scroll
     00001B69  C$Scroll.c$235$1_2$214             Scroll
     00001B6B  A$Scroll$1124                      Scroll
ASxxxx Linker V03.00/V05.40 + sdld,  page 69.
Hexadecimal  [32-Bits]

Area                                    Addr        Size        Decimal Bytes (Attributes)
--------------------------------        ----        ----        ------- ----- ------------
_CODE                               00000200    00002C59 =       11353. bytes (REL,CON)

      Value  Global                              Global Defined In Module
      -----  --------------------------------   ------------------------
     00001B6C  A$Scroll$1125                      Scroll
     00001B6D  A$Scroll$1126                      Scroll
     00001B6E  A$Scroll$1130                      Scroll
     00001B6E  C$Scroll.c$236$1_2$212             Scroll
     00001B70  A$Scroll$1131                      Scroll
     00001B71  A$Scroll$1132                      Scroll
     00001B73  A$Scroll$1133                      Scroll
     00001B74  A$Scroll$1146                      Scroll
     00001B74  C$Scroll.c$240$1_2$219             Scroll
     00001B74  C$Scroll.c$241$1_0$219             Scroll
     00001B74  G$ClampScrollLimits$0$0            Scroll
     00001B74  _ClampScrollLimits                 Scroll
     00001B77  A$Scroll$1147                      Scroll
     00001B78  A$Scroll$1148                      Scroll
     00001B79  A$Scroll$1152                      Scroll
     00001B79  C$Scroll.c$242$2_0$220             Scroll
     00001B7C  A$Scroll$1153                      Scroll
     00001B7D  A$Scroll$1154                      Scroll
     00001B7E  A$Scroll$1157                      Scroll
     00001B7F  A$Scroll$1158                      Scroll
     00001B81  A$Scroll$1162                      Scroll
     00001B81  C$Scroll.c$243$3_0$221             Scroll
     00001B82  A$Scroll$1163                      Scroll
     00001B85  A$Scroll$1164                      Scroll
     00001B86  A$Scroll$1165                      Scroll
     00001B87  A$Scroll$1170                      Scroll
     00001B87  C$Scroll.c$245$2_0$220             Scroll
     00001B8A  A$Scroll$1171                      Scroll
     00001B8B  A$Scroll$1172                      Scroll
     00001B8D  A$Scroll$1173                      Scroll
     00001B8E  A$Scroll$1174                      Scroll
     00001B8F  A$Scroll$1175                      Scroll
     00001B91  A$Scroll$1176                      Scroll
     00001B92  A$Scroll$1177                      Scroll
     00001B95  A$Scroll$1178                      Scroll
     00001B96  A$Scroll$1179                      Scroll
     00001B97  A$Scroll$1180                      Scroll
     00001B98  A$Scroll$1181                      Scroll
     00001B99  A$Scroll$1182                      Scroll
     00001B9A  A$Scroll$1183                      Scroll
     00001B9B  A$Scroll$1184                      Scroll
     00001B9C  A$Scroll$1185                      Scroll
     00001B9E  A$Scroll$1189                      Scroll
     00001B9E  C$Scroll.c$246$3_0$222             Scroll
     00001B9F  A$Scroll$1190                      Scroll
     00001BA0  A$Scroll$1191                      Scroll
     00001BA1  A$Scroll$1192                      Scroll
     00001BA2  A$Scroll$1197                      Scroll
     00001BA2  C$Scroll.c$248$2_0$220             Scroll
     00001BA5  A$Scroll$1198                      Scroll
     00001BA6  A$Scroll$1199                      Scroll
ASxxxx Linker V03.00/V05.40 + sdld,  page 70.
Hexadecimal  [32-Bits]

Area                                    Addr        Size        Decimal Bytes (Attributes)
--------------------------------        ----        ----        ------- ----- ------------
_CODE                               00000200    00002C59 =       11353. bytes (REL,CON)

      Value  Global                              Global Defined In Module
      -----  --------------------------------   ------------------------
     00001BA7  A$Scroll$1202                      Scroll
     00001BA8  A$Scroll$1203                      Scroll
     00001BAA  A$Scroll$1207                      Scroll
     00001BAA  C$Scroll.c$249$3_0$223             Scroll
     00001BAB  A$Scroll$1208                      Scroll
     00001BAE  A$Scroll$1209                      Scroll
     00001BAF  A$Scroll$1210                      Scroll
     00001BB0  A$Scroll$1215                      Scroll
     00001BB0  C$Scroll.c$251$2_0$220             Scroll
     00001BB3  A$Scroll$1216                      Scroll
     00001BB4  A$Scroll$1217                      Scroll
     00001BB6  A$Scroll$1218                      Scroll
     00001BB7  A$Scroll$1219                      Scroll
     00001BB8  A$Scroll$1220                      Scroll
     00001BBA  A$Scroll$1221                      Scroll
     00001BBB  A$Scroll$1222                      Scroll
     00001BBE  A$Scroll$1223                      Scroll
     00001BBF  A$Scroll$1224                      Scroll
     00001BC0  A$Scroll$1225                      Scroll
     00001BC1  A$Scroll$1226                      Scroll
     00001BC2  A$Scroll$1229                      Scroll
     00001BC3  A$Scroll$1232                      Scroll
     00001BC4  A$Scroll$1233                      Scroll
     00001BC5  A$Scroll$1234                      Scroll
     00001BC6  A$Scroll$1235                      Scroll
     00001BC9  A$Scroll$1236                      Scroll
     00001BCA  A$Scroll$1237                      Scroll
     00001BCB  A$Scroll$1238                      Scroll
     00001BCC  A$Scroll$1239                      Scroll
     00001BCD  A$Scroll$1240                      Scroll
     00001BCE  A$Scroll$1241                      Scroll
     00001BCF  A$Scroll$1242                      Scroll
     00001BD0  A$Scroll$1243                      Scroll
     00001BD1  A$Scroll$1247                      Scroll
     00001BD1  C$Scroll.c$252$3_0$224             Scroll
     00001BD2  A$Scroll$1248                      Scroll
     00001BD3  A$Scroll$1249                      Scroll
     00001BD4  A$Scroll$1250                      Scroll
     00001BD5  A$Scroll$1258                      Scroll
     00001BD5  C$Scroll.c$255$1_0$219             Scroll
     00001BD5  XG$ClampScrollLimits$0$0           Scroll
     00001BD6  A$Scroll$1268                      Scroll
     00001BD6  C$Scroll.c$257$1_0$226             Scroll
     00001BD6  G$ScrollSetMap$0$0                 Scroll
     00001BD6  _ScrollSetMap                      Scroll
     00001BD8  A$Scroll$1269                      Scroll
     00001BDA  A$Scroll$1270                      Scroll
     00001BDB  A$Scroll$1274                      Scroll
     00001BDB  C$Scroll.c$258$1_0$226             Scroll
     00001BDC  A$Scroll$1275                      Scroll
     00001BDD  A$Scroll$1276                      Scroll
ASxxxx Linker V03.00/V05.40 + sdld,  page 71.
Hexadecimal  [32-Bits]

Area                                    Addr        Size        Decimal Bytes (Attributes)
--------------------------------        ----        ----        ------- ----- ------------
_CODE                               00000200    00002C59 =       11353. bytes (REL,CON)

      Value  Global                              Global Defined In Module
      -----  --------------------------------   ------------------------
     00001BDE  A$Scroll$1277                      Scroll
     00001BDF  A$Scroll$1278                      Scroll
     00001BE2  A$Scroll$1279                      Scroll
     00001BE3  A$Scroll$1280                      Scroll
     00001BE4  A$Scroll$1284                      Scroll
     00001BE4  C$Scroll.c$259$1_0$226             Scroll
     00001BE5  A$Scroll$1285                      Scroll
     00001BE6  A$Scroll$1286                      Scroll
     00001BE7  A$Scroll$1287                      Scroll
     00001BE8  A$Scroll$1288                      Scroll
     00001BE9  A$Scroll$1289                      Scroll
     00001BEC  A$Scroll$1290                      Scroll
     00001BED  A$Scroll$1291                      Scroll
     00001BEF  A$Scroll$1295                      Scroll
     00001BEF  C$Scroll.c$260$1_0$226             Scroll
     00001BF0  A$Scroll$1296                      Scroll
     00001BF1  A$Scroll$1297                      Scroll
     00001BF2  A$Scroll$1298                      Scroll
     00001BF3  A$Scroll$1299                      Scroll
     00001BF4  A$Scroll$1300                      Scroll
     00001BF5  A$Scroll$1301                      Scroll
     00001BF8  A$Scroll$1302                      Scroll
     00001BF9  A$Scroll$1303                      Scroll
     00001BFB  A$Scroll$1307                      Scroll
     00001BFB  C$Scroll.c$261$1_0$226             Scroll
     00001BFC  A$Scroll$1308                      Scroll
     00001BFD  A$Scroll$1309                      Scroll
     00001BFE  A$Scroll$1310                      Scroll
     00001C01  A$Scroll$1311                      Scroll
     00001C02  A$Scroll$1312                      Scroll
     00001C03  A$Scroll$1313                      Scroll
     00001C04  A$Scroll$1314                      Scroll
     00001C05  A$Scroll$1318                      Scroll
     00001C05  C$Scroll.c$262$1_0$226             Scroll
     00001C06  A$Scroll$1319                      Scroll
     00001C07  A$Scroll$1320                      Scroll
     00001C08  A$Scroll$1321                      Scroll
     00001C09  A$Scroll$1322                      Scroll
     00001C0A  A$Scroll$1323                      Scroll
     00001C0B  A$Scroll$1324                      Scroll
     00001C0C  A$Scroll$1325                      Scroll
     00001C0F  A$Scroll$1326                      Scroll
     00001C10  A$Scroll$1327                      Scroll
     00001C11  A$Scroll$1328                      Scroll
     00001C12  A$Scroll$1329                      Scroll
     00001C13  A$Scroll$1333                      Scroll
     00001C13  C$Scroll.c$263$1_0$226             Scroll
     00001C14  A$Scroll$1334                      Scroll
     00001C17  A$Scroll$1335                      Scroll
     00001C18  A$Scroll$1336                      Scroll
     00001C19  A$Scroll$1340                      Scroll
ASxxxx Linker V03.00/V05.40 + sdld,  page 72.
Hexadecimal  [32-Bits]

Area                                    Addr        Size        Decimal Bytes (Attributes)
--------------------------------        ----        ----        ------- ----- ------------
_CODE                               00000200    00002C59 =       11353. bytes (REL,CON)

      Value  Global                              Global Defined In Module
      -----  --------------------------------   ------------------------
     00001C19  C$Scroll.c$264$1_0$226             Scroll
     00001C1A  A$Scroll$1341                      Scroll
     00001C1D  A$Scroll$1342                      Scroll
     00001C1E  A$Scroll$1343                      Scroll
     00001C1F  A$Scroll$1347                      Scroll
     00001C1F  C$Scroll.c$265$1_0$226             Scroll
     00001C22  A$Scroll$1348                      Scroll
     00001C25  A$Scroll$1349                      Scroll
     00001C28  A$Scroll$1350                      Scroll
     00001C2B  A$Scroll$1351                      Scroll
     00001C2D  A$Scroll$1353                      Scroll
     00001C30  A$Scroll$1354                      Scroll
     00001C32  A$Scroll$1355                      Scroll
     00001C33  A$Scroll$1356                      Scroll
     00001C35  A$Scroll$1357                      Scroll
     00001C36  A$Scroll$1358                      Scroll
     00001C38  A$Scroll$1362                      Scroll
     00001C38  C$Scroll.c$266$1_0$226             Scroll
     00001C3B  A$Scroll$1363                      Scroll
     00001C3E  A$Scroll$1364                      Scroll
     00001C41  A$Scroll$1365                      Scroll
     00001C44  A$Scroll$1366                      Scroll
     00001C46  A$Scroll$1368                      Scroll
     00001C49  A$Scroll$1369                      Scroll
     00001C4B  A$Scroll$1370                      Scroll
     00001C4C  A$Scroll$1371                      Scroll
     00001C4E  A$Scroll$1372                      Scroll
     00001C4F  A$Scroll$1373                      Scroll
     00001C51  A$Scroll$1377                      Scroll
     00001C51  C$Scroll.c$267$1_0$226             Scroll
     00001C53  A$Scroll$1378                      Scroll
     00001C54  A$Scroll$1379                      Scroll
     00001C57  A$Scroll$1383                      Scroll
     00001C57  C$Scroll.c$268$1_0$226             Scroll
     00001C5A  A$Scroll$1384                      Scroll
     00001C5B  A$Scroll$1385                      Scroll
     00001C5C  A$Scroll$1386                      Scroll
     00001C5E  A$Scroll$1390                      Scroll
     00001C5E  C$Scroll.c$269$1_0$226             Scroll
     00001C5F  A$Scroll$1391                      Scroll
     00001C60  A$Scroll$1392                      Scroll
     00001C61  A$Scroll$1393                      Scroll
     00001C64  A$Scroll$1394                      Scroll
     00001C65  A$Scroll$1395                      Scroll
     00001C66  A$Scroll$1396                      Scroll
     00001C67  A$Scroll$1397                      Scroll
     00001C68  A$Scroll$1398                      Scroll
     00001C6A  A$Scroll$1399                      Scroll
     00001C6B  A$Scroll$1400                      Scroll
     00001C6C  A$Scroll$1401                      Scroll
     00001C6D  A$Scroll$1402                      Scroll
ASxxxx Linker V03.00/V05.40 + sdld,  page 73.
Hexadecimal  [32-Bits]

Area                                    Addr        Size        Decimal Bytes (Attributes)
--------------------------------        ----        ----        ------- ----- ------------
_CODE                               00000200    00002C59 =       11353. bytes (REL,CON)

      Value  Global                              Global Defined In Module
      -----  --------------------------------   ------------------------
     00001C6E  A$Scroll$1403                      Scroll
     00001C6F  A$Scroll$1404                      Scroll
     00001C70  A$Scroll$1405                      Scroll
     00001C73  A$Scroll$1406                      Scroll
     00001C74  A$Scroll$1407                      Scroll
     00001C75  A$Scroll$1408                      Scroll
     00001C76  A$Scroll$1409                      Scroll
     00001C77  A$Scroll$1410                      Scroll
     00001C78  A$Scroll$1411                      Scroll
     00001C7B  A$Scroll$1412                      Scroll
     00001C7C  A$Scroll$1413                      Scroll
     00001C7D  A$Scroll$1417                      Scroll
     00001C7D  C$Scroll.c$270$2_0$227             Scroll
     00001C80  A$Scroll$1418                      Scroll
     00001C81  A$Scroll$1419                      Scroll
     00001C82  A$Scroll$1420                      Scroll
     00001C83  A$Scroll$1421                      Scroll
     00001C84  A$Scroll$1422                      Scroll
     00001C87  A$Scroll$1423                      Scroll
     00001C88  A$Scroll$1424                      Scroll
     00001C8A  A$Scroll$1425                      Scroll
     00001C8B  A$Scroll$1426                      Scroll
     00001C8C  A$Scroll$1427                      Scroll
     00001C8F  A$Scroll$1428                      Scroll
     00001C90  A$Scroll$1429                      Scroll
     00001C91  A$Scroll$1430                      Scroll
     00001C92  A$Scroll$1431                      Scroll
     00001C93  A$Scroll$1435                      Scroll
     00001C93  C$Scroll.c$271$2_0$227             Scroll
     00001C96  A$Scroll$1440                      Scroll
     00001C96  C$Scroll.c$273$1_0$226             Scroll
     00001C99  A$Scroll$1441                      Scroll
     00001C9B  A$Scroll$1445                      Scroll
     00001C9B  C$Scroll.c$274$1_0$226             Scroll
     00001C9E  A$Scroll$1446                      Scroll
     00001CA0  A$Scroll$1450                      Scroll
     00001CA0  C$Scroll.c$275$1_0$226             Scroll
     00001CA3  A$Scroll$1454                      Scroll
     00001CA5  A$Scroll$1459                      Scroll
     00001CA5  C$Scroll.c$276$1_0$226             Scroll
     00001CA5  XG$ScrollSetMap$0$0                Scroll
     00001CA6  A$Scroll$1469                      Scroll
     00001CA6  C$Scroll.c$278$1_0$229             Scroll
     00001CA6  G$InitScroll$0$0                   Scroll
     00001CA6  _InitScroll                        Scroll
     00001CA8  A$Scroll$1470                      Scroll
     00001CAA  A$Scroll$1471                      Scroll
     00001CAB  A$Scroll$1475                      Scroll
     00001CAB  C$Scroll.c$283$1_0$229             Scroll
     00001CAC  A$Scroll$1476                      Scroll
     00001CAD  A$Scroll$1477                      Scroll
ASxxxx Linker V03.00/V05.40 + sdld,  page 74.
Hexadecimal  [32-Bits]

Area                                    Addr        Size        Decimal Bytes (Attributes)
--------------------------------        ----        ----        ------- ----- ------------
_CODE                               00000200    00002C59 =       11353. bytes (REL,CON)

      Value  Global                              Global Defined In Module
      -----  --------------------------------   ------------------------
     00001CAE  A$Scroll$1478                      Scroll
     00001CAF  A$Scroll$1479                      Scroll
     00001CB2  A$Scroll$1480                      Scroll
     00001CB3  A$Scroll$1481                      Scroll
     00001CB4  A$Scroll$1485                      Scroll
     00001CB4  C$Scroll.c$284$1_0$229             Scroll
     00001CB7  A$Scroll$1486                      Scroll
     00001CB8  A$Scroll$1487                      Scroll
     00001CB9  A$Scroll$1488                      Scroll
     00001CBB  A$Scroll$1489                      Scroll
     00001CBC  A$Scroll$1493                      Scroll
     00001CBC  C$Scroll.c$285$1_0$229             Scroll
     00001CBF  A$Scroll$1494                      Scroll
     00001CC0  A$Scroll$1495                      Scroll
     00001CC1  A$Scroll$1496                      Scroll
     00001CC2  A$Scroll$1497                      Scroll
     00001CC3  A$Scroll$1498                      Scroll
     00001CC5  A$Scroll$1499                      Scroll
     00001CC6  A$Scroll$1500                      Scroll
     00001CC7  A$Scroll$1501                      Scroll
     00001CC8  A$Scroll$1502                      Scroll
     00001CC9  A$Scroll$1506                      Scroll
     00001CC9  C$Scroll.c$286$1_0$229             Scroll
     00001CCA  A$Scroll$1507                      Scroll
     00001CCD  A$Scroll$1508                      Scroll
     00001CCE  A$Scroll$1512                      Scroll
     00001CCE  C$Scroll.c$288$1_0$229             Scroll
     00001CD0  A$Scroll$1513                      Scroll
     00001CD1  A$Scroll$1514                      Scroll
     00001CD2  A$Scroll$1515                      Scroll
     00001CD3  A$Scroll$1516                      Scroll
     00001CD4  A$Scroll$1517                      Scroll
     00001CD6  A$Scroll$1518                      Scroll
     00001CD7  A$Scroll$1519                      Scroll
     00001CD8  A$Scroll$1520                      Scroll
     00001CD9  A$Scroll$1521                      Scroll
     00001CDA  A$Scroll$1522                      Scroll
     00001CDC  A$Scroll$1523                      Scroll
     00001CDD  A$Scroll$1524                      Scroll
     00001CDE  A$Scroll$1525                      Scroll
     00001CDF  A$Scroll$1526                      Scroll
     00001CE0  A$Scroll$1527                      Scroll
     00001CE1  A$Scroll$1528                      Scroll
     00001CE2  A$Scroll$1529                      Scroll
     00001CE3  A$Scroll$1530                      Scroll
     00001CE4  A$Scroll$1531                      Scroll
     00001CE5  A$Scroll$1532                      Scroll
     00001CE6  A$Scroll$1533                      Scroll
     00001CE7  A$Scroll$1534                      Scroll
     00001CE9  A$Scroll$1535                      Scroll
     00001CEA  A$Scroll$1536                      Scroll
ASxxxx Linker V03.00/V05.40 + sdld,  page 75.
Hexadecimal  [32-Bits]

Area                                    Addr        Size        Decimal Bytes (Attributes)
--------------------------------        ----        ----        ------- ----- ------------
_CODE                               00000200    00002C59 =       11353. bytes (REL,CON)

      Value  Global                              Global Defined In Module
      -----  --------------------------------   ------------------------
     00001CED  A$Scroll$1540                      Scroll
     00001CED  C$Scroll.c$289$1_0$229             Scroll
     00001CEF  A$Scroll$1541                      Scroll
     00001CF0  A$Scroll$1542                      Scroll
     00001CF2  A$Scroll$1543                      Scroll
     00001CF3  A$Scroll$1553                      Scroll
     00001CF3  C$Scroll.c$291$1_0$231             Scroll
     00001CF3  G$InitScrollWithTiles$0$0          Scroll
     00001CF3  _InitScrollWithTiles               Scroll
     00001CF5  A$Scroll$1554                      Scroll
     00001CF7  A$Scroll$1555                      Scroll
     00001CF8  A$Scroll$1559                      Scroll
     00001CF8  C$Scroll.c$296$1_0$231             Scroll
     00001CF9  A$Scroll$1560                      Scroll
     00001CFB  A$Scroll$1561                      Scroll
     00001CFC  A$Scroll$1562                      Scroll
     00001CFD  A$Scroll$1563                      Scroll
     00001CFE  A$Scroll$1564                      Scroll
     00001CFF  A$Scroll$1565                      Scroll
     00001D00  A$Scroll$1566                      Scroll
     00001D01  A$Scroll$1567                      Scroll
     00001D02  A$Scroll$1568                      Scroll
     00001D03  A$Scroll$1569                      Scroll
     00001D06  A$Scroll$1570                      Scroll
     00001D07  A$Scroll$1574                      Scroll
     00001D07  C$Scroll.c$298$1_0$231             Scroll
     00001D09  A$Scroll$1575                      Scroll
     00001D0A  A$Scroll$1576                      Scroll
     00001D0D  A$Scroll$1580                      Scroll
     00001D0D  C$Scroll.c$300$1_0$231             Scroll
     00001D0E  A$Scroll$1581                      Scroll
     00001D0F  A$Scroll$1582                      Scroll
     00001D10  A$Scroll$1583                      Scroll
     00001D13  A$Scroll$1584                      Scroll
     00001D14  A$Scroll$1585                      Scroll
     00001D17  A$Scroll$1586                      Scroll
     00001D18  A$Scroll$1587                      Scroll
     00001D1B  A$Scroll$1588                      Scroll
     00001D1D  A$Scroll$1592                      Scroll
     00001D1D  C$Scroll.c$301$1_0$231             Scroll
     00001D1E  A$Scroll$1593                      Scroll
     00001D1F  A$Scroll$1594                      Scroll
     00001D20  A$Scroll$1595                      Scroll
     00001D23  A$Scroll$1596                      Scroll
     00001D24  A$Scroll$1597                      Scroll
     00001D27  A$Scroll$1598                      Scroll
     00001D28  A$Scroll$1599                      Scroll
     00001D2B  A$Scroll$1600                      Scroll
     00001D2D  A$Scroll$1604                      Scroll
     00001D2D  C$Scroll.c$303$1_0$231             Scroll
     00001D2F  A$Scroll$1605                      Scroll
ASxxxx Linker V03.00/V05.40 + sdld,  page 76.
Hexadecimal  [32-Bits]

Area                                    Addr        Size        Decimal Bytes (Attributes)
--------------------------------        ----        ----        ------- ----- ------------
_CODE                               00000200    00002C59 =       11353. bytes (REL,CON)

      Value  Global                              Global Defined In Module
      -----  --------------------------------   ------------------------
     00001D30  A$Scroll$1606                      Scroll
     00001D31  A$Scroll$1607                      Scroll
     00001D33  A$Scroll$1611                      Scroll
     00001D33  C$Scroll.c$304$1_0$231             Scroll
     00001D35  A$Scroll$1613                      Scroll
     00001D36  A$Scroll$1614                      Scroll
     00001D38  A$Scroll$1615                      Scroll
     00001D3A  A$Scroll$1616                      Scroll
     00001D3B  A$Scroll$1617                      Scroll
     00001D3C  A$Scroll$1618                      Scroll
     00001D3D  A$Scroll$1619                      Scroll
     00001D3E  A$Scroll$1620                      Scroll
     00001D3F  A$Scroll$1621                      Scroll
     00001D40  A$Scroll$1622                      Scroll
     00001D41  A$Scroll$1623                      Scroll
     00001D42  A$Scroll$1624                      Scroll
     00001D43  A$Scroll$1625                      Scroll
     00001D45  A$Scroll$1629                      Scroll
     00001D45  C$Scroll.c$305$4_0$234             Scroll
     00001D47  A$Scroll$1630                      Scroll
     00001D48  A$Scroll$1633                      Scroll
     00001D4A  A$Scroll$1634                      Scroll
     00001D4C  A$Scroll$1635                      Scroll
     00001D4D  A$Scroll$1638                      Scroll
     00001D4F  A$Scroll$1642                      Scroll
     00001D4F  C$Scroll.c$306$4_0$234             Scroll
     00001D50  A$Scroll$1643                      Scroll
     00001D51  A$Scroll$1644                      Scroll
     00001D54  A$Scroll$1645                      Scroll
     00001D56  A$Scroll$1646                      Scroll
     00001D57  A$Scroll$1647                      Scroll
     00001D59  A$Scroll$1651                      Scroll
     00001D59  C$Scroll.c$304$3_0$233             Scroll
     00001D5A  A$Scroll$1652                      Scroll
     00001D5C  A$Scroll$1657                      Scroll
     00001D5C  C$Scroll.c$309$1_0$231             Scroll
     00001D5E  A$Scroll$1658                      Scroll
     00001D5F  A$Scroll$1659                      Scroll
     00001D60  A$Scroll$1660                      Scroll
     00001D62  A$Scroll$1664                      Scroll
     00001D62  C$Scroll.c$310$1_0$231             Scroll
     00001D64  A$Scroll$1666                      Scroll
     00001D65  A$Scroll$1667                      Scroll
     00001D67  A$Scroll$1668                      Scroll
     00001D69  A$Scroll$1669                      Scroll
     00001D6A  A$Scroll$1670                      Scroll
     00001D6B  A$Scroll$1671                      Scroll
     00001D6C  A$Scroll$1672                      Scroll
     00001D6D  A$Scroll$1673                      Scroll
     00001D6E  A$Scroll$1674                      Scroll
     00001D6F  A$Scroll$1675                      Scroll
ASxxxx Linker V03.00/V05.40 + sdld,  page 77.
Hexadecimal  [32-Bits]

Area                                    Addr        Size        Decimal Bytes (Attributes)
--------------------------------        ----        ----        ------- ----- ------------
_CODE                               00000200    00002C59 =       11353. bytes (REL,CON)

      Value  Global                              Global Defined In Module
      -----  --------------------------------   ------------------------
     00001D70  A$Scroll$1676                      Scroll
     00001D71  A$Scroll$1677                      Scroll
     00001D72  A$Scroll$1678                      Scroll
     00001D74  A$Scroll$1682                      Scroll
     00001D74  C$Scroll.c$311$4_0$237             Scroll
     00001D76  A$Scroll$1683                      Scroll
     00001D77  A$Scroll$1686                      Scroll
     00001D79  A$Scroll$1687                      Scroll
     00001D7B  A$Scroll$1688                      Scroll
     00001D7C  A$Scroll$1691                      Scroll
     00001D7E  A$Scroll$1695                      Scroll
     00001D7E  C$Scroll.c$310$3_0$236             Scroll
     00001D7F  A$Scroll$1696                      Scroll
     00001D81  A$Scroll$1701                      Scroll
     00001D81  C$Scroll.c$316$1_0$231             Scroll
     00001D83  A$Scroll$1702                      Scroll
     00001D84  A$Scroll$1703                      Scroll
     00001D85  A$Scroll$1704                      Scroll
     00001D86  A$Scroll$1705                      Scroll
     00001D89  A$Scroll$1706                      Scroll
     00001D8A  A$Scroll$1710                      Scroll
     00001D8A  C$Scroll.c$317$1_0$231             Scroll
     00001D8D  A$Scroll$1711                      Scroll
     00001D8F  A$Scroll$1712                      Scroll
     00001D90  A$Scroll$1713                      Scroll
     00001D93  A$Scroll$1714                      Scroll
     00001D95  A$Scroll$1715                      Scroll
     00001D96  A$Scroll$1716                      Scroll
     00001D98  A$Scroll$1717                      Scroll
     00001D99  A$Scroll$1718                      Scroll
     00001D9B  A$Scroll$1719                      Scroll
     00001D9C  A$Scroll$1720                      Scroll
     00001D9E  A$Scroll$1721                      Scroll
     00001D9F  A$Scroll$1722                      Scroll
     00001DA1  A$Scroll$1723                      Scroll
     00001DA2  A$Scroll$1724                      Scroll
     00001DA4  A$Scroll$1725                      Scroll
     00001DA5  A$Scroll$1726                      Scroll
     00001DA7  A$Scroll$1730                      Scroll
     00001DA7  C$Scroll.c$318$1_0$231             Scroll
     00001DA8  A$Scroll$1731                      Scroll
     00001DA9  A$Scroll$1732                      Scroll
     00001DAB  A$Scroll$1734                      Scroll
     00001DAD  A$Scroll$1735                      Scroll
     00001DAE  A$Scroll$1736                      Scroll
     00001DB0  A$Scroll$1737                      Scroll
     00001DB2  A$Scroll$1738                      Scroll
     00001DB4  A$Scroll$1739                      Scroll
     00001DB5  A$Scroll$1740                      Scroll
     00001DB6  A$Scroll$1741                      Scroll
     00001DB7  A$Scroll$1742                      Scroll
ASxxxx Linker V03.00/V05.40 + sdld,  page 78.
Hexadecimal  [32-Bits]

Area                                    Addr        Size        Decimal Bytes (Attributes)
--------------------------------        ----        ----        ------- ----- ------------
_CODE                               00000200    00002C59 =       11353. bytes (REL,CON)

      Value  Global                              Global Defined In Module
      -----  --------------------------------   ------------------------
     00001DBA  A$Scroll$1743                      Scroll
     00001DBB  A$Scroll$1744                      Scroll
     00001DBC  A$Scroll$1745                      Scroll
     00001DBE  A$Scroll$1746                      Scroll
     00001DBF  A$Scroll$1747                      Scroll
     00001DC0  A$Scroll$1748                      Scroll
     00001DC1  A$Scroll$1749                      Scroll
     00001DC3  A$Scroll$1754                      Scroll
     00001DC3  C$Scroll.c$319$3_0$239             Scroll
     00001DC5  A$Scroll$1755                      Scroll
     00001DC6  A$Scroll$1756                      Scroll
     00001DC7  A$Scroll$1757                      Scroll
     00001DC8  A$Scroll$1758                      Scroll
     00001DC9  A$Scroll$1759                      Scroll
     00001DCC  A$Scroll$1760                      Scroll
     00001DCD  A$Scroll$1761                      Scroll
     00001DCE  A$Scroll$1762                      Scroll
     00001DCF  A$Scroll$1763                      Scroll
     00001DD1  A$Scroll$1764                      Scroll
     00001DD3  A$Scroll$1765                      Scroll
     00001DD5  A$Scroll$1766                      Scroll
     00001DD7  A$Scroll$1767                      Scroll
     00001DD9  A$Scroll$1768                      Scroll
     00001DDB  A$Scroll$1769                      Scroll
     00001DDC  A$Scroll$1770                      Scroll
     00001DDF  A$Scroll$1774                      Scroll
     00001DDF  C$Scroll.c$318$2_0$238             Scroll
     00001DE1  A$Scroll$1775                      Scroll
     00001DE2  A$Scroll$1776                      Scroll
     00001DE3  A$Scroll$1777                      Scroll
     00001DE4  A$Scroll$1778                      Scroll
     00001DE5  A$Scroll$1779                      Scroll
     00001DE7  A$Scroll$1780                      Scroll
     00001DE8  A$Scroll$1781                      Scroll
     00001DE9  A$Scroll$1782                      Scroll
     00001DEB  A$Scroll$1787                      Scroll
     00001DEB  C$Scroll.c$321$1_0$231             Scroll
     00001DEE  A$Scroll$1791                      Scroll
     00001DEE  C$Scroll.c$322$1_0$231             Scroll
     00001DF0  A$Scroll$1792                      Scroll
     00001DF1  A$Scroll$1793                      Scroll
     00001DF3  A$Scroll$1794                      Scroll
     00001DF4  A$Scroll$1804                      Scroll
     00001DF4  C$Scroll.c$324$1_0$241             Scroll
     00001DF4  G$ScrollUpdateRowR$0$0             Scroll
     00001DF4  _ScrollUpdateRowR                  Scroll
     00001DF5  A$Scroll$1808                      Scroll
     00001DF7  A$Scroll$1809                      Scroll
     00001DF9  A$Scroll$1811                      Scroll
     00001DFB  A$Scroll$1812                      Scroll
     00001DFC  A$Scroll$1813                      Scroll
ASxxxx Linker V03.00/V05.40 + sdld,  page 79.
Hexadecimal  [32-Bits]

Area                                    Addr        Size        Decimal Bytes (Attributes)
--------------------------------        ----        ----        ------- ----- ------------
_CODE                               00000200    00002C59 =       11353. bytes (REL,CON)

      Value  Global                              Global Defined In Module
      -----  --------------------------------   ------------------------
     00001DFE  A$Scroll$1814                      Scroll
     00001E00  A$Scroll$1815                      Scroll
     00001E03  A$Scroll$1816                      Scroll
     00001E04  A$Scroll$1817                      Scroll
     00001E06  A$Scroll$1821                      Scroll
     00001E06  C$Scroll.c$331$3_0$242             Scroll
     00001E09  A$Scroll$1822                      Scroll
     00001E0A  A$Scroll$1823                      Scroll
     00001E0B  A$Scroll$1824                      Scroll
     00001E0C  A$Scroll$1825                      Scroll
     00001E0D  A$Scroll$1826                      Scroll
     00001E0E  A$Scroll$1827                      Scroll
     00001E10  A$Scroll$1828                      Scroll
     00001E11  A$Scroll$1829                      Scroll
     00001E12  A$Scroll$1831                      Scroll
     00001E15  A$Scroll$1832                      Scroll
     00001E16  A$Scroll$1833                      Scroll
     00001E17  A$Scroll$1834                      Scroll
     00001E18  A$Scroll$1835                      Scroll
     00001E19  A$Scroll$1836                      Scroll
     00001E1A  A$Scroll$1837                      Scroll
     00001E1C  A$Scroll$1838                      Scroll
     00001E1D  A$Scroll$1839                      Scroll
     00001E1E  A$Scroll$1841                      Scroll
     00001E21  A$Scroll$1842                      Scroll
     00001E22  A$Scroll$1843                      Scroll
     00001E23  A$Scroll$1844                      Scroll
     00001E26  A$Scroll$1845                      Scroll
     00001E27  A$Scroll$1846                      Scroll
     00001E28  A$Scroll$1847                      Scroll
     00001E29  A$Scroll$1848                      Scroll
     00001E2C  A$Scroll$1852                      Scroll
     00001E2C  C$Scroll.c$327$2_0$241             Scroll
     00001E2E  A$Scroll$1853                      Scroll
     00001E2F  A$Scroll$1854                      Scroll
     00001E32  A$Scroll$1855                      Scroll
     00001E33  A$Scroll$1856                      Scroll
     00001E35  A$Scroll$1861                      Scroll
     00001E36  A$Scroll$1866                      Scroll
     00001E36  C$Scroll.c$334$2_0$241             Scroll
     00001E36  XG$ScrollUpdateRowR$0$0            Scroll
     00001E37  A$Scroll$1880                      Scroll
     00001E37  C$Scroll.c$336$2_0$244             Scroll
     00001E37  C$Scroll.c$337$1_0$244             Scroll
     00001E37  G$ScrollUpdateRowWithDelay$0$0     Scroll
     00001E37  _ScrollUpdateRowWithDelay          Scroll
     00001E3A  A$Scroll$1881                      Scroll
     00001E3B  A$Scroll$1882                      Scroll
     00001E3D  A$Scroll$1886                      Scroll
     00001E3D  C$Scroll.c$338$2_0$245             Scroll
     00001E3E  A$Scroll$1887                      Scroll
ASxxxx Linker V03.00/V05.40 + sdld,  page 80.
Hexadecimal  [32-Bits]

Area                                    Addr        Size        Decimal Bytes (Attributes)
--------------------------------        ----        ----        ------- ----- ------------
_CODE                               00000200    00002C59 =       11353. bytes (REL,CON)

      Value  Global                              Global Defined In Module
      -----  --------------------------------   ------------------------
     00001E3F  A$Scroll$1888                      Scroll
     00001E42  A$Scroll$1889                      Scroll
     00001E43  A$Scroll$1890                      Scroll
     00001E44  A$Scroll$1891                      Scroll
     00001E46  A$Scroll$1896                      Scroll
     00001E46  C$Scroll.c$341$1_0$244             Scroll
     00001E49  A$Scroll$1897                      Scroll
     00001E4A  A$Scroll$1898                      Scroll
     00001E4B  A$Scroll$1899                      Scroll
     00001E4C  A$Scroll$1903                      Scroll
     00001E4C  C$Scroll.c$342$1_0$244             Scroll
     00001E4F  A$Scroll$1904                      Scroll
     00001E50  A$Scroll$1905                      Scroll
     00001E51  A$Scroll$1906                      Scroll
     00001E52  A$Scroll$1910                      Scroll
     00001E52  C$Scroll.c$343$1_0$244             Scroll
     00001E55  A$Scroll$1911                      Scroll
     00001E57  A$Scroll$1915                      Scroll
     00001E57  C$Scroll.c$344$1_0$244             Scroll
     00001E58  A$Scroll$1916                      Scroll
     00001E5B  A$Scroll$1917                      Scroll
     00001E5C  A$Scroll$1918                      Scroll
     00001E5D  A$Scroll$1919                      Scroll
     00001E5E  A$Scroll$1920                      Scroll
     00001E61  A$Scroll$1921                      Scroll
     00001E62  A$Scroll$1922                      Scroll
     00001E63  A$Scroll$1923                      Scroll
     00001E66  A$Scroll$1924                      Scroll
     00001E67  A$Scroll$1925                      Scroll
     00001E68  A$Scroll$1926                      Scroll
     00001E69  A$Scroll$1927                      Scroll
     00001E6A  A$Scroll$1928                      Scroll
     00001E6B  A$Scroll$1929                      Scroll
     00001E6C  A$Scroll$1930                      Scroll
     00001E6D  A$Scroll$1931                      Scroll
     00001E6E  A$Scroll$1932                      Scroll
     00001E71  A$Scroll$1933                      Scroll
     00001E72  A$Scroll$1934                      Scroll
     00001E73  A$Scroll$1935                      Scroll
     00001E74  A$Scroll$1936                      Scroll
     00001E75  A$Scroll$1944                      Scroll
     00001E75  C$Scroll.c$349$1_0$244             Scroll
     00001E75  XG$ScrollUpdateRowWithDelay$0$0    Scroll
     00001E76  A$Scroll$1954                      Scroll
     00001E76  C$Scroll.c$351$1_0$247             Scroll
     00001E76  G$ScrollUpdateRow$0$0              Scroll
     00001E76  _ScrollUpdateRow                   Scroll
     00001E78  A$Scroll$1955                      Scroll
     00001E7A  A$Scroll$1956                      Scroll
     00001E7B  A$Scroll$1957                      Scroll
     00001E7C  A$Scroll$1958                      Scroll
ASxxxx Linker V03.00/V05.40 + sdld,  page 81.
Hexadecimal  [32-Bits]

Area                                    Addr        Size        Decimal Bytes (Attributes)
--------------------------------        ----        ----        ------- ----- ------------
_CODE                               00000200    00002C59 =       11353. bytes (REL,CON)

      Value  Global                              Global Defined In Module
      -----  --------------------------------   ------------------------
     00001E7D  A$Scroll$1959                      Scroll
     00001E7E  A$Scroll$1960                      Scroll
     00001E7F  A$Scroll$1961                      Scroll
     00001E80  A$Scroll$1962                      Scroll
     00001E83  A$Scroll$1963                      Scroll
     00001E84  A$Scroll$1964                      Scroll
     00001E85  A$Scroll$1965                      Scroll
     00001E86  A$Scroll$1966                      Scroll
     00001E89  A$Scroll$1967                      Scroll
     00001E8A  A$Scroll$1968                      Scroll
     00001E8D  A$Scroll$1969                      Scroll
     00001E8E  A$Scroll$1970                      Scroll
     00001E8F  A$Scroll$1971                      Scroll
     00001E90  A$Scroll$1972                      Scroll
     00001E91  A$Scroll$1973                      Scroll
     00001E92  A$Scroll$1974                      Scroll
     00001E93  A$Scroll$1975                      Scroll
     00001E95  A$Scroll$1976                      Scroll
     00001E96  A$Scroll$1977                      Scroll
     00001E97  A$Scroll$1978                      Scroll
     00001E98  A$Scroll$1979                      Scroll
     00001E99  A$Scroll$1983                      Scroll
     00001E99  C$Scroll.c$359$1_0$247             Scroll
     00001E9A  A$Scroll$1984                      Scroll
     00001E9D  A$Scroll$1985                      Scroll
     00001E9E  A$Scroll$1986                      Scroll
     00001E9F  A$Scroll$1987                      Scroll
     00001EA2  A$Scroll$1988                      Scroll
     00001EA3  A$Scroll$1989                      Scroll
     00001EA4  A$Scroll$1993                      Scroll
     00001EA4  C$Scroll.c$360$1_0$247             Scroll
     00001EA6  A$Scroll$1994                      Scroll
     00001EA7  A$Scroll$1995                      Scroll
     00001EA8  A$Scroll$1996                      Scroll
     00001EA9  A$Scroll$1997                      Scroll
     00001EAA  A$Scroll$1998                      Scroll
     00001EAC  A$Scroll$2003                      Scroll
     00001EAC  C$Scroll.c$364$3_0$249             Scroll
     00001EAE  A$Scroll$2004                      Scroll
     00001EAF  A$Scroll$2005                      Scroll
     00001EB0  A$Scroll$2006                      Scroll
     00001EB1  A$Scroll$2007                      Scroll
     00001EB2  A$Scroll$2008                      Scroll
     00001EB3  A$Scroll$2009                      Scroll
     00001EB5  A$Scroll$2010                      Scroll
     00001EB6  A$Scroll$2011                      Scroll
     00001EB7  A$Scroll$2013                      Scroll
     00001EB9  A$Scroll$2014                      Scroll
     00001EBA  A$Scroll$2015                      Scroll
     00001EBC  A$Scroll$2016                      Scroll
     00001EBE  A$Scroll$2017                      Scroll
ASxxxx Linker V03.00/V05.40 + sdld,  page 82.
Hexadecimal  [32-Bits]

Area                                    Addr        Size        Decimal Bytes (Attributes)
--------------------------------        ----        ----        ------- ----- ------------
_CODE                               00000200    00002C59 =       11353. bytes (REL,CON)

      Value  Global                              Global Defined In Module
      -----  --------------------------------   ------------------------
     00001EBF  A$Scroll$2018                      Scroll
     00001EC0  A$Scroll$2019                      Scroll
     00001EC1  A$Scroll$2020                      Scroll
     00001EC2  A$Scroll$2021                      Scroll
     00001EC3  A$Scroll$2022                      Scroll
     00001EC4  A$Scroll$2023                      Scroll
     00001EC7  A$Scroll$2024                      Scroll
     00001EC8  A$Scroll$2025                      Scroll
     00001EC9  A$Scroll$2026                      Scroll
     00001ECB  A$Scroll$2027                      Scroll
     00001ECC  A$Scroll$2028                      Scroll
     00001ECD  A$Scroll$2029                      Scroll
     00001ECE  A$Scroll$2030                      Scroll
     00001ED1  A$Scroll$2034                      Scroll
     00001ED1  C$Scroll.c$360$2_0$248             Scroll
     00001ED3  A$Scroll$2035                      Scroll
     00001ED4  A$Scroll$2036                      Scroll
     00001ED5  A$Scroll$2037                      Scroll
     00001ED7  A$Scroll$2038                      Scroll
     00001ED9  A$Scroll$2042                      Scroll
     00001ED9  C$Scroll.c$367$1_0$247             Scroll
     00001EDC  A$Scroll$2046                      Scroll
     00001EDE  A$Scroll$2051                      Scroll
     00001EDE  C$Scroll.c$368$1_0$247             Scroll
     00001EDE  XG$ScrollUpdateRow$0$0             Scroll
     00001EDF  A$Scroll$2064                      Scroll
     00001EDF  C$Scroll.c$370$1_0$251             Scroll
     00001EDF  G$ScrollUpdateColumnR$0$0          Scroll
     00001EDF  _ScrollUpdateColumnR               Scroll
     00001EE1  A$Scroll$2066                      Scroll
     00001EE2  A$Scroll$2067                      Scroll
     00001EE4  A$Scroll$2068                      Scroll
     00001EE5  A$Scroll$2069                      Scroll
     00001EE8  A$Scroll$2070                      Scroll
     00001EE9  A$Scroll$2071                      Scroll
     00001EEA  A$Scroll$2075                      Scroll
     00001EEA  C$Scroll.c$379$3_0$252             Scroll
     00001EED  A$Scroll$2076                      Scroll
     00001EEE  A$Scroll$2077                      Scroll
     00001EEF  A$Scroll$2078                      Scroll
     00001EF0  A$Scroll$2079                      Scroll
     00001EF1  A$Scroll$2080                      Scroll
     00001EF2  A$Scroll$2081                      Scroll
     00001EF4  A$Scroll$2082                      Scroll
     00001EF5  A$Scroll$2083                      Scroll
     00001EF6  A$Scroll$2085                      Scroll
     00001EF7  A$Scroll$2086                      Scroll
     00001EFA  A$Scroll$2087                      Scroll
     00001EFB  A$Scroll$2088                      Scroll
     00001EFE  A$Scroll$2089                      Scroll
     00001EFF  A$Scroll$2092                      Scroll
ASxxxx Linker V03.00/V05.40 + sdld,  page 83.
Hexadecimal  [32-Bits]

Area                                    Addr        Size        Decimal Bytes (Attributes)
--------------------------------        ----        ----        ------- ----- ------------
_CODE                               00000200    00002C59 =       11353. bytes (REL,CON)

      Value  Global                              Global Defined In Module
      -----  --------------------------------   ------------------------
     00001F02  A$Scroll$2093                      Scroll
     00001F03  A$Scroll$2096                      Scroll
     00001F04  A$Scroll$2097                      Scroll
     00001F07  A$Scroll$2098                      Scroll
     00001F08  A$Scroll$2099                      Scroll
     00001F09  A$Scroll$2100                      Scroll
     00001F0A  A$Scroll$2101                      Scroll
     00001F0D  A$Scroll$2102                      Scroll
     00001F0E  A$Scroll$2106                      Scroll
     00001F0E  C$Scroll.c$380$3_0$252             Scroll
     00001F11  A$Scroll$2107                      Scroll
     00001F14  A$Scroll$2108                      Scroll
     00001F15  A$Scroll$2109                      Scroll
     00001F18  A$Scroll$2110                      Scroll
     00001F19  A$Scroll$2111                      Scroll
     00001F1A  A$Scroll$2112                      Scroll
     00001F1D  A$Scroll$2113                      Scroll
     00001F1E  A$Scroll$2114                      Scroll
     00001F21  A$Scroll$2118                      Scroll
     00001F21  C$Scroll.c$373$2_0$251             Scroll
     00001F22  A$Scroll$2119                      Scroll
     00001F25  A$Scroll$2120                      Scroll
     00001F26  A$Scroll$2128                      Scroll
     00001F26  C$Scroll.c$383$2_0$251             Scroll
     00001F26  XG$ScrollUpdateColumnR$0$0         Scroll
     00001F28  A$Scroll$2142                      Scroll
     00001F28  C$Scroll.c$385$2_0$254             Scroll
     00001F28  C$Scroll.c$386$1_0$254             Scroll
     00001F28  G$ScrollUpdateColumnWithDelay$0$   Scroll
     00001F28  _ScrollUpdateColumnWithDelay       Scroll
     00001F2B  A$Scroll$2143                      Scroll
     00001F2C  A$Scroll$2144                      Scroll
     00001F2E  A$Scroll$2148                      Scroll
     00001F2E  C$Scroll.c$387$2_0$255             Scroll
     00001F2F  A$Scroll$2149                      Scroll
     00001F30  A$Scroll$2150                      Scroll
     00001F33  A$Scroll$2151                      Scroll
     00001F34  A$Scroll$2152                      Scroll
     00001F35  A$Scroll$2153                      Scroll
     00001F37  A$Scroll$2158                      Scroll
     00001F37  C$Scroll.c$390$1_0$254             Scroll
     00001F3A  A$Scroll$2159                      Scroll
     00001F3B  A$Scroll$2160                      Scroll
     00001F3C  A$Scroll$2161                      Scroll
     00001F3D  A$Scroll$2165                      Scroll
     00001F3D  C$Scroll.c$391$1_0$254             Scroll
     00001F40  A$Scroll$2166                      Scroll
     00001F41  A$Scroll$2167                      Scroll
     00001F42  A$Scroll$2168                      Scroll
     00001F43  A$Scroll$2172                      Scroll
     00001F43  C$Scroll.c$392$1_0$254             Scroll
ASxxxx Linker V03.00/V05.40 + sdld,  page 84.
Hexadecimal  [32-Bits]

Area                                    Addr        Size        Decimal Bytes (Attributes)
--------------------------------        ----        ----        ------- ----- ------------
_CODE                               00000200    00002C59 =       11353. bytes (REL,CON)

      Value  Global                              Global Defined In Module
      -----  --------------------------------   ------------------------
     00001F46  A$Scroll$2173                      Scroll
     00001F48  A$Scroll$2177                      Scroll
     00001F48  C$Scroll.c$393$1_0$254             Scroll
     00001F49  A$Scroll$2178                      Scroll
     00001F4C  A$Scroll$2179                      Scroll
     00001F4D  A$Scroll$2180                      Scroll
     00001F4E  A$Scroll$2181                      Scroll
     00001F4F  A$Scroll$2182                      Scroll
     00001F52  A$Scroll$2183                      Scroll
     00001F53  A$Scroll$2184                      Scroll
     00001F54  A$Scroll$2185                      Scroll
     00001F57  A$Scroll$2186                      Scroll
     00001F58  A$Scroll$2187                      Scroll
     00001F59  A$Scroll$2188                      Scroll
     00001F5A  A$Scroll$2189                      Scroll
     00001F5B  A$Scroll$2190                      Scroll
     00001F5C  A$Scroll$2191                      Scroll
     00001F5D  A$Scroll$2192                      Scroll
     00001F5E  A$Scroll$2193                      Scroll
     00001F5F  A$Scroll$2194                      Scroll
     00001F62  A$Scroll$2195                      Scroll
     00001F63  A$Scroll$2196                      Scroll
     00001F64  A$Scroll$2197                      Scroll
     00001F65  A$Scroll$2198                      Scroll
     00001F66  A$Scroll$2206                      Scroll
     00001F66  C$Scroll.c$398$1_0$254             Scroll
     00001F66  XG$ScrollUpdateColumnWithDelay$0   Scroll
     00001F67  A$Scroll$2216                      Scroll
     00001F67  C$Scroll.c$400$1_0$257             Scroll
     00001F67  G$ScrollUpdateColumn$0$0           Scroll
     00001F67  _ScrollUpdateColumn                Scroll
     00001F69  A$Scroll$2217                      Scroll
     00001F6B  A$Scroll$2218                      Scroll
     00001F6C  A$Scroll$2219                      Scroll
     00001F6D  A$Scroll$2220                      Scroll
     00001F6E  A$Scroll$2221                      Scroll
     00001F6F  A$Scroll$2222                      Scroll
     00001F70  A$Scroll$2223                      Scroll
     00001F71  A$Scroll$2224                      Scroll
     00001F74  A$Scroll$2225                      Scroll
     00001F75  A$Scroll$2226                      Scroll
     00001F76  A$Scroll$2227                      Scroll
     00001F77  A$Scroll$2228                      Scroll
     00001F7A  A$Scroll$2229                      Scroll
     00001F7C  A$Scroll$2230                      Scroll
     00001F7D  A$Scroll$2231                      Scroll
     00001F7E  A$Scroll$2232                      Scroll
     00001F7F  A$Scroll$2233                      Scroll
     00001F80  A$Scroll$2234                      Scroll
     00001F81  A$Scroll$2235                      Scroll
     00001F82  A$Scroll$2236                      Scroll
ASxxxx Linker V03.00/V05.40 + sdld,  page 85.
Hexadecimal  [32-Bits]

Area                                    Addr        Size        Decimal Bytes (Attributes)
--------------------------------        ----        ----        ------- ----- ------------
_CODE                               00000200    00002C59 =       11353. bytes (REL,CON)

      Value  Global                              Global Defined In Module
      -----  --------------------------------   ------------------------
     00001F83  A$Scroll$2237                      Scroll
     00001F84  A$Scroll$2238                      Scroll
     00001F87  A$Scroll$2239                      Scroll
     00001F88  A$Scroll$2240                      Scroll
     00001F89  A$Scroll$2241                      Scroll
     00001F8A  A$Scroll$2242                      Scroll
     00001F8B  A$Scroll$2243                      Scroll
     00001F8C  A$Scroll$2244                      Scroll
     00001F8D  A$Scroll$2248                      Scroll
     00001F8D  C$Scroll.c$407$1_0$257             Scroll
     00001F8E  A$Scroll$2249                      Scroll
     00001F91  A$Scroll$2250                      Scroll
     00001F92  A$Scroll$2251                      Scroll
     00001F93  A$Scroll$2252                      Scroll
     00001F96  A$Scroll$2253                      Scroll
     00001F97  A$Scroll$2254                      Scroll
     00001F98  A$Scroll$2258                      Scroll
     00001F98  C$Scroll.c$408$1_0$257             Scroll
     00001F9A  A$Scroll$2259                      Scroll
     00001F9C  A$Scroll$2264                      Scroll
     00001F9C  C$Scroll.c$414$3_0$259             Scroll
     00001F9E  A$Scroll$2265                      Scroll
     00001F9F  A$Scroll$2266                      Scroll
     00001FA1  A$Scroll$2267                      Scroll
     00001FA2  A$Scroll$2268                      Scroll
     00001FA3  A$Scroll$2269                      Scroll
     00001FA4  A$Scroll$2270                      Scroll
     00001FA5  A$Scroll$2271                      Scroll
     00001FA6  A$Scroll$2272                      Scroll
     00001FA7  A$Scroll$2273                      Scroll
     00001FAA  A$Scroll$2274                      Scroll
     00001FAB  A$Scroll$2275                      Scroll
     00001FAC  A$Scroll$2276                      Scroll
     00001FAE  A$Scroll$2277                      Scroll
     00001FAF  A$Scroll$2278                      Scroll
     00001FB0  A$Scroll$2279                      Scroll
     00001FB1  A$Scroll$2280                      Scroll
     00001FB4  A$Scroll$2281                      Scroll
     00001FB5  A$Scroll$2285                      Scroll
     00001FB5  C$Scroll.c$415$3_0$259             Scroll
     00001FB6  A$Scroll$2286                      Scroll
     00001FB9  A$Scroll$2287                      Scroll
     00001FBA  A$Scroll$2288                      Scroll
     00001FBB  A$Scroll$2289                      Scroll
     00001FBC  A$Scroll$2290                      Scroll
     00001FBD  A$Scroll$2291                      Scroll
     00001FBE  A$Scroll$2292                      Scroll
     00001FBF  A$Scroll$2296                      Scroll
     00001FBF  C$Scroll.c$408$2_0$258             Scroll
     00001FC1  A$Scroll$2297                      Scroll
     00001FC2  A$Scroll$2298                      Scroll
ASxxxx Linker V03.00/V05.40 + sdld,  page 86.
Hexadecimal  [32-Bits]

Area                                    Addr        Size        Decimal Bytes (Attributes)
--------------------------------        ----        ----        ------- ----- ------------
_CODE                               00000200    00002C59 =       11353. bytes (REL,CON)

      Value  Global                              Global Defined In Module
      -----  --------------------------------   ------------------------
     00001FC3  A$Scroll$2299                      Scroll
     00001FC5  A$Scroll$2300                      Scroll
     00001FC7  A$Scroll$2304                      Scroll
     00001FC7  C$Scroll.c$418$1_0$257             Scroll
     00001FCA  A$Scroll$2308                      Scroll
     00001FCC  A$Scroll$2313                      Scroll
     00001FCC  C$Scroll.c$419$1_0$257             Scroll
     00001FCC  XG$ScrollUpdateColumn$0$0          Scroll
     00001FCD  A$Scroll$2323                      Scroll
     00001FCD  C$Scroll.c$421$1_0$260             Scroll
     00001FCD  G$RefreshScroll$0$0                Scroll
     00001FCD  _RefreshScroll                     Scroll
     00001FCF  A$Scroll$2327                      Scroll
     00001FCF  C$Scroll.c$422$2_0$260             Scroll
     00001FD2  A$Scroll$2328                      Scroll
     00001FD4  A$Scroll$2329                      Scroll
     00001FD5  A$Scroll$2330                      Scroll
     00001FD8  A$Scroll$2331                      Scroll
     00001FDA  A$Scroll$2332                      Scroll
     00001FDB  A$Scroll$2336                      Scroll
     00001FDB  C$Scroll.c$424$1_0$260             Scroll
     00001FDE  A$Scroll$2337                      Scroll
     00001FDF  A$Scroll$2338                      Scroll
     00001FE0  A$Scroll$2339                      Scroll
     00001FE3  A$Scroll$2343                      Scroll
     00001FE3  C$Scroll.c$425$2_0$261             Scroll
     00001FE6  A$Scroll$2344                      Scroll
     00001FE8  A$Scroll$2345                      Scroll
     00001FE9  A$Scroll$2346                      Scroll
     00001FEC  A$Scroll$2347                      Scroll
     00001FEE  A$Scroll$2348                      Scroll
     00001FEF  A$Scroll$2349                      Scroll
     00001FF2  A$Scroll$2350                      Scroll
     00001FF4  A$Scroll$2351                      Scroll
     00001FF5  A$Scroll$2352                      Scroll
     00001FF6  A$Scroll$2353                      Scroll
     00001FF7  A$Scroll$2354                      Scroll
     00001FF8  A$Scroll$2355                      Scroll
     00001FFB  A$Scroll$2356                      Scroll
     00001FFC  A$Scroll$2357                      Scroll
     00001FFD  A$Scroll$2358                      Scroll
     00001FFE  A$Scroll$2359                      Scroll
     00001FFF  A$Scroll$2360                      Scroll
     00002000  A$Scroll$2361                      Scroll
     00002001  A$Scroll$2362                      Scroll
     00002003  A$Scroll$2363                      Scroll
     00002004  A$Scroll$2364                      Scroll
     00002005  A$Scroll$2365                      Scroll
     00002006  A$Scroll$2366                      Scroll
     00002007  A$Scroll$2367                      Scroll
     0000200A  A$Scroll$2368                      Scroll
ASxxxx Linker V03.00/V05.40 + sdld,  page 87.
Hexadecimal  [32-Bits]

Area                                    Addr        Size        Decimal Bytes (Attributes)
--------------------------------        ----        ----        ------- ----- ------------
_CODE                               00000200    00002C59 =       11353. bytes (REL,CON)

      Value  Global                              Global Defined In Module
      -----  --------------------------------   ------------------------
     0000200B  A$Scroll$2369                      Scroll
     0000200C  A$Scroll$2370                      Scroll
     0000200D  A$Scroll$2371                      Scroll
     0000200F  A$Scroll$2372                      Scroll
     00002010  A$Scroll$2373                      Scroll
     00002011  A$Scroll$2374                      Scroll
     00002012  A$Scroll$2375                      Scroll
     00002013  A$Scroll$2376                      Scroll
     00002014  A$Scroll$2377                      Scroll
     00002015  A$Scroll$2378                      Scroll
     00002016  A$Scroll$2379                      Scroll
     00002017  A$Scroll$2380                      Scroll
     00002018  A$Scroll$2381                      Scroll
     00002019  A$Scroll$2382                      Scroll
     0000201A  A$Scroll$2383                      Scroll
     0000201B  A$Scroll$2384                      Scroll
     0000201D  A$Scroll$2385                      Scroll
     0000201E  A$Scroll$2386                      Scroll
     0000201F  A$Scroll$2387                      Scroll
     00002020  A$Scroll$2388                      Scroll
     00002021  A$Scroll$2389                      Scroll
     00002023  A$Scroll$2390                      Scroll
     00002024  A$Scroll$2391                      Scroll
     00002025  A$Scroll$2392                      Scroll
     00002026  A$Scroll$2393                      Scroll
     00002027  A$Scroll$2394                      Scroll
     00002028  A$Scroll$2395                      Scroll
     00002029  A$Scroll$2396                      Scroll
     0000202A  A$Scroll$2397                      Scroll
     0000202B  A$Scroll$2398                      Scroll
     0000202C  A$Scroll$2399                      Scroll
     0000202D  A$Scroll$2400                      Scroll
     0000202E  A$Scroll$2401                      Scroll
     0000202F  A$Scroll$2402                      Scroll
     00002030  A$Scroll$2403                      Scroll
     00002031  A$Scroll$2404                      Scroll
     00002033  A$Scroll$2405                      Scroll
     00002034  A$Scroll$2406                      Scroll
     00002036  A$Scroll$2410                      Scroll
     00002036  C$Scroll.c$426$3_0$262             Scroll
     00002038  A$Scroll$2411                      Scroll
     00002039  A$Scroll$2412                      Scroll
     0000203A  A$Scroll$2413                      Scroll
     0000203B  A$Scroll$2414                      Scroll
     0000203C  A$Scroll$2415                      Scroll
     0000203D  A$Scroll$2416                      Scroll
     0000203E  A$Scroll$2417                      Scroll
     0000203F  A$Scroll$2418                      Scroll
     00002040  A$Scroll$2419                      Scroll
     00002042  A$Scroll$2420                      Scroll
     00002043  A$Scroll$2421                      Scroll
ASxxxx Linker V03.00/V05.40 + sdld,  page 88.
Hexadecimal  [32-Bits]

Area                                    Addr        Size        Decimal Bytes (Attributes)
--------------------------------        ----        ----        ------- ----- ------------
_CODE                               00000200    00002C59 =       11353. bytes (REL,CON)

      Value  Global                              Global Defined In Module
      -----  --------------------------------   ------------------------
     00002044  A$Scroll$2422                      Scroll
     00002046  A$Scroll$2427                      Scroll
     00002046  C$Scroll.c$427$2_0$261             Scroll
     00002049  A$Scroll$2428                      Scroll
     0000204A  A$Scroll$2429                      Scroll
     0000204C  A$Scroll$2430                      Scroll
     0000204E  A$Scroll$2431                      Scroll
     0000204F  A$Scroll$2432                      Scroll
     00002050  A$Scroll$2433                      Scroll
     00002051  A$Scroll$2434                      Scroll
     00002052  A$Scroll$2435                      Scroll
     00002053  A$Scroll$2436                      Scroll
     00002054  A$Scroll$2437                      Scroll
     00002055  A$Scroll$2438                      Scroll
     00002056  A$Scroll$2439                      Scroll
     00002057  A$Scroll$2440                      Scroll
     00002058  A$Scroll$2441                      Scroll
     00002059  A$Scroll$2442                      Scroll
     0000205A  A$Scroll$2443                      Scroll
     0000205B  A$Scroll$2444                      Scroll
     0000205C  A$Scroll$2445                      Scroll
     0000205E  A$Scroll$2446                      Scroll
     0000205F  A$Scroll$2447                      Scroll
     00002061  A$Scroll$2451                      Scroll
     00002061  C$Scroll.c$428$3_0$263             Scroll
     00002063  A$Scroll$2452                      Scroll
     00002064  A$Scroll$2453                      Scroll
     00002065  A$Scroll$2454                      Scroll
     00002066  A$Scroll$2455                      Scroll
     00002067  A$Scroll$2456                      Scroll
     00002068  A$Scroll$2457                      Scroll
     00002069  A$Scroll$2458                      Scroll
     0000206A  A$Scroll$2459                      Scroll
     0000206B  A$Scroll$2460                      Scroll
     0000206D  A$Scroll$2461                      Scroll
     0000206E  A$Scroll$2462                      Scroll
     0000206F  A$Scroll$2467                      Scroll
     0000206F  C$Scroll.c$431$2_0$261             Scroll
     00002071  A$Scroll$2468                      Scroll
     00002072  A$Scroll$2469                      Scroll
     00002073  A$Scroll$2470                      Scroll
     00002074  A$Scroll$2471                      Scroll
     00002077  A$Scroll$2472                      Scroll
     00002078  A$Scroll$2473                      Scroll
     00002079  A$Scroll$2474                      Scroll
     0000207A  A$Scroll$2475                      Scroll
     0000207B  A$Scroll$2476                      Scroll
     0000207C  A$Scroll$2477                      Scroll
     0000207E  A$Scroll$2478                      Scroll
     0000207F  A$Scroll$2479                      Scroll
     00002080  A$Scroll$2480                      Scroll
ASxxxx Linker V03.00/V05.40 + sdld,  page 89.
Hexadecimal  [32-Bits]

Area                                    Addr        Size        Decimal Bytes (Attributes)
--------------------------------        ----        ----        ------- ----- ------------
_CODE                               00000200    00002C59 =       11353. bytes (REL,CON)

      Value  Global                              Global Defined In Module
      -----  --------------------------------   ------------------------
     00002082  A$Scroll$2481                      Scroll
     00002083  A$Scroll$2482                      Scroll
     00002084  A$Scroll$2483                      Scroll
     00002085  A$Scroll$2484                      Scroll
     00002088  A$Scroll$2489                      Scroll
     0000208A  A$Scroll$2494                      Scroll
     0000208A  C$Scroll.c$433$1_0$260             Scroll
     0000208A  XG$RefreshScroll$0$0               Scroll
     0000208B  A$Scroll$2504                      Scroll
     0000208B  C$Scroll.c$435$1_0$265             Scroll
     0000208B  G$MoveScroll$0$0                   Scroll
     0000208B  _MoveScroll                        Scroll
     0000208D  A$Scroll$2508                      Scroll
     0000208D  C$Scroll.c$438$1_0$265             Scroll
     0000208E  A$Scroll$2509                      Scroll
     0000208F  A$Scroll$2510                      Scroll
     00002092  A$Scroll$2511                      Scroll
     00002093  A$Scroll$2512                      Scroll
     00002094  A$Scroll$2513                      Scroll
     00002097  A$Scroll$2514                      Scroll
     00002098  A$Scroll$2515                      Scroll
     00002099  A$Scroll$2516                      Scroll
     0000209A  A$Scroll$2520                      Scroll
     0000209A  C$Scroll.c$440$1_0$265             Scroll
     0000209D  A$Scroll$2521                      Scroll
     0000209F  A$Scroll$2522                      Scroll
     000020A0  A$Scroll$2523                      Scroll
     000020A3  A$Scroll$2524                      Scroll
     000020A5  A$Scroll$2525                      Scroll
     000020A6  A$Scroll$2526                      Scroll
     000020A8  A$Scroll$2527                      Scroll
     000020A9  A$Scroll$2528                      Scroll
     000020AB  A$Scroll$2529                      Scroll
     000020AC  A$Scroll$2530                      Scroll
     000020AE  A$Scroll$2531                      Scroll
     000020AF  A$Scroll$2532                      Scroll
     000020B1  A$Scroll$2533                      Scroll
     000020B2  A$Scroll$2534                      Scroll
     000020B4  A$Scroll$2535                      Scroll
     000020B5  A$Scroll$2536                      Scroll
     000020B7  A$Scroll$2540                      Scroll
     000020B7  C$Scroll.c$441$1_0$265             Scroll
     000020BA  A$Scroll$2541                      Scroll
     000020BC  A$Scroll$2542                      Scroll
     000020BD  A$Scroll$2543                      Scroll
     000020C0  A$Scroll$2544                      Scroll
     000020C2  A$Scroll$2545                      Scroll
     000020C3  A$Scroll$2546                      Scroll
     000020C5  A$Scroll$2547                      Scroll
     000020C6  A$Scroll$2548                      Scroll
     000020C8  A$Scroll$2549                      Scroll
ASxxxx Linker V03.00/V05.40 + sdld,  page 90.
Hexadecimal  [32-Bits]

Area                                    Addr        Size        Decimal Bytes (Attributes)
--------------------------------        ----        ----        ------- ----- ------------
_CODE                               00000200    00002C59 =       11353. bytes (REL,CON)

      Value  Global                              Global Defined In Module
      -----  --------------------------------   ------------------------
     000020C9  A$Scroll$2550                      Scroll
     000020CB  A$Scroll$2551                      Scroll
     000020CC  A$Scroll$2552                      Scroll
     000020CE  A$Scroll$2553                      Scroll
     000020CF  A$Scroll$2554                      Scroll
     000020D1  A$Scroll$2555                      Scroll
     000020D2  A$Scroll$2556                      Scroll
     000020D4  A$Scroll$2560                      Scroll
     000020D4  C$Scroll.c$443$1_0$265             Scroll
     000020D7  A$Scroll$2561                      Scroll
     000020D8  A$Scroll$2562                      Scroll
     000020D9  A$Scroll$2563                      Scroll
     000020DA  A$Scroll$2567                      Scroll
     000020DA  C$Scroll.c$444$1_0$265             Scroll
     000020DD  A$Scroll$2568                      Scroll
     000020DE  A$Scroll$2569                      Scroll
     000020DF  A$Scroll$2570                      Scroll
     000020E0  A$Scroll$2574                      Scroll
     000020E0  C$Scroll.c$445$1_0$265             Scroll
     000020E3  A$Scroll$2578                      Scroll
     000020E3  C$Scroll.c$447$1_0$265             Scroll
     000020E6  A$Scroll$2579                      Scroll
     000020E7  A$Scroll$2580                      Scroll
     000020E8  A$Scroll$2581                      Scroll
     000020E9  A$Scroll$2582                      Scroll
     000020EB  A$Scroll$2583                      Scroll
     000020ED  A$Scroll$2584                      Scroll
     000020EF  A$Scroll$2585                      Scroll
     000020F1  A$Scroll$2586                      Scroll
     000020F3  A$Scroll$2587                      Scroll
     000020F5  A$Scroll$2591                      Scroll
     000020F5  C$Scroll.c$448$1_0$265             Scroll
     000020F8  A$Scroll$2592                      Scroll
     000020FA  A$Scroll$2593                      Scroll
     000020FB  A$Scroll$2594                      Scroll
     000020FE  A$Scroll$2595                      Scroll
     00002100  A$Scroll$2596                      Scroll
     00002101  A$Scroll$2597                      Scroll
     00002103  A$Scroll$2598                      Scroll
     00002104  A$Scroll$2599                      Scroll
     00002106  A$Scroll$2600                      Scroll
     00002107  A$Scroll$2601                      Scroll
     00002109  A$Scroll$2602                      Scroll
     0000210A  A$Scroll$2603                      Scroll
     0000210C  A$Scroll$2604                      Scroll
     0000210D  A$Scroll$2605                      Scroll
     0000210F  A$Scroll$2606                      Scroll
     00002110  A$Scroll$2607                      Scroll
     00002112  A$Scroll$2611                      Scroll
     00002112  C$Scroll.c$452$1_0$265             Scroll
     00002113  A$Scroll$2612                      Scroll
ASxxxx Linker V03.00/V05.40 + sdld,  page 91.
Hexadecimal  [32-Bits]

Area                                    Addr        Size        Decimal Bytes (Attributes)
--------------------------------        ----        ----        ------- ----- ------------
_CODE                               00000200    00002C59 =       11353. bytes (REL,CON)

      Value  Global                              Global Defined In Module
      -----  --------------------------------   ------------------------
     00002114  A$Scroll$2613                      Scroll
     00002115  A$Scroll$2614                      Scroll
     00002118  A$Scroll$2615                      Scroll
     00002119  A$Scroll$2616                      Scroll
     0000211A  A$Scroll$2617                      Scroll
     0000211B  A$Scroll$2618                      Scroll
     0000211C  A$Scroll$2619                      Scroll
     0000211D  A$Scroll$2620                      Scroll
     0000211F  A$Scroll$2621                      Scroll
     00002120  A$Scroll$2622                      Scroll
     00002121  A$Scroll$2626                      Scroll
     00002121  C$Scroll.c$454$1_0$265             Scroll
     00002124  A$Scroll$2627                      Scroll
     00002125  A$Scroll$2628                      Scroll
     00002126  A$Scroll$2629                      Scroll
     00002127  A$Scroll$2630                      Scroll
     00002128  A$Scroll$2631                      Scroll
     00002129  A$Scroll$2632                      Scroll
     0000212B  A$Scroll$2633                      Scroll
     0000212C  A$Scroll$2634                      Scroll
     0000212D  A$Scroll$2638                      Scroll
     0000212D  C$Scroll.c$450$1_0$265             Scroll
     0000212F  A$Scroll$2639                      Scroll
     00002130  A$Scroll$2640                      Scroll
     00002131  A$Scroll$2641                      Scroll
     00002133  A$Scroll$2642                      Scroll
     00002134  A$Scroll$2643                      Scroll
     00002135  A$Scroll$2644                      Scroll
     00002136  A$Scroll$2645                      Scroll
     00002138  A$Scroll$2650                      Scroll
     00002138  C$Scroll.c$451$2_0$266             Scroll
     0000213A  A$Scroll$2651                      Scroll
     0000213B  A$Scroll$2652                      Scroll
     0000213C  A$Scroll$2653                      Scroll
     0000213D  A$Scroll$2654                      Scroll
     0000213E  A$Scroll$2655                      Scroll
     0000213F  A$Scroll$2656                      Scroll
     00002140  A$Scroll$2657                      Scroll
     00002142  A$Scroll$2658                      Scroll
     00002144  A$Scroll$2659                      Scroll
     00002146  A$Scroll$2660                      Scroll
     00002148  A$Scroll$2661                      Scroll
     00002149  A$Scroll$2662                      Scroll
     0000214B  A$Scroll$2664                      Scroll
     0000214D  A$Scroll$2665                      Scroll
     0000214F  A$Scroll$2666                      Scroll
     00002150  A$Scroll$2668                      Scroll
     00002152  A$Scroll$2672                      Scroll
     00002152  C$Scroll.c$452$3_0$267             Scroll
     00002155  A$Scroll$2673                      Scroll
     00002156  A$Scroll$2674                      Scroll
ASxxxx Linker V03.00/V05.40 + sdld,  page 92.
Hexadecimal  [32-Bits]

Area                                    Addr        Size        Decimal Bytes (Attributes)
--------------------------------        ----        ----        ------- ----- ------------
_CODE                               00000200    00002C59 =       11353. bytes (REL,CON)

      Value  Global                              Global Defined In Module
      -----  --------------------------------   ------------------------
     00002157  A$Scroll$2675                      Scroll
     00002158  A$Scroll$2676                      Scroll
     0000215A  A$Scroll$2677                      Scroll
     0000215B  A$Scroll$2678                      Scroll
     0000215C  A$Scroll$2679                      Scroll
     0000215D  A$Scroll$2680                      Scroll
     00002160  A$Scroll$2681                      Scroll
     00002162  A$Scroll$2686                      Scroll
     00002162  C$Scroll.c$454$3_0$268             Scroll
     00002164  A$Scroll$2687                      Scroll
     00002165  A$Scroll$2688                      Scroll
     00002166  A$Scroll$2689                      Scroll
     00002167  A$Scroll$2690                      Scroll
     00002168  A$Scroll$2691                      Scroll
     00002169  A$Scroll$2692                      Scroll
     0000216A  A$Scroll$2693                      Scroll
     0000216B  A$Scroll$2694                      Scroll
     0000216E  A$Scroll$2699                      Scroll
     0000216E  C$Scroll.c$458$1_0$265             Scroll
     00002170  A$Scroll$2700                      Scroll
     00002171  A$Scroll$2701                      Scroll
     00002172  A$Scroll$2702                      Scroll
     00002173  A$Scroll$2703                      Scroll
     00002175  A$Scroll$2704                      Scroll
     00002176  A$Scroll$2705                      Scroll
     00002177  A$Scroll$2706                      Scroll
     00002178  A$Scroll$2707                      Scroll
     00002179  A$Scroll$2708                      Scroll
     0000217B  A$Scroll$2713                      Scroll
     0000217B  C$Scroll.c$459$2_0$269             Scroll
     0000217D  A$Scroll$2714                      Scroll
     0000217E  A$Scroll$2715                      Scroll
     0000217F  A$Scroll$2716                      Scroll
     00002181  A$Scroll$2717                      Scroll
     00002182  A$Scroll$2718                      Scroll
     00002183  A$Scroll$2719                      Scroll
     00002184  A$Scroll$2720                      Scroll
     00002185  A$Scroll$2721                      Scroll
     00002186  A$Scroll$2722                      Scroll
     00002187  A$Scroll$2723                      Scroll
     00002188  A$Scroll$2724                      Scroll
     00002189  A$Scroll$2725                      Scroll
     0000218B  A$Scroll$2726                      Scroll
     0000218D  A$Scroll$2727                      Scroll
     0000218F  A$Scroll$2728                      Scroll
     00002191  A$Scroll$2729                      Scroll
     00002192  A$Scroll$2730                      Scroll
     00002194  A$Scroll$2732                      Scroll
     00002196  A$Scroll$2733                      Scroll
     00002198  A$Scroll$2734                      Scroll
     00002199  A$Scroll$2736                      Scroll
ASxxxx Linker V03.00/V05.40 + sdld,  page 93.
Hexadecimal  [32-Bits]

Area                                    Addr        Size        Decimal Bytes (Attributes)
--------------------------------        ----        ----        ------- ----- ------------
_CODE                               00000200    00002C59 =       11353. bytes (REL,CON)

      Value  Global                              Global Defined In Module
      -----  --------------------------------   ------------------------
     0000219B  A$Scroll$2740                      Scroll
     0000219B  C$Scroll.c$460$3_0$270             Scroll
     0000219D  A$Scroll$2741                      Scroll
     0000219E  A$Scroll$2742                      Scroll
     0000219F  A$Scroll$2743                      Scroll
     000021A0  A$Scroll$2744                      Scroll
     000021A3  A$Scroll$2745                      Scroll
     000021A4  A$Scroll$2746                      Scroll
     000021A5  A$Scroll$2747                      Scroll
     000021A6  A$Scroll$2748                      Scroll
     000021A8  A$Scroll$2749                      Scroll
     000021A9  A$Scroll$2750                      Scroll
     000021AA  A$Scroll$2751                      Scroll
     000021AB  A$Scroll$2752                      Scroll
     000021AE  A$Scroll$2753                      Scroll
     000021B0  A$Scroll$2758                      Scroll
     000021B0  C$Scroll.c$462$3_0$271             Scroll
     000021B2  A$Scroll$2759                      Scroll
     000021B3  A$Scroll$2760                      Scroll
     000021B4  A$Scroll$2761                      Scroll
     000021B5  A$Scroll$2762                      Scroll
     000021B6  A$Scroll$2763                      Scroll
     000021B7  A$Scroll$2764                      Scroll
     000021B8  A$Scroll$2765                      Scroll
     000021B9  A$Scroll$2766                      Scroll
     000021BC  A$Scroll$2771                      Scroll
     000021BC  C$Scroll.c$466$1_0$265             Scroll
     000021BF  A$Scroll$2772                      Scroll
     000021C0  A$Scroll$2773                      Scroll
     000021C2  A$Scroll$2777                      Scroll
     000021C2  C$Scroll.c$467$2_0$272             Scroll
     000021C5  A$Scroll$2782                      Scroll
     000021C5  C$Scroll.c$469$1_0$265             Scroll
     000021C8  A$Scroll$2783                      Scroll
     000021C9  A$Scroll$2784                      Scroll
     000021CB  A$Scroll$2788                      Scroll
     000021CB  C$Scroll.c$470$2_0$273             Scroll
     000021CE  A$Scroll$2793                      Scroll
     000021CE  C$Scroll.c$472$1_0$265             Scroll
     000021D1  A$Scroll$2797                      Scroll
     000021D3  A$Scroll$2802                      Scroll
     000021D3  C$Scroll.c$473$1_0$265             Scroll
     000021D3  XG$MoveScroll$0$0                  Scroll
     000021D4  A$Scroll$2815                      Scroll
     000021D4  C$Scroll.c$475$1_0$275             Scroll
     000021D4  C$Scroll.c$479$1_0$275             Scroll
     000021D4  G$GetScrollTilePtr$0$0             Scroll
     000021D4  _GetScrollTilePtr                  Scroll
     000021D5  A$Scroll$2816                      Scroll
     000021D8  A$Scroll$2817                      Scroll
     000021D9  A$Scroll$2818                      Scroll
ASxxxx Linker V03.00/V05.40 + sdld,  page 94.
Hexadecimal  [32-Bits]

Area                                    Addr        Size        Decimal Bytes (Attributes)
--------------------------------        ----        ----        ------- ----- ------------
_CODE                               00000200    00002C59 =       11353. bytes (REL,CON)

      Value  Global                              Global Defined In Module
      -----  --------------------------------   ------------------------
     000021DA  A$Scroll$2819                      Scroll
     000021DB  A$Scroll$2820                      Scroll
     000021DE  A$Scroll$2821                      Scroll
     000021DF  A$Scroll$2824                      Scroll
     000021E0  A$Scroll$2827                      Scroll
     000021E1  A$Scroll$2828                      Scroll
     000021E2  A$Scroll$2829                      Scroll
     000021E3  A$Scroll$2830                      Scroll
     000021E4  A$Scroll$2831                      Scroll
     000021E5  A$Scroll$2832                      Scroll
     000021E8  A$Scroll$2833                      Scroll
     000021E9  A$Scroll$2834                      Scroll
     000021EA  A$Scroll$2835                      Scroll
     000021EB  A$Scroll$2836                      Scroll
     000021EC  A$Scroll$2837                      Scroll
     000021ED  A$Scroll$2838                      Scroll
     000021EE  A$Scroll$2846                      Scroll
     000021EE  C$Scroll.c$480$1_0$275             Scroll
     000021EE  XG$GetScrollTilePtr$0$0            Scroll
     000021EF  A$Scroll$2859                      Scroll
     000021EF  C$Scroll.c$482$1_0$277             Scroll
     000021EF  C$Scroll.c$484$1_0$277             Scroll
     000021EF  G$GetScrollTile$0$0                Scroll
     000021EF  _GetScrollTile                     Scroll
     000021F0  A$Scroll$2860                      Scroll
     000021F1  A$Scroll$2861                      Scroll
     000021F4  A$Scroll$2862                      Scroll
     000021F5  A$Scroll$2863                      Scroll
     000021F6  A$Scroll$2864                      Scroll
     000021F9  A$Scroll$2865                      Scroll
     000021FA  A$Scroll$2866                      Scroll
     000021FB  A$Scroll$2867                      Scroll
     000021FC  A$Scroll$2871                      Scroll
     000021FC  C$Scroll.c$485$1_0$277             Scroll
     000021FF  A$Scroll$2872                      Scroll
     00002200  A$Scroll$2873                      Scroll
     00002201  A$Scroll$2877                      Scroll
     00002201  C$Scroll.c$486$1_0$277             Scroll
     00002202  A$Scroll$2878                      Scroll
     00002205  A$Scroll$2879                      Scroll
     00002206  A$Scroll$2883                      Scroll
     00002206  C$Scroll.c$487$1_0$277             Scroll
     00002207  A$Scroll$2891                      Scroll
     00002207  C$Scroll.c$488$1_0$277             Scroll
     00002207  XG$GetScrollTile$0$0               Scroll
     00002208  A$Scroll$2904                      Scroll
     00002208  C$Scroll.c$490$1_0$279             Scroll
     00002208  C$Scroll.c$492$1_0$279             Scroll
     00002208  G$GetMapSize$0$0                   Scroll
     00002208  _GetMapSize                        Scroll
     00002209  A$Scroll$2905                      Scroll
ASxxxx Linker V03.00/V05.40 + sdld,  page 95.
Hexadecimal  [32-Bits]

Area                                    Addr        Size        Decimal Bytes (Attributes)
--------------------------------        ----        ----        ------- ----- ------------
_CODE                               00000200    00002C59 =       11353. bytes (REL,CON)

      Value  Global                              Global Defined In Module
      -----  --------------------------------   ------------------------
     0000220A  A$Scroll$2906                      Scroll
     0000220B  A$Scroll$2907                      Scroll
     0000220E  A$Scroll$2908                      Scroll
     0000220F  A$Scroll$2909                      Scroll
     00002210  A$Scroll$2913                      Scroll
     00002210  C$Scroll.c$493$1_0$279             Scroll
     00002212  A$Scroll$2914                      Scroll
     00002213  A$Scroll$2915                      Scroll
     00002214  A$Scroll$2916                      Scroll
     00002216  A$Scroll$2917                      Scroll
     00002217  A$Scroll$2918                      Scroll
     00002218  A$Scroll$2919                      Scroll
     00002219  A$Scroll$2920                      Scroll
     0000221A  A$Scroll$2923                      Scroll
     0000221B  A$Scroll$2926                      Scroll
     0000221C  A$Scroll$2927                      Scroll
     0000221D  A$Scroll$2928                      Scroll
     0000221E  A$Scroll$2929                      Scroll
     0000221F  A$Scroll$2934                      Scroll
     0000221F  C$Scroll.c$494$1_0$279             Scroll
     00002221  A$Scroll$2935                      Scroll
     00002222  A$Scroll$2936                      Scroll
     00002223  A$Scroll$2937                      Scroll
     00002225  A$Scroll$2938                      Scroll
     00002226  A$Scroll$2939                      Scroll
     00002227  A$Scroll$2940                      Scroll
     00002228  A$Scroll$2941                      Scroll
     00002229  A$Scroll$2942                      Scroll
     0000222A  A$Scroll$2943                      Scroll
     0000222B  A$Scroll$2944                      Scroll
     0000222C  A$Scroll$2945                      Scroll
     0000222D  A$Scroll$2950                      Scroll
     0000222D  C$Scroll.c$495$1_0$279             Scroll
     00002230  A$Scroll$2954                      Scroll
     00002230  C$Scroll.c$496$1_0$279             Scroll
     00002231  A$Scroll$2955                      Scroll
     00002233  A$Scroll$2956                      Scroll
     00002234  A$Scroll$2966                      Scroll
     00002234  C$Scroll.c$498$1_0$281             Scroll
     00002234  G$ScrollFindTile$0$0               Scroll
     00002234  _ScrollFindTile                    Scroll
     00002236  A$Scroll$2967                      Scroll
     00002238  A$Scroll$2968                      Scroll
     00002239  A$Scroll$2969                      Scroll
     0000223A  A$Scroll$2970                      Scroll
     0000223B  A$Scroll$2974                      Scroll
     0000223B  C$Scroll.c$502$2_0$281             Scroll
     0000223D  A$Scroll$2975                      Scroll
     0000223F  A$Scroll$2976                      Scroll
     00002240  A$Scroll$2977                      Scroll
     00002242  A$Scroll$2981                      Scroll
ASxxxx Linker V03.00/V05.40 + sdld,  page 96.
Hexadecimal  [32-Bits]

Area                                    Addr        Size        Decimal Bytes (Attributes)
--------------------------------        ----        ----        ------- ----- ------------
_CODE                               00000200    00002C59 =       11353. bytes (REL,CON)

      Value  Global                              Global Defined In Module
      -----  --------------------------------   ------------------------
     00002242  C$Scroll.c$503$2_0$281             Scroll
     00002243  A$Scroll$2982                      Scroll
     00002245  A$Scroll$2986                      Scroll
     00002245  C$Scroll.c$505$1_0$281             Scroll
     00002246  A$Scroll$2987                      Scroll
     00002247  A$Scroll$2988                      Scroll
     0000224A  A$Scroll$2989                      Scroll
     0000224B  A$Scroll$2993                      Scroll
     0000224D  A$Scroll$2994                      Scroll
     0000224E  A$Scroll$2995                      Scroll
     00002250  A$Scroll$2996                      Scroll
     00002251  A$Scroll$2997                      Scroll
     00002253  A$Scroll$2998                      Scroll
     00002255  A$Scroll$2999                      Scroll
     00002256  A$Scroll$3000                      Scroll
     00002257  A$Scroll$3001                      Scroll
     00002258  A$Scroll$3002                      Scroll
     0000225B  A$Scroll$3003                      Scroll
     0000225C  A$Scroll$3004                      Scroll
     0000225D  A$Scroll$3005                      Scroll
     0000225E  A$Scroll$3006                      Scroll
     00002260  A$Scroll$3007                      Scroll
     00002261  A$Scroll$3008                      Scroll
     00002262  A$Scroll$3009                      Scroll
     00002263  A$Scroll$3010                      Scroll
     00002265  A$Scroll$3011                      Scroll
     00002266  A$Scroll$3012                      Scroll
     00002268  A$Scroll$3013                      Scroll
     00002269  A$Scroll$3014                      Scroll
     0000226B  A$Scroll$3015                      Scroll
     0000226C  A$Scroll$3016                      Scroll
     0000226E  A$Scroll$3018                      Scroll
     00002270  A$Scroll$3019                      Scroll
     00002271  A$Scroll$3020                      Scroll
     00002272  A$Scroll$3021                      Scroll
     00002274  A$Scroll$3022                      Scroll
     00002275  A$Scroll$3023                      Scroll
     00002276  A$Scroll$3024                      Scroll
     00002277  A$Scroll$3025                      Scroll
     00002279  A$Scroll$3026                      Scroll
     0000227A  A$Scroll$3028                      Scroll
     0000227C  A$Scroll$3029                      Scroll
     0000227D  A$Scroll$3030                      Scroll
     0000227E  A$Scroll$3031                      Scroll
     00002280  A$Scroll$3032                      Scroll
     00002281  A$Scroll$3033                      Scroll
     00002282  A$Scroll$3034                      Scroll
     00002283  A$Scroll$3035                      Scroll
     00002286  A$Scroll$3040                      Scroll
     00002288  A$Scroll$3041                      Scroll
     00002289  A$Scroll$3042                      Scroll
ASxxxx Linker V03.00/V05.40 + sdld,  page 97.
Hexadecimal  [32-Bits]

Area                                    Addr        Size        Decimal Bytes (Attributes)
--------------------------------        ----        ----        ------- ----- ------------
_CODE                               00000200    00002C59 =       11353. bytes (REL,CON)

      Value  Global                              Global Defined In Module
      -----  --------------------------------   ------------------------
     0000228B  A$Scroll$3043                      Scroll
     0000228C  A$Scroll$3044                      Scroll
     0000228E  A$Scroll$3045                      Scroll
     00002290  A$Scroll$3046                      Scroll
     00002291  A$Scroll$3047                      Scroll
     00002292  A$Scroll$3048                      Scroll
     00002293  A$Scroll$3049                      Scroll
     00002294  A$Scroll$3050                      Scroll
     00002296  A$Scroll$3051                      Scroll
     00002297  A$Scroll$3052                      Scroll
     00002298  A$Scroll$3053                      Scroll
     00002299  A$Scroll$3054                      Scroll
     0000229A  A$Scroll$3055                      Scroll
     0000229B  A$Scroll$3056                      Scroll
     0000229C  A$Scroll$3057                      Scroll
     0000229D  A$Scroll$3058                      Scroll
     0000229E  A$Scroll$3059                      Scroll
     0000229F  A$Scroll$3060                      Scroll
     000022A0  A$Scroll$3061                      Scroll
     000022A2  A$Scroll$3062                      Scroll
     000022A3  A$Scroll$3063                      Scroll
     000022A4  A$Scroll$3064                      Scroll
     000022A5  A$Scroll$3066                      Scroll
     000022A7  A$Scroll$3067                      Scroll
     000022A8  A$Scroll$3068                      Scroll
     000022AA  A$Scroll$3069                      Scroll
     000022AB  A$Scroll$3070                      Scroll
     000022AD  A$Scroll$3071                      Scroll
     000022AF  A$Scroll$3072                      Scroll
     000022B0  A$Scroll$3073                      Scroll
     000022B2  A$Scroll$3074                      Scroll
     000022B4  A$Scroll$3075                      Scroll
     000022B5  A$Scroll$3076                      Scroll
     000022B6  A$Scroll$3077                      Scroll
     000022B7  A$Scroll$3078                      Scroll
     000022B8  A$Scroll$3079                      Scroll
     000022B9  A$Scroll$3080                      Scroll
     000022BA  A$Scroll$3081                      Scroll
     000022BB  A$Scroll$3082                      Scroll
     000022BC  A$Scroll$3083                      Scroll
     000022BE  A$Scroll$3084                      Scroll
     000022BF  A$Scroll$3085                      Scroll
     000022C0  A$Scroll$3086                      Scroll
     000022C2  A$Scroll$3091                      Scroll
     000022C2  C$Scroll.c$508$5_0$285             Scroll
     000022C4  A$Scroll$3092                      Scroll
     000022C5  A$Scroll$3093                      Scroll
     000022C6  A$Scroll$3094                      Scroll
     000022C7  A$Scroll$3095                      Scroll
     000022C8  A$Scroll$3096                      Scroll
     000022C9  A$Scroll$3097                      Scroll
ASxxxx Linker V03.00/V05.40 + sdld,  page 98.
Hexadecimal  [32-Bits]

Area                                    Addr        Size        Decimal Bytes (Attributes)
--------------------------------        ----        ----        ------- ----- ------------
_CODE                               00000200    00002C59 =       11353. bytes (REL,CON)

      Value  Global                              Global Defined In Module
      -----  --------------------------------   ------------------------
     000022CA  A$Scroll$3098                      Scroll
     000022CB  A$Scroll$3099                      Scroll
     000022CC  A$Scroll$3100                      Scroll
     000022CE  A$Scroll$3101                      Scroll
     000022D1  A$Scroll$3102                      Scroll
     000022D2  A$Scroll$3103                      Scroll
     000022D4  A$Scroll$3104                      Scroll
     000022D5  A$Scroll$3105                      Scroll
     000022D6  A$Scroll$3106                      Scroll
     000022D7  A$Scroll$3107                      Scroll
     000022D8  A$Scroll$3108                      Scroll
     000022D9  A$Scroll$3109                      Scroll
     000022DA  A$Scroll$3110                      Scroll
     000022DC  A$Scroll$3111                      Scroll
     000022DD  A$Scroll$3112                      Scroll
     000022DE  A$Scroll$3113                      Scroll
     000022DF  A$Scroll$3114                      Scroll
     000022E0  A$Scroll$3115                      Scroll
     000022E1  A$Scroll$3116                      Scroll
     000022E2  A$Scroll$3117                      Scroll
     000022E3  A$Scroll$3118                      Scroll
     000022E4  A$Scroll$3119                      Scroll
     000022E6  A$Scroll$3120                      Scroll
     000022E7  A$Scroll$3121                      Scroll
     000022E8  A$Scroll$3122                      Scroll
     000022EA  A$Scroll$3126                      Scroll
     000022EA  C$Scroll.c$507$4_0$284             Scroll
     000022EB  A$Scroll$3127                      Scroll
     000022EC  A$Scroll$3128                      Scroll
     000022ED  A$Scroll$3129                      Scroll
     000022EE  A$Scroll$3130                      Scroll
     000022F0  A$Scroll$3135                      Scroll
     000022F0  C$Scroll.c$506$2_0$282             Scroll
     000022F2  A$Scroll$3136                      Scroll
     000022F3  A$Scroll$3137                      Scroll
     000022F5  A$Scroll$3138                      Scroll
     000022F6  A$Scroll$3139                      Scroll
     000022F7  A$Scroll$3141                      Scroll
     000022F9  A$Scroll$3142                      Scroll
     000022FA  A$Scroll$3143                      Scroll
     000022FC  A$Scroll$3144                      Scroll
     000022FD  A$Scroll$3145                      Scroll
     000022FF  A$Scroll$3146                      Scroll
     00002300  A$Scroll$3147                      Scroll
     00002302  A$Scroll$3148                      Scroll
     00002303  A$Scroll$3149                      Scroll
     00002306  A$Scroll$3154                      Scroll
     00002306  C$Scroll.c$513$1_0$281             Scroll
     00002308  A$Scroll$3155                      Scroll
     0000230A  A$Scroll$3163                      Scroll
     0000230A  C$Scroll.c$515$1_0$281             Scroll
ASxxxx Linker V03.00/V05.40 + sdld,  page 99.
Hexadecimal  [32-Bits]

Area                                    Addr        Size        Decimal Bytes (Attributes)
--------------------------------        ----        ----        ------- ----- ------------
_CODE                               00000200    00002C59 =       11353. bytes (REL,CON)

      Value  Global                              Global Defined In Module
      -----  --------------------------------   ------------------------
     0000230A  C$Scroll.c$516$1_0$281             Scroll
     0000230D  A$Scroll$3167                      Scroll
     0000230D  C$Scroll.c$517$1_0$281             Scroll
     0000230F  A$Scroll$3168                      Scroll
     00002310  A$Scroll$3169                      Scroll
     00002311  A$Scroll$3170                      Scroll
     00002312  A$Scroll$3171                      Scroll
     00002314  A$Scroll$3172                      Scroll
     00002315  A$Scroll$3173                      Scroll
     00002316  A$Scroll$3174                      Scroll
     00002317  A$Scroll$3175                      Scroll
     00002318  A$Scroll$3176                      Scroll
     00002319  A$Scroll$3180                      Scroll
     00002319  C$Scroll.c$518$1_0$281             Scroll
     0000231B  A$Scroll$3181                      Scroll
     0000231C  A$Scroll$3182                      Scroll
     0000231E  A$Scroll$3183                      Scroll
     0000231F  A$Scroll$3184                      Scroll
     00002321  A$Scroll$3185                      Scroll
     00002322  A$Scroll$3186                      Scroll
     00002324  A$Scroll$3187                      Scroll
     00002325  A$Scroll$3188                      Scroll
     00002326  A$Scroll$3189                      Scroll
     00002327  A$Scroll$3190                      Scroll
     00002328  A$Scroll$3191                      Scroll
     0000232A  A$Scroll$3192                      Scroll
     0000232B  A$Scroll$3193                      Scroll
     0000232C  A$Scroll$3194                      Scroll
     0000232D  A$Scroll$3198                      Scroll
     0000232D  C$Scroll.c$520$1_0$281             Scroll
     0000232E  A$Scroll$3199                      Scroll
     0000232F  A$Scroll$3200                      Scroll
     00002330  A$Scroll$3204                      Scroll
     00002330  C$Scroll.c$521$1_0$281             Scroll
     00002332  A$Scroll$3205                      Scroll
     00002333  A$Scroll$3206                      Scroll
     00002335  A$Scroll$3207                      Scroll
     00002336  A$Fade$60                          Fade
     00002336  C$Fade.c$7$0_0$124                 Fade
     00002336  C$Fade.c$8$1_0$124                 Fade
     00002336  G$FadeIn$0$0                       Fade
     00002336  _FadeIn                            Fade
     00002338  A$Fade$61                          Fade
     0000233B  A$Fade$69                          Fade
     0000233B  C$Fade.c$9$1_0$124                 Fade
     0000233B  XG$FadeIn$0$0                      Fade
     0000233E  A$Fade$82                          Fade
     0000233E  C$Fade.c$11$1_0$125                Fade
     0000233E  C$Fade.c$12$1_0$125                Fade
     0000233E  G$FadeOut$0$0                      Fade
     0000233E  _FadeOut                           Fade
ASxxxx Linker V03.00/V05.40 + sdld,  page 100.
Hexadecimal  [32-Bits]

Area                                    Addr        Size        Decimal Bytes (Attributes)
--------------------------------        ----        ----        ------- ----- ------------
_CODE                               00000200    00002C59 =       11353. bytes (REL,CON)

      Value  Global                              Global Defined In Module
      -----  --------------------------------   ------------------------
     00002340  A$Fade$83                          Fade
     00002343  A$Fade$91                          Fade
     00002343  C$Fade.c$13$1_0$125                Fade
     00002343  XG$FadeOut$0$0                     Fade
     00002346  A$Music$127                        Music
     00002346  C$Music.c$18$1_1$145               Music
     00002346  G$hUGE_mute$0$0                    Music
     00002346  _hUGE_mute                         Music
     00002347  A$Music$131                        Music
     00002347  C$Music.c$19$1_0$145               Music
     00002348  A$Music$132                        Music
     00002349  A$Music$133                        Music
     0000234A  A$Music$134                        Music
     0000234B  A$Music$135                        Music
     0000234C  A$Music$136                        Music
     0000234D  A$Music$137                        Music
     00002350  A$Music$138                        Music
     00002351  A$Music$142                        Music
     00002351  C$Music.c$20$1_0$145               Music
     00002352  A$Music$143                        Music
     00002354  A$Music$144                        Music
     00002357  A$Music$145                        Music
     00002358  A$Music$149                        Music
     00002358  C$Music.c$21$1_0$145               Music
     00002359  A$Music$150                        Music
     0000235B  A$Music$151                        Music
     0000235E  A$Music$152                        Music
     0000235F  A$Music$156                        Music
     0000235F  C$Music.c$22$1_0$145               Music
     00002361  A$Music$164                        Music
     00002361  C$Music.c$23$1_0$145               Music
     00002361  XG$hUGE_mute$0$0                   Music
     00002364  A$Music$174                        Music
     00002364  C$Music.c$40$1_0$147               Music
     00002364  G$__PlayMusic$0$0                  Music
     00002364  ___PlayMusic                       Music
     00002365  A$Music$178                        Music
     00002365  C$Music.c$42$1_0$147               Music
     00002368  A$Music$179                        Music
     00002369  A$Music$180                        Music
     0000236A  A$Music$181                        Music
     0000236C  A$Music$182                        Music
     0000236D  A$Music$183                        Music
     0000236E  A$Music$184                        Music
     0000236F  A$Music$185                        Music
     00002371  A$Music$190                        Music
     00002371  C$Music.c$43$2_0$148               Music
     00002374  A$Music$191                        Music
     00002375  A$Music$192                        Music
     00002376  A$Music$193                        Music
     00002377  A$Music$197                        Music
ASxxxx Linker V03.00/V05.40 + sdld,  page 101.
Hexadecimal  [32-Bits]

Area                                    Addr        Size        Decimal Bytes (Attributes)
--------------------------------        ----        ----        ------- ----- ------------
_CODE                               00000200    00002C59 =       11353. bytes (REL,CON)

      Value  Global                              Global Defined In Module
      -----  --------------------------------   ------------------------
     00002377  C$Music.c$50$2_0$148               Music
     00002379  A$Music$198                        Music
     0000237B  A$Music$202                        Music
     0000237B  C$Music.c$51$2_0$148               Music
     0000237D  A$Music$203                        Music
     0000237F  A$Music$207                        Music
     0000237F  C$Music.c$52$2_0$148               Music
     00002381  A$Music$208                        Music
     00002383  A$Music$212                        Music
     00002383  C$Music.c$54$2_0$148               Music
     00002386  A$Music$213                        Music
     00002388  A$Music$217                        Music
     00002388  C$Music.c$55$2_0$148               Music
     0000238B  A$Music$218                        Music
     0000238C  A$Music$219                        Music
     0000238D  A$Music$220                        Music
     0000238E  A$Music$221                        Music
     00002391  A$Music$222                        Music
     00002392  A$Music$226                        Music
     00002392  C$Music.c$56$3_0$149               Music
     00002394  A$Music$227                        Music
     00002395  A$Music$231                        Music
     00002395  C$Music.c$57$1_0$147               Music
     00002396  A$Music$232                        Music
     00002398  A$Music$233                        Music
     0000239B  A$Music$237                        Music
     0000239B  C$Music.c$58$2_1$149               Music
     0000239C  A$Music$238                        Music
     0000239F  A$Music$239                        Music
     000023A0  A$Music$240                        Music
     000023A1  A$Music$241                        Music
     000023A2  A$Music$242                        Music
     000023A5  A$Music$243                        Music
     000023A6  A$Music$247                        Music
     000023A6  C$Music.c$59$2_1$149               Music
     000023A7  A$Music$248                        Music
     000023A9  A$Music$249                        Music
     000023AC  A$Music$250                        Music
     000023AD  A$Music$254                        Music
     000023AD  C$Music.c$60$2_1$149               Music
     000023B0  A$Music$255                        Music
     000023B2  A$Music$260                        Music
     000023B2  C$Music.c$63$1_0$147               Music
     000023B3  A$Music$261                        Music
     000023B4  A$Music$262                        Music
     000023B5  A$BankManager$79                   BankManager
     000023B5  C$BankManager.c$25$1_0$128         BankManager
     000023B5  C$BankManager.c$7$0_0$128          BankManager
     000023B5  G$PushBank$0$0                     BankManager
     000023B5  _PushBank                          BankManager
     000023B8  A$BankManager$80                   BankManager
ASxxxx Linker V03.00/V05.40 + sdld,  page 102.
Hexadecimal  [32-Bits]

Area                                    Addr        Size        Decimal Bytes (Attributes)
--------------------------------        ----        ----        ------- ----- ------------
_CODE                               00000200    00002C59 =       11353. bytes (REL,CON)

      Value  Global                              Global Defined In Module
      -----  --------------------------------   ------------------------
     000023B9  A$BankManager$81                   BankManager
     000023BA  A$BankManager$82                   BankManager
     000023BB  A$BankManager$83                   BankManager
     000023BC  A$BankManager$84                   BankManager
     000023BF  A$BankManager$85                   BankManager
     000023C0  A$BankManager$86                   BankManager
     000023C2  A$BankManager$87                   BankManager
     000023C3  A$BankManager$88                   BankManager
     000023C6  A$BankManager$89                   BankManager
     000023C9  A$BankManager$97                   BankManager
     000023C9  C$BankManager.c$26$1_0$128         BankManager
     000023C9  XG$PushBank$0$0                    BankManager
     000023CA  A$BankManager$110                  BankManager
     000023CA  C$BankManager.c$28$1_0$129         BankManager
     000023CA  C$BankManager.c$42$1_0$129         BankManager
     000023CA  G$PopBank$0$0                      BankManager
     000023CA  _PopBank                           BankManager
     000023CD  A$BankManager$111                  BankManager
     000023CE  A$BankManager$112                  BankManager
     000023CF  A$BankManager$113                  BankManager
     000023D0  A$BankManager$114                  BankManager
     000023D1  A$BankManager$115                  BankManager
     000023D4  A$BankManager$116                  BankManager
     000023D7  A$BankManager$117                  BankManager
     000023D8  A$BankManager$118                  BankManager
     000023D9  A$BankManager$126                  BankManager
     000023D9  C$BankManager.c$43$1_0$129         BankManager
     000023D9  XG$PopBank$0$0                     BankManager
     000023DA  _set_sprite_palette                CGB
     000023DF  _set_bkg_palette                   CGB
     000023E2  .set_palette                       CGB
     00002401  _set_sprite_palette_entry          CGB
     00002406  _set_bkg_palette_entry             CGB
     00002409  .set_palette_entry                 CGB
     00002425  A$SpriteManager$114                SpriteManager
     00002425  C$SpriteManager.c$22$0_0$190       SpriteManager
     00002425  G$SpriteManagerReset$0$0           SpriteManager
     00002425  _SpriteManagerReset                SpriteManager
     00002427  A$SpriteManager$118                SpriteManager
     00002427  C$SpriteManager.c$25$1_0$190       SpriteManager
     0000242A  A$SpriteManager$119                SpriteManager
     0000242C  A$SpriteManager$120                SpriteManager
     0000242D  A$SpriteManager$121                SpriteManager
     0000242E  A$SpriteManager$122                SpriteManager
     0000242F  A$SpriteManager$126                SpriteManager
     0000242F  C$SpriteManager.c$26$1_0$190       SpriteManager
     00002432  A$SpriteManager$130                SpriteManager
     00002432  C$SpriteManager.c$29$3_0$192       SpriteManager
     00002434  A$SpriteManager$131                SpriteManager
     00002435  A$SpriteManager$133                SpriteManager
     00002438  A$SpriteManager$134                SpriteManager
ASxxxx Linker V03.00/V05.40 + sdld,  page 103.
Hexadecimal  [32-Bits]

Area                                    Addr        Size        Decimal Bytes (Attributes)
--------------------------------        ----        ----        ------- ----- ------------
_CODE                               00000200    00002C59 =       11353. bytes (REL,CON)

      Value  Global                              Global Defined In Module
      -----  --------------------------------   ------------------------
     00002439  A$SpriteManager$135                SpriteManager
     0000243A  A$SpriteManager$136                SpriteManager
     0000243B  A$SpriteManager$137                SpriteManager
     0000243D  A$SpriteManager$141                SpriteManager
     0000243D  C$SpriteManager.c$30$3_0$192       SpriteManager
     0000243E  A$SpriteManager$142                SpriteManager
     0000243F  A$SpriteManager$143                SpriteManager
     00002440  A$SpriteManager$144                SpriteManager
     00002441  A$SpriteManager$145                SpriteManager
     00002442  A$SpriteManager$146                SpriteManager
     00002443  A$SpriteManager$147                SpriteManager
     00002446  A$SpriteManager$148                SpriteManager
     00002447  A$SpriteManager$149                SpriteManager
     00002448  A$SpriteManager$151                SpriteManager
     0000244A  A$SpriteManager$154                SpriteManager
     0000244B  A$SpriteManager$155                SpriteManager
     0000244E  A$SpriteManager$156                SpriteManager
     0000244F  A$SpriteManager$157                SpriteManager
     00002450  A$SpriteManager$158                SpriteManager
     00002451  A$SpriteManager$159                SpriteManager
     00002452  A$SpriteManager$160                SpriteManager
     00002455  A$SpriteManager$161                SpriteManager
     00002456  A$SpriteManager$162                SpriteManager
     00002457  A$SpriteManager$163                SpriteManager
     00002458  A$SpriteManager$164                SpriteManager
     00002459  A$SpriteManager$168                SpriteManager
     00002459  C$SpriteManager.c$31$3_0$192       SpriteManager
     0000245C  A$SpriteManager$169                SpriteManager
     0000245D  A$SpriteManager$170                SpriteManager
     0000245E  A$SpriteManager$171                SpriteManager
     0000245F  A$SpriteManager$172                SpriteManager
     00002462  A$SpriteManager$173                SpriteManager
     00002463  A$SpriteManager$174                SpriteManager
     00002464  A$SpriteManager$175                SpriteManager
     00002467  A$SpriteManager$176                SpriteManager
     00002469  A$SpriteManager$177                SpriteManager
     0000246A  A$SpriteManager$178                SpriteManager
     0000246B  A$SpriteManager$179                SpriteManager
     0000246C  A$SpriteManager$180                SpriteManager
     0000246D  A$SpriteManager$181                SpriteManager
     0000246E  A$SpriteManager$182                SpriteManager
     00002471  A$SpriteManager$183                SpriteManager
     00002472  A$SpriteManager$184                SpriteManager
     00002473  A$SpriteManager$188                SpriteManager
     00002473  C$SpriteManager.c$32$3_0$192       SpriteManager
     00002476  A$SpriteManager$189                SpriteManager
     00002477  A$SpriteManager$190                SpriteManager
     00002478  A$SpriteManager$191                SpriteManager
     00002479  A$SpriteManager$192                SpriteManager
     0000247C  A$SpriteManager$193                SpriteManager
     0000247D  A$SpriteManager$194                SpriteManager
ASxxxx Linker V03.00/V05.40 + sdld,  page 104.
Hexadecimal  [32-Bits]

Area                                    Addr        Size        Decimal Bytes (Attributes)
--------------------------------        ----        ----        ------- ----- ------------
_CODE                               00000200    00002C59 =       11353. bytes (REL,CON)

      Value  Global                              Global Defined In Module
      -----  --------------------------------   ------------------------
     0000247E  A$SpriteManager$196                SpriteManager
     00002480  A$SpriteManager$199                SpriteManager
     00002481  A$SpriteManager$200                SpriteManager
     00002484  A$SpriteManager$201                SpriteManager
     00002485  A$SpriteManager$202                SpriteManager
     00002486  A$SpriteManager$203                SpriteManager
     00002487  A$SpriteManager$204                SpriteManager
     00002488  A$SpriteManager$206                SpriteManager
     00002489  A$SpriteManager$207                SpriteManager
     0000248A  A$SpriteManager$210                SpriteManager
     0000248D  A$SpriteManager$211                SpriteManager
     00002490  A$SpriteManager$212                SpriteManager
     00002491  A$SpriteManager$216                SpriteManager
     00002491  C$SpriteManager.c$29$2_0$191       SpriteManager
     00002492  A$SpriteManager$217                SpriteManager
     00002494  A$SpriteManager$222                SpriteManager
     00002494  C$SpriteManager.c$37$1_0$190       SpriteManager
     00002497  A$SpriteManager$223                SpriteManager
     00002499  A$SpriteManager$224                SpriteManager
     0000249A  A$SpriteManager$225                SpriteManager
     0000249C  A$SpriteManager$229                SpriteManager
     0000249C  C$SpriteManager.c$38$3_0$194       SpriteManager
     0000249E  A$SpriteManager$230                SpriteManager
     000024A0  A$SpriteManager$235                SpriteManager
     000024A0  C$SpriteManager.c$39$3_0$194       SpriteManager
     000024A2  A$SpriteManager$236                SpriteManager
     000024A3  A$SpriteManager$237                SpriteManager
     000024A5  A$SpriteManager$238                SpriteManager
     000024A6  A$SpriteManager$239                SpriteManager
     000024A8  A$SpriteManager$240                SpriteManager
     000024A9  A$SpriteManager$241                SpriteManager
     000024AC  A$SpriteManager$242                SpriteManager
     000024AD  A$SpriteManager$243                SpriteManager
     000024AE  A$SpriteManager$244                SpriteManager
     000024AF  A$SpriteManager$245                SpriteManager
     000024B0  A$SpriteManager$246                SpriteManager
     000024B2  A$SpriteManager$247                SpriteManager
     000024B3  A$SpriteManager$248                SpriteManager
     000024B5  A$SpriteManager$249                SpriteManager
     000024B6  A$SpriteManager$250                SpriteManager
     000024B7  A$SpriteManager$251                SpriteManager
     000024B8  A$SpriteManager$252                SpriteManager
     000024B9  A$SpriteManager$253                SpriteManager
     000024BA  A$SpriteManager$254                SpriteManager
     000024BB  A$SpriteManager$255                SpriteManager
     000024BC  A$SpriteManager$256                SpriteManager
     000024BD  A$SpriteManager$257                SpriteManager
     000024BE  A$SpriteManager$258                SpriteManager
     000024C1  A$SpriteManager$259                SpriteManager
     000024C2  A$SpriteManager$260                SpriteManager
     000024C3  A$SpriteManager$261                SpriteManager
ASxxxx Linker V03.00/V05.40 + sdld,  page 105.
Hexadecimal  [32-Bits]

Area                                    Addr        Size        Decimal Bytes (Attributes)
--------------------------------        ----        ----        ------- ----- ------------
_CODE                               00000200    00002C59 =       11353. bytes (REL,CON)

      Value  Global                              Global Defined In Module
      -----  --------------------------------   ------------------------
     000024C4  A$SpriteManager$262                SpriteManager
     000024C5  A$SpriteManager$263                SpriteManager
     000024C6  A$SpriteManager$264                SpriteManager
     000024C7  A$SpriteManager$265                SpriteManager
     000024C8  A$SpriteManager$266                SpriteManager
     000024C9  A$SpriteManager$270                SpriteManager
     000024C9  C$SpriteManager.c$40$3_0$194       SpriteManager
     000024CC  A$SpriteManager$271                SpriteManager
     000024CD  A$SpriteManager$272                SpriteManager
     000024CF  A$SpriteManager$273                SpriteManager
     000024D0  A$SpriteManager$274                SpriteManager
     000024D1  A$SpriteManager$276                SpriteManager
     000024D4  A$SpriteManager$277                SpriteManager
     000024D5  A$SpriteManager$278                SpriteManager
     000024D6  A$SpriteManager$279                SpriteManager
     000024D7  A$SpriteManager$280                SpriteManager
     000024D9  A$SpriteManager$281                SpriteManager
     000024DA  A$SpriteManager$282                SpriteManager
     000024DB  A$SpriteManager$286                SpriteManager
     000024DB  C$SpriteManager.c$38$2_0$193       SpriteManager
     000024DC  A$SpriteManager$287                SpriteManager
     000024DD  A$SpriteManager$288                SpriteManager
     000024DF  A$SpriteManager$289                SpriteManager
     000024E1  A$SpriteManager$293                SpriteManager
     000024E1  C$SpriteManager.c$42$1_0$190       SpriteManager
     000024E4  A$SpriteManager$297                SpriteManager
     000024E4  C$SpriteManager.c$44$1_0$190       SpriteManager
     000024E7  A$SpriteManager$298                SpriteManager
     000024E8  A$SpriteManager$299                SpriteManager
     000024E9  A$SpriteManager$300                SpriteManager
     000024EA  A$SpriteManager$301                SpriteManager
     000024ED  A$SpriteManager$302                SpriteManager
     000024EE  A$SpriteManager$303                SpriteManager
     000024F1  A$SpriteManager$304                SpriteManager
     000024F3  A$SpriteManager$308                SpriteManager
     000024F3  C$SpriteManager.c$47$1_0$190       SpriteManager
     000024F6  A$SpriteManager$309                SpriteManager
     000024F8  A$SpriteManager$313                SpriteManager
     000024F8  C$SpriteManager.c$48$1_0$190       SpriteManager
     000024FB  A$SpriteManager$314                SpriteManager
     000024FD  A$SpriteManager$318                SpriteManager
     000024FF  A$SpriteManager$323                SpriteManager
     000024FF  C$SpriteManager.c$49$1_0$190       SpriteManager
     000024FF  XG$SpriteManagerReset$0$0          SpriteManager
     00002500  A$SpriteManager$333                SpriteManager
     00002500  C$SpriteManager.c$52$1_0$196       SpriteManager
     00002500  G$SpriteManagerLoad$0$0            SpriteManager
     00002500  _SpriteManagerLoad                 SpriteManager
     00002502  A$SpriteManager$334                SpriteManager
     00002504  A$SpriteManager$335                SpriteManager
     00002505  A$SpriteManager$339                SpriteManager
ASxxxx Linker V03.00/V05.40 + sdld,  page 106.
Hexadecimal  [32-Bits]

Area                                    Addr        Size        Decimal Bytes (Attributes)
--------------------------------        ----        ----        ------- ----- ------------
_CODE                               00000200    00002C59 =       11353. bytes (REL,CON)

      Value  Global                              Global Defined In Module
      -----  --------------------------------   ------------------------
     00002505  C$SpriteManager.c$56$1_0$196       SpriteManager
     00002508  A$SpriteManager$340                SpriteManager
     00002509  A$SpriteManager$341                SpriteManager
     0000250B  A$SpriteManager$342                SpriteManager
     0000250C  A$SpriteManager$343                SpriteManager
     0000250D  A$SpriteManager$344                SpriteManager
     0000250E  A$SpriteManager$345                SpriteManager
     0000250F  A$SpriteManager$346                SpriteManager
     00002511  A$SpriteManager$347                SpriteManager
     00002514  A$SpriteManager$348                SpriteManager
     00002517  A$SpriteManager$349                SpriteManager
     00002518  A$SpriteManager$350                SpriteManager
     0000251A  A$SpriteManager$351                SpriteManager
     0000251B  A$SpriteManager$352                SpriteManager
     0000251D  A$SpriteManager$353                SpriteManager
     0000251E  A$SpriteManager$354                SpriteManager
     00002520  A$SpriteManager$355                SpriteManager
     00002522  A$SpriteManager$356                SpriteManager
     00002524  A$SpriteManager$357                SpriteManager
     00002526  A$SpriteManager$358                SpriteManager
     00002528  A$SpriteManager$359                SpriteManager
     00002529  A$SpriteManager$360                SpriteManager
     0000252B  A$SpriteManager$362                SpriteManager
     0000252D  A$SpriteManager$363                SpriteManager
     0000252F  A$SpriteManager$364                SpriteManager
     00002530  A$SpriteManager$369                SpriteManager
     00002530  C$SpriteManager.c$57$1_0$196       SpriteManager
     00002533  A$SpriteManager$373                SpriteManager
     00002533  C$SpriteManager.c$59$1_0$196       SpriteManager
     00002536  A$SpriteManager$374                SpriteManager
     00002538  A$SpriteManager$375                SpriteManager
     00002539  A$SpriteManager$376                SpriteManager
     0000253B  A$SpriteManager$377                SpriteManager
     0000253C  A$SpriteManager$378                SpriteManager
     0000253D  A$SpriteManager$379                SpriteManager
     0000253E  A$SpriteManager$380                SpriteManager
     0000253F  A$SpriteManager$381                SpriteManager
     00002540  A$SpriteManager$382                SpriteManager
     00002541  A$SpriteManager$383                SpriteManager
     00002542  A$SpriteManager$384                SpriteManager
     00002545  A$SpriteManager$385                SpriteManager
     00002546  A$SpriteManager$386                SpriteManager
     00002547  A$SpriteManager$390                SpriteManager
     00002547  C$SpriteManager.c$61$1_1$197       SpriteManager
     00002549  A$SpriteManager$391                SpriteManager
     0000254A  A$SpriteManager$392                SpriteManager
     0000254C  A$SpriteManager$393                SpriteManager
     0000254D  A$SpriteManager$394                SpriteManager
     00002550  A$SpriteManager$395                SpriteManager
     00002551  A$SpriteManager$396                SpriteManager
     00002552  A$SpriteManager$397                SpriteManager
ASxxxx Linker V03.00/V05.40 + sdld,  page 107.
Hexadecimal  [32-Bits]

Area                                    Addr        Size        Decimal Bytes (Attributes)
--------------------------------        ----        ----        ------- ----- ------------
_CODE                               00000200    00002C59 =       11353. bytes (REL,CON)

      Value  Global                              Global Defined In Module
      -----  --------------------------------   ------------------------
     00002553  A$SpriteManager$398                SpriteManager
     00002554  A$SpriteManager$399                SpriteManager
     00002556  A$SpriteManager$400                SpriteManager
     00002557  A$SpriteManager$401                SpriteManager
     00002558  A$SpriteManager$402                SpriteManager
     00002559  A$SpriteManager$403                SpriteManager
     0000255A  A$SpriteManager$407                SpriteManager
     0000255A  C$SpriteManager.c$62$1_1$197       SpriteManager
     0000255C  A$SpriteManager$408                SpriteManager
     0000255D  A$SpriteManager$409                SpriteManager
     0000255E  A$SpriteManager$410                SpriteManager
     0000255F  A$SpriteManager$411                SpriteManager
     00002560  A$SpriteManager$412                SpriteManager
     00002561  A$SpriteManager$413                SpriteManager
     00002562  A$SpriteManager$414                SpriteManager
     00002564  A$SpriteManager$415                SpriteManager
     00002565  A$SpriteManager$419                SpriteManager
     00002565  C$SpriteManager.c$65$1_1$197       SpriteManager
     00002566  A$SpriteManager$420                SpriteManager
     00002567  A$SpriteManager$421                SpriteManager
     00002569  A$SpriteManager$422                SpriteManager
     0000256C  A$SpriteManager$423                SpriteManager
     0000256D  A$SpriteManager$424                SpriteManager
     0000256E  A$SpriteManager$425                SpriteManager
     0000256F  A$SpriteManager$426                SpriteManager
     00002571  A$SpriteManager$427                SpriteManager
     00002572  A$SpriteManager$428                SpriteManager
     00002573  A$SpriteManager$429                SpriteManager
     00002574  A$SpriteManager$430                SpriteManager
     00002575  A$SpriteManager$431                SpriteManager
     00002576  A$SpriteManager$432                SpriteManager
     00002577  A$SpriteManager$433                SpriteManager
     00002578  A$SpriteManager$434                SpriteManager
     00002579  A$SpriteManager$435                SpriteManager
     0000257C  A$SpriteManager$436                SpriteManager
     0000257D  A$SpriteManager$437                SpriteManager
     0000257E  A$SpriteManager$441                SpriteManager
     0000257E  C$SpriteManager.c$66$1_1$197       SpriteManager
     0000257F  A$SpriteManager$442                SpriteManager
     00002580  A$SpriteManager$446                SpriteManager
     00002580  C$SpriteManager.c$67$1_2$198       SpriteManager
     00002581  A$SpriteManager$447                SpriteManager
     00002583  A$SpriteManager$448                SpriteManager
     00002584  A$SpriteManager$449                SpriteManager
     00002585  A$SpriteManager$450                SpriteManager
     00002587  A$SpriteManager$451                SpriteManager
     00002588  A$SpriteManager$455                SpriteManager
     00002589  A$SpriteManager$456                SpriteManager
     0000258A  A$SpriteManager$457                SpriteManager
     0000258B  A$SpriteManager$458                SpriteManager
     0000258D  A$SpriteManager$459                SpriteManager
ASxxxx Linker V03.00/V05.40 + sdld,  page 108.
Hexadecimal  [32-Bits]

Area                                    Addr        Size        Decimal Bytes (Attributes)
--------------------------------        ----        ----        ------- ----- ------------
_CODE                               00000200    00002C59 =       11353. bytes (REL,CON)

      Value  Global                              Global Defined In Module
      -----  --------------------------------   ------------------------
     00002590  A$SpriteManager$460                SpriteManager
     00002591  A$SpriteManager$461                SpriteManager
     00002592  A$SpriteManager$462                SpriteManager
     00002593  A$SpriteManager$463                SpriteManager
     00002594  A$SpriteManager$464                SpriteManager
     00002595  A$SpriteManager$465                SpriteManager
     00002596  A$SpriteManager$466                SpriteManager
     00002597  A$SpriteManager$467                SpriteManager
     0000259A  A$SpriteManager$468                SpriteManager
     0000259C  A$SpriteManager$469                SpriteManager
     0000259D  A$SpriteManager$470                SpriteManager
     0000259E  A$SpriteManager$471                SpriteManager
     0000259F  A$SpriteManager$475                SpriteManager
     0000259F  C$SpriteManager.c$69$1_2$196       SpriteManager
     000025A0  A$SpriteManager$476                SpriteManager
     000025A1  A$SpriteManager$477                SpriteManager
     000025A2  A$SpriteManager$478                SpriteManager
     000025A3  A$SpriteManager$482                SpriteManager
     000025A3  C$SpriteManager.c$71$1_2$196       SpriteManager
     000025A4  A$SpriteManager$483                SpriteManager
     000025A5  A$SpriteManager$484                SpriteManager
     000025A6  A$SpriteManager$485                SpriteManager
     000025A7  A$SpriteManager$486                SpriteManager
     000025A8  A$SpriteManager$487                SpriteManager
     000025A9  A$SpriteManager$488                SpriteManager
     000025AA  A$SpriteManager$489                SpriteManager
     000025AB  A$SpriteManager$490                SpriteManager
     000025AC  A$SpriteManager$491                SpriteManager
     000025AD  A$SpriteManager$492                SpriteManager
     000025AE  A$SpriteManager$493                SpriteManager
     000025AF  A$SpriteManager$497                SpriteManager
     000025AF  C$SpriteManager.c$68$1_2$198       SpriteManager
     000025B1  A$SpriteManager$498                SpriteManager
     000025B2  A$SpriteManager$499                SpriteManager
     000025B3  A$SpriteManager$500                SpriteManager
     000025B5  A$SpriteManager$501                SpriteManager
     000025B6  A$SpriteManager$502                SpriteManager
     000025B7  A$SpriteManager$503                SpriteManager
     000025B8  A$SpriteManager$504                SpriteManager
     000025B9  A$SpriteManager$505                SpriteManager
     000025BA  A$SpriteManager$506                SpriteManager
     000025BB  A$SpriteManager$507                SpriteManager
     000025BD  A$SpriteManager$511                SpriteManager
     000025BD  C$SpriteManager.c$69$2_2$199       SpriteManager
     000025BF  A$SpriteManager$512                SpriteManager
     000025C0  A$SpriteManager$513                SpriteManager
     000025C1  A$SpriteManager$514                SpriteManager
     000025C2  A$SpriteManager$515                SpriteManager
     000025C3  A$SpriteManager$516                SpriteManager
     000025C5  A$SpriteManager$517                SpriteManager
     000025C6  A$SpriteManager$518                SpriteManager
ASxxxx Linker V03.00/V05.40 + sdld,  page 109.
Hexadecimal  [32-Bits]

Area                                    Addr        Size        Decimal Bytes (Attributes)
--------------------------------        ----        ----        ------- ----- ------------
_CODE                               00000200    00002C59 =       11353. bytes (REL,CON)

      Value  Global                              Global Defined In Module
      -----  --------------------------------   ------------------------
     000025C7  A$SpriteManager$519                SpriteManager
     000025C8  A$SpriteManager$520                SpriteManager
     000025CA  A$SpriteManager$521                SpriteManager
     000025CB  A$SpriteManager$522                SpriteManager
     000025CC  A$SpriteManager$523                SpriteManager
     000025CD  A$SpriteManager$524                SpriteManager
     000025D0  A$SpriteManager$525                SpriteManager
     000025D2  A$SpriteManager$526                SpriteManager
     000025D4  A$SpriteManager$531                SpriteManager
     000025D4  C$SpriteManager.c$71$2_2$200       SpriteManager
     000025D6  A$SpriteManager$532                SpriteManager
     000025D7  A$SpriteManager$533                SpriteManager
     000025D9  A$SpriteManager$534                SpriteManager
     000025DA  A$SpriteManager$535                SpriteManager
     000025DC  A$SpriteManager$536                SpriteManager
     000025DD  A$SpriteManager$537                SpriteManager
     000025DE  A$SpriteManager$538                SpriteManager
     000025DF  A$SpriteManager$539                SpriteManager
     000025E0  A$SpriteManager$540                SpriteManager
     000025E1  A$SpriteManager$541                SpriteManager
     000025E2  A$SpriteManager$542                SpriteManager
     000025E4  A$SpriteManager$543                SpriteManager
     000025E5  A$SpriteManager$544                SpriteManager
     000025E6  A$SpriteManager$545                SpriteManager
     000025E7  A$SpriteManager$546                SpriteManager
     000025EA  A$SpriteManager$547                SpriteManager
     000025EC  A$SpriteManager$551                SpriteManager
     000025EC  C$SpriteManager.c$72$2_2$200       SpriteManager
     000025ED  A$SpriteManager$552                SpriteManager
     000025EE  A$SpriteManager$553                SpriteManager
     000025EF  A$SpriteManager$554                SpriteManager
     000025F1  A$SpriteManager$555                SpriteManager
     000025F2  A$SpriteManager$556                SpriteManager
     000025F3  A$SpriteManager$557                SpriteManager
     000025F4  A$SpriteManager$558                SpriteManager
     000025F5  A$SpriteManager$559                SpriteManager
     000025F7  A$SpriteManager$560                SpriteManager
     000025F8  A$SpriteManager$561                SpriteManager
     000025F9  A$SpriteManager$562                SpriteManager
     000025FA  A$SpriteManager$563                SpriteManager
     000025FC  A$SpriteManager$564                SpriteManager
     000025FD  A$SpriteManager$565                SpriteManager
     000025FE  A$SpriteManager$566                SpriteManager
     000025FF  A$SpriteManager$567                SpriteManager
     00002600  A$SpriteManager$568                SpriteManager
     00002601  A$SpriteManager$569                SpriteManager
     00002602  A$SpriteManager$570                SpriteManager
     00002603  A$SpriteManager$571                SpriteManager
     00002604  A$SpriteManager$572                SpriteManager
     00002605  A$SpriteManager$573                SpriteManager
     00002606  A$SpriteManager$574                SpriteManager
ASxxxx Linker V03.00/V05.40 + sdld,  page 110.
Hexadecimal  [32-Bits]

Area                                    Addr        Size        Decimal Bytes (Attributes)
--------------------------------        ----        ----        ------- ----- ------------
_CODE                               00000200    00002C59 =       11353. bytes (REL,CON)

      Value  Global                              Global Defined In Module
      -----  --------------------------------   ------------------------
     00002608  A$SpriteManager$575                SpriteManager
     0000260A  A$SpriteManager$576                SpriteManager
     0000260C  A$SpriteManager$577                SpriteManager
     0000260E  A$SpriteManager$578                SpriteManager
     00002610  A$SpriteManager$579                SpriteManager
     00002612  A$SpriteManager$580                SpriteManager
     00002614  A$SpriteManager$581                SpriteManager
     00002616  A$SpriteManager$582                SpriteManager
     00002618  A$SpriteManager$583                SpriteManager
     00002619  A$SpriteManager$584                SpriteManager
     0000261A  A$SpriteManager$585                SpriteManager
     0000261B  A$SpriteManager$586                SpriteManager
     0000261C  A$SpriteManager$587                SpriteManager
     0000261D  A$SpriteManager$588                SpriteManager
     0000261F  A$SpriteManager$589                SpriteManager
     00002620  A$SpriteManager$590                SpriteManager
     00002622  A$SpriteManager$591                SpriteManager
     00002623  A$SpriteManager$592                SpriteManager
     00002626  A$SpriteManager$593                SpriteManager
     00002628  A$SpriteManager$598                SpriteManager
     00002628  C$SpriteManager.c$91$1_2$198       SpriteManager
     0000262B  A$SpriteManager$603                SpriteManager
     0000262D  A$SpriteManager$608                SpriteManager
     0000262D  C$SpriteManager.c$92$1_2$196       SpriteManager
     0000262D  XG$SpriteManagerLoad$0$0           SpriteManager
     0000262E  A$SpriteManager$618                SpriteManager
     0000262E  C$SpriteManager.c$95$1_2$202       SpriteManager
     0000262E  G$SpriteManagerAdd$0$0             SpriteManager
     0000262E  _SpriteManagerAdd                  SpriteManager
     00002630  A$SpriteManager$619                SpriteManager
     00002632  A$SpriteManager$620                SpriteManager
     00002633  A$SpriteManager$621                SpriteManager
     00002634  A$SpriteManager$622                SpriteManager
     00002635  A$SpriteManager$623                SpriteManager
     00002636  A$SpriteManager$627                SpriteManager
     00002636  C$SpriteManager.c$100$1_0$202      SpriteManager
     00002637  A$SpriteManager$628                SpriteManager
     00002638  A$SpriteManager$629                SpriteManager
     00002639  A$SpriteManager$630                SpriteManager
     0000263C  A$SpriteManager$634                SpriteManager
     0000263C  C$SpriteManager.c$102$1_0$202      SpriteManager
     0000263F  A$SpriteManager$635                SpriteManager
     00002640  A$SpriteManager$636                SpriteManager
     00002641  A$SpriteManager$637                SpriteManager
     00002642  A$SpriteManager$638                SpriteManager
     00002643  A$SpriteManager$639                SpriteManager
     00002645  A$SpriteManager$640                SpriteManager
     00002646  A$SpriteManager$641                SpriteManager
     00002649  A$SpriteManager$642                SpriteManager
     0000264A  A$SpriteManager$643                SpriteManager
     0000264B  A$SpriteManager$644                SpriteManager
ASxxxx Linker V03.00/V05.40 + sdld,  page 111.
Hexadecimal  [32-Bits]

Area                                    Addr        Size        Decimal Bytes (Attributes)
--------------------------------        ----        ----        ------- ----- ------------
_CODE                               00000200    00002C59 =       11353. bytes (REL,CON)

      Value  Global                              Global Defined In Module
      -----  --------------------------------   ------------------------
     0000264C  A$SpriteManager$645                SpriteManager
     0000264D  A$SpriteManager$646                SpriteManager
     0000264E  A$SpriteManager$647                SpriteManager
     0000264F  A$SpriteManager$648                SpriteManager
     00002650  A$SpriteManager$649                SpriteManager
     00002651  A$SpriteManager$653                SpriteManager
     00002651  C$SpriteManager.c$103$1_0$202      SpriteManager
     00002654  A$SpriteManager$654                SpriteManager
     00002656  A$SpriteManager$655                SpriteManager
     00002657  A$SpriteManager$656                SpriteManager
     00002659  A$SpriteManager$657                SpriteManager
     0000265A  A$SpriteManager$658                SpriteManager
     0000265B  A$SpriteManager$659                SpriteManager
     0000265C  A$SpriteManager$660                SpriteManager
     0000265D  A$SpriteManager$661                SpriteManager
     0000265E  A$SpriteManager$662                SpriteManager
     0000265F  A$SpriteManager$663                SpriteManager
     00002660  A$SpriteManager$667                SpriteManager
     00002660  C$SpriteManager.c$104$1_0$202      SpriteManager
     00002663  A$SpriteManager$668                SpriteManager
     00002664  A$SpriteManager$669                SpriteManager
     00002665  A$SpriteManager$670                SpriteManager
     00002666  A$SpriteManager$671                SpriteManager
     00002667  A$SpriteManager$672                SpriteManager
     00002668  A$SpriteManager$673                SpriteManager
     00002669  A$SpriteManager$674                SpriteManager
     0000266B  A$SpriteManager$675                SpriteManager
     0000266C  A$SpriteManager$676                SpriteManager
     0000266D  A$SpriteManager$680                SpriteManager
     0000266D  C$SpriteManager.c$105$1_0$202      SpriteManager
     00002670  A$SpriteManager$681                SpriteManager
     00002671  A$SpriteManager$682                SpriteManager
     00002673  A$SpriteManager$686                SpriteManager
     00002673  C$SpriteManager.c$106$1_0$202      SpriteManager
     00002676  A$SpriteManager$687                SpriteManager
     00002677  A$SpriteManager$688                SpriteManager
     00002679  A$SpriteManager$689                SpriteManager
     0000267A  A$SpriteManager$690                SpriteManager
     0000267C  A$SpriteManager$694                SpriteManager
     0000267C  C$SpriteManager.c$107$1_0$202      SpriteManager
     0000267F  A$SpriteManager$695                SpriteManager
     00002680  A$SpriteManager$696                SpriteManager
     00002682  A$SpriteManager$697                SpriteManager
     00002683  A$SpriteManager$698                SpriteManager
     00002685  A$SpriteManager$702                SpriteManager
     00002685  C$SpriteManager.c$108$1_0$202      SpriteManager
     00002688  A$SpriteManager$703                SpriteManager
     00002689  A$SpriteManager$704                SpriteManager
     0000268B  A$SpriteManager$708                SpriteManager
     0000268B  C$SpriteManager.c$110$1_0$202      SpriteManager
     0000268C  A$SpriteManager$709                SpriteManager
ASxxxx Linker V03.00/V05.40 + sdld,  page 112.
Hexadecimal  [32-Bits]

Area                                    Addr        Size        Decimal Bytes (Attributes)
--------------------------------        ----        ----        ------- ----- ------------
_CODE                               00000200    00002C59 =       11353. bytes (REL,CON)

      Value  Global                              Global Defined In Module
      -----  --------------------------------   ------------------------
     0000268E  A$SpriteManager$710                SpriteManager
     0000268F  A$SpriteManager$711                SpriteManager
     00002692  A$SpriteManager$712                SpriteManager
     00002695  A$SpriteManager$713                SpriteManager
     00002696  A$SpriteManager$717                SpriteManager
     00002696  C$SpriteManager.c$112$1_0$202      SpriteManager
     00002697  A$SpriteManager$718                SpriteManager
     00002699  A$SpriteManager$719                SpriteManager
     0000269A  A$SpriteManager$720                SpriteManager
     0000269B  A$SpriteManager$721                SpriteManager
     0000269C  A$SpriteManager$722                SpriteManager
     0000269F  A$SpriteManager$723                SpriteManager
     000026A0  A$SpriteManager$727                SpriteManager
     000026A0  C$SpriteManager.c$113$1_0$202      SpriteManager
     000026A3  A$SpriteManager$728                SpriteManager
     000026A4  A$SpriteManager$729                SpriteManager
     000026A5  A$SpriteManager$730                SpriteManager
     000026A6  A$SpriteManager$731                SpriteManager
     000026A8  A$SpriteManager$732                SpriteManager
     000026A9  A$SpriteManager$733                SpriteManager
     000026AA  A$SpriteManager$734                SpriteManager
     000026AB  A$SpriteManager$735                SpriteManager
     000026AC  A$SpriteManager$736                SpriteManager
     000026AD  A$SpriteManager$740                SpriteManager
     000026AD  C$SpriteManager.c$114$1_0$202      SpriteManager
     000026B0  A$SpriteManager$741                SpriteManager
     000026B1  A$SpriteManager$742                SpriteManager
     000026B2  A$SpriteManager$743                SpriteManager
     000026B3  A$SpriteManager$744                SpriteManager
     000026B5  A$SpriteManager$745                SpriteManager
     000026B6  A$SpriteManager$746                SpriteManager
     000026B7  A$SpriteManager$747                SpriteManager
     000026B8  A$SpriteManager$748                SpriteManager
     000026B9  A$SpriteManager$749                SpriteManager
     000026BA  A$SpriteManager$753                SpriteManager
     000026BA  C$SpriteManager.c$115$1_0$202      SpriteManager
     000026BD  A$SpriteManager$754                SpriteManager
     000026BE  A$SpriteManager$755                SpriteManager
     000026BF  A$SpriteManager$756                SpriteManager
     000026C0  A$SpriteManager$757                SpriteManager
     000026C2  A$SpriteManager$758                SpriteManager
     000026C3  A$SpriteManager$759                SpriteManager
     000026C4  A$SpriteManager$760                SpriteManager
     000026C5  A$SpriteManager$761                SpriteManager
     000026C7  A$SpriteManager$762                SpriteManager
     000026C8  A$SpriteManager$763                SpriteManager
     000026CA  A$SpriteManager$764                SpriteManager
     000026CB  A$SpriteManager$765                SpriteManager
     000026CC  A$SpriteManager$766                SpriteManager
     000026CD  A$SpriteManager$767                SpriteManager
     000026CF  A$SpriteManager$768                SpriteManager
ASxxxx Linker V03.00/V05.40 + sdld,  page 113.
Hexadecimal  [32-Bits]

Area                                    Addr        Size        Decimal Bytes (Attributes)
--------------------------------        ----        ----        ------- ----- ------------
_CODE                               00000200    00002C59 =       11353. bytes (REL,CON)

      Value  Global                              Global Defined In Module
      -----  --------------------------------   ------------------------
     000026D1  A$SpriteManager$769                SpriteManager
     000026D3  A$SpriteManager$770                SpriteManager
     000026D5  A$SpriteManager$771                SpriteManager
     000026D7  A$SpriteManager$772                SpriteManager
     000026D9  A$SpriteManager$773                SpriteManager
     000026DB  A$SpriteManager$774                SpriteManager
     000026DC  A$SpriteManager$775                SpriteManager
     000026DD  A$SpriteManager$776                SpriteManager
     000026DF  A$SpriteManager$777                SpriteManager
     000026E2  A$SpriteManager$778                SpriteManager
     000026E3  A$SpriteManager$779                SpriteManager
     000026E4  A$SpriteManager$780                SpriteManager
     000026E6  A$SpriteManager$781                SpriteManager
     000026E8  A$SpriteManager$782                SpriteManager
     000026E9  A$SpriteManager$783                SpriteManager
     000026EA  A$SpriteManager$784                SpriteManager
     000026EB  A$SpriteManager$785                SpriteManager
     000026EC  A$SpriteManager$786                SpriteManager
     000026ED  A$SpriteManager$787                SpriteManager
     000026EE  A$SpriteManager$788                SpriteManager
     000026EF  A$SpriteManager$789                SpriteManager
     000026F1  A$SpriteManager$790                SpriteManager
     000026F3  A$SpriteManager$791                SpriteManager
     000026F5  A$SpriteManager$792                SpriteManager
     000026F7  A$SpriteManager$793                SpriteManager
     000026F9  A$SpriteManager$794                SpriteManager
     000026FB  A$SpriteManager$795                SpriteManager
     000026FD  A$SpriteManager$796                SpriteManager
     000026FE  A$SpriteManager$797                SpriteManager
     000026FF  A$SpriteManager$798                SpriteManager
     00002700  A$SpriteManager$799                SpriteManager
     00002701  A$SpriteManager$800                SpriteManager
     00002703  A$SpriteManager$801                SpriteManager
     00002704  A$SpriteManager$802                SpriteManager
     00002705  A$SpriteManager$803                SpriteManager
     00002706  A$SpriteManager$804                SpriteManager
     00002708  A$SpriteManager$805                SpriteManager
     00002709  A$SpriteManager$806                SpriteManager
     0000270A  A$SpriteManager$807                SpriteManager
     0000270B  A$SpriteManager$808                SpriteManager
     0000270C  A$SpriteManager$809                SpriteManager
     0000270D  A$SpriteManager$813                SpriteManager
     0000270D  C$SpriteManager.c$118$1_0$202      SpriteManager
     00002710  A$SpriteManager$814                SpriteManager
     00002713  A$SpriteManager$815                SpriteManager
     00002716  A$SpriteManager$816                SpriteManager
     00002719  A$SpriteManager$820                SpriteManager
     00002719  C$SpriteManager.c$119$1_0$202      SpriteManager
     0000271C  A$SpriteManager$821                SpriteManager
     0000271E  A$SpriteManager$822                SpriteManager
     0000271F  A$SpriteManager$826                SpriteManager
ASxxxx Linker V03.00/V05.40 + sdld,  page 114.
Hexadecimal  [32-Bits]

Area                                    Addr        Size        Decimal Bytes (Attributes)
--------------------------------        ----        ----        ------- ----- ------------
_CODE                               00000200    00002C59 =       11353. bytes (REL,CON)

      Value  Global                              Global Defined In Module
      -----  --------------------------------   ------------------------
     0000271F  C$SpriteManager.c$120$1_0$202      SpriteManager
     00002722  A$SpriteManager$827                SpriteManager
     00002723  A$SpriteManager$828                SpriteManager
     00002724  A$SpriteManager$829                SpriteManager
     00002725  A$SpriteManager$833                SpriteManager
     00002725  C$SpriteManager.c$121$1_0$202      SpriteManager
     00002728  A$SpriteManager$834                SpriteManager
     00002729  A$SpriteManager$835                SpriteManager
     0000272C  A$SpriteManager$839                SpriteManager
     0000272C  C$SpriteManager.c$122$1_0$202      SpriteManager
     0000272D  A$SpriteManager$840                SpriteManager
     0000272E  A$SpriteManager$841                SpriteManager
     0000272F  A$SpriteManager$842                SpriteManager
     00002731  A$SpriteManager$843                SpriteManager
     00002732  A$SpriteManager$844                SpriteManager
     00002734  A$SpriteManager$845                SpriteManager
     00002736  A$SpriteManager$846                SpriteManager
     00002737  A$SpriteManager$847                SpriteManager
     00002738  A$SpriteManager$848                SpriteManager
     00002739  A$SpriteManager$849                SpriteManager
     0000273A  A$SpriteManager$850                SpriteManager
     0000273B  A$SpriteManager$851                SpriteManager
     0000273E  A$SpriteManager$852                SpriteManager
     0000273F  A$SpriteManager$853                SpriteManager
     00002740  A$SpriteManager$857                SpriteManager
     00002740  C$SpriteManager.c$123$1_0$202      SpriteManager
     00002741  A$SpriteManager$858                SpriteManager
     00002742  A$SpriteManager$859                SpriteManager
     00002743  A$SpriteManager$860                SpriteManager
     00002745  A$SpriteManager$863                SpriteManager
     00002746  A$SpriteManager$864                SpriteManager
     00002747  A$SpriteManager$865                SpriteManager
     0000274A  A$SpriteManager$866                SpriteManager
     0000274B  A$SpriteManager$867                SpriteManager
     0000274C  A$SpriteManager$868                SpriteManager
     0000274D  A$SpriteManager$870                SpriteManager
     0000274E  A$SpriteManager$873                SpriteManager
     0000274F  A$SpriteManager$874                SpriteManager
     00002752  A$SpriteManager$875                SpriteManager
     00002755  A$SpriteManager$876                SpriteManager
     00002756  A$SpriteManager$880                SpriteManager
     00002756  C$SpriteManager.c$126$1_0$202      SpriteManager
     00002759  A$SpriteManager$881                SpriteManager
     0000275C  A$SpriteManager$882                SpriteManager
     0000275F  A$SpriteManager$883                SpriteManager
     00002762  A$SpriteManager$887                SpriteManager
     00002762  C$SpriteManager.c$127$1_0$202      SpriteManager
     00002764  A$SpriteManager$888                SpriteManager
     00002765  A$SpriteManager$889                SpriteManager
     00002768  A$SpriteManager$896                SpriteManager
     00002768  C$SpriteManager.c$128$1_0$202      SpriteManager
ASxxxx Linker V03.00/V05.40 + sdld,  page 115.
Hexadecimal  [32-Bits]

Area                                    Addr        Size        Decimal Bytes (Attributes)
--------------------------------        ----        ----        ------- ----- ------------
_CODE                               00000200    00002C59 =       11353. bytes (REL,CON)

      Value  Global                              Global Defined In Module
      -----  --------------------------------   ------------------------
     00002768  C$SpriteManager.c$129$1_0$202      SpriteManager
     0000276A  A$SpriteManager$897                SpriteManager
     0000276B  A$SpriteManager$898                SpriteManager
     0000276C  A$SpriteManager$899                SpriteManager
     0000276D  A$SpriteManager$912                SpriteManager
     0000276D  C$SpriteManager.c$131$1_0$204      SpriteManager
     0000276D  C$SpriteManager.c$132$1_0$204      SpriteManager
     0000276D  G$SpriteManagerRemove$0$0          SpriteManager
     0000276D  _SpriteManagerRemove               SpriteManager
     00002770  A$SpriteManager$913                SpriteManager
     00002772  A$SpriteManager$917                SpriteManager
     00002772  C$SpriteManager.c$133$1_0$204      SpriteManager
     00002775  A$SpriteManager$918                SpriteManager
     00002776  A$SpriteManager$919                SpriteManager
     00002777  A$SpriteManager$920                SpriteManager
     00002778  A$SpriteManager$921                SpriteManager
     00002779  A$SpriteManager$922                SpriteManager
     0000277A  A$SpriteManager$923                SpriteManager
     0000277D  A$SpriteManager$924                SpriteManager
     0000277E  A$SpriteManager$925                SpriteManager
     0000277F  A$SpriteManager$927                SpriteManager
     00002781  A$SpriteManager$930                SpriteManager
     00002782  A$SpriteManager$931                SpriteManager
     00002783  A$SpriteManager$932                SpriteManager
     00002784  A$SpriteManager$933                SpriteManager
     00002785  A$SpriteManager$934                SpriteManager
     00002786  A$SpriteManager$935                SpriteManager
     00002789  A$SpriteManager$936                SpriteManager
     0000278A  A$SpriteManager$937                SpriteManager
     0000278C  A$SpriteManager$945                SpriteManager
     0000278C  C$SpriteManager.c$134$1_0$204      SpriteManager
     0000278C  XG$SpriteManagerRemove$0$0         SpriteManager
     0000278D  A$SpriteManager$955                SpriteManager
     0000278D  C$SpriteManager.c$136$1_0$207      SpriteManager
     0000278D  G$SpriteManagerRemoveSprite$0$0    SpriteManager
     0000278D  _SpriteManagerRemoveSprite         SpriteManager
     0000278F  A$SpriteManager$956                SpriteManager
     00002791  A$SpriteManager$957                SpriteManager
     00002792  A$SpriteManager$958                SpriteManager
     00002793  A$SpriteManager$959                SpriteManager
     00002794  A$SpriteManager$963                SpriteManager
     00002797  A$SpriteManager$965                SpriteManager
     0000279A  A$SpriteManager$966                SpriteManager
     0000279B  A$SpriteManager$971                SpriteManager
     0000279B  C$SpriteManager.c$140$3_0$208      SpriteManager
     0000279C  A$SpriteManager$972                SpriteManager
     0000279D  A$SpriteManager$973                SpriteManager
     0000279F  A$SpriteManager$974                SpriteManager
     000027A0  A$SpriteManager$975                SpriteManager
     000027A1  A$SpriteManager$976                SpriteManager
     000027A2  A$SpriteManager$977                SpriteManager
ASxxxx Linker V03.00/V05.40 + sdld,  page 116.
Hexadecimal  [32-Bits]

Area                                    Addr        Size        Decimal Bytes (Attributes)
--------------------------------        ----        ----        ------- ----- ------------
_CODE                               00000200    00002C59 =       11353. bytes (REL,CON)

      Value  Global                              Global Defined In Module
      -----  --------------------------------   ------------------------
     000027A3  A$SpriteManager$978                SpriteManager
     000027A4  A$SpriteManager$979                SpriteManager
     000027A7  A$SpriteManager$980                SpriteManager
     000027A8  A$SpriteManager$981                SpriteManager
     000027A9  A$SpriteManager$983                SpriteManager
     000027AB  A$SpriteManager$986                SpriteManager
     000027AC  A$SpriteManager$987                SpriteManager
     000027AF  A$SpriteManager$988                SpriteManager
     000027B0  A$SpriteManager$989                SpriteManager
     000027B1  A$SpriteManager$990                SpriteManager
     000027B2  A$SpriteManager$991                SpriteManager
     000027B3  A$SpriteManager$992                SpriteManager
     000027B5  A$SpriteManager$993                SpriteManager
     000027B6  A$SpriteManager$994                SpriteManager
     000027B7  A$SpriteManager$995                SpriteManager
     000027B8  A$SpriteManager$996                SpriteManager
     000027B9  A$SpriteManager$1000               SpriteManager
     000027B9  C$SpriteManager.c$141$3_0$208      SpriteManager
     000027BB  A$SpriteManager$1001               SpriteManager
     000027BC  A$SpriteManager$1002               SpriteManager
     000027BD  A$SpriteManager$1003               SpriteManager
     000027BE  A$SpriteManager$1004               SpriteManager
     000027C0  A$SpriteManager$1005               SpriteManager
     000027C2  A$SpriteManager$1006               SpriteManager
     000027C3  A$SpriteManager$1007               SpriteManager
     000027C4  A$SpriteManager$1011               SpriteManager
     000027C4  C$SpriteManager.c$142$4_0$209      SpriteManager
     000027C5  A$SpriteManager$1012               SpriteManager
     000027C7  A$SpriteManager$1013               SpriteManager
     000027C8  A$SpriteManager$1014               SpriteManager
     000027C9  A$SpriteManager$1015               SpriteManager
     000027CC  A$SpriteManager$1019               SpriteManager
     000027CC  C$SpriteManager.c$143$4_0$209      SpriteManager
     000027CE  A$SpriteManager$1024               SpriteManager
     000027CE  C$SpriteManager.c$139$2_0$207      SpriteManager
     000027CF  A$SpriteManager$1025               SpriteManager
     000027D0  A$SpriteManager$1026               SpriteManager
     000027D2  A$SpriteManager$1031               SpriteManager
     000027D4  A$SpriteManager$1036               SpriteManager
     000027D4  C$SpriteManager.c$146$2_0$207      SpriteManager
     000027D4  XG$SpriteManagerRemoveSprite$0$0   SpriteManager
     000027D5  A$SpriteManager$1046               SpriteManager
     000027D5  C$SpriteManager.c$148$2_0$210      SpriteManager
     000027D5  G$SpriteManagerFlushRemove$0$0     SpriteManager
     000027D5  _SpriteManagerFlushRemove          SpriteManager
     000027D6  A$SpriteManager$1047               SpriteManager
     000027D7  A$SpriteManager$1051               SpriteManager
     000027DA  A$SpriteManager$1052               SpriteManager
     000027DB  A$SpriteManager$1053               SpriteManager
     000027DE  A$SpriteManager$1055               SpriteManager
     000027E1  A$SpriteManager$1056               SpriteManager
ASxxxx Linker V03.00/V05.40 + sdld,  page 117.
Hexadecimal  [32-Bits]

Area                                    Addr        Size        Decimal Bytes (Attributes)
--------------------------------        ----        ----        ------- ----- ------------
_CODE                               00000200    00002C59 =       11353. bytes (REL,CON)

      Value  Global                              Global Defined In Module
      -----  --------------------------------   ------------------------
     000027E2  A$SpriteManager$1057               SpriteManager
     000027E3  A$SpriteManager$1058               SpriteManager
     000027E4  A$SpriteManager$1059               SpriteManager
     000027E7  A$SpriteManager$1063               SpriteManager
     000027E7  C$SpriteManager.c$151$3_0$212      SpriteManager
     000027E8  A$SpriteManager$1064               SpriteManager
     000027EA  A$SpriteManager$1065               SpriteManager
     000027ED  A$SpriteManager$1066               SpriteManager
     000027EE  A$SpriteManager$1067               SpriteManager
     000027EF  A$SpriteManager$1068               SpriteManager
     000027F0  A$SpriteManager$1069               SpriteManager
     000027F1  A$SpriteManager$1070               SpriteManager
     000027F2  A$SpriteManager$1071               SpriteManager
     000027F3  A$SpriteManager$1072               SpriteManager
     000027F4  A$SpriteManager$1073               SpriteManager
     000027F6  A$SpriteManager$1076               SpriteManager
     000027F7  A$SpriteManager$1077               SpriteManager
     000027F8  A$SpriteManager$1078               SpriteManager
     000027FB  A$SpriteManager$1079               SpriteManager
     000027FC  A$SpriteManager$1080               SpriteManager
     000027FD  A$SpriteManager$1081               SpriteManager
     000027FE  A$SpriteManager$1082               SpriteManager
     000027FF  A$SpriteManager$1083               SpriteManager
     00002802  A$SpriteManager$1084               SpriteManager
     00002803  A$SpriteManager$1085               SpriteManager
     00002804  A$SpriteManager$1086               SpriteManager
     00002805  A$SpriteManager$1087               SpriteManager
     00002806  A$SpriteManager$1091               SpriteManager
     00002806  C$SpriteManager.c$152$3_0$212      SpriteManager
     00002809  A$SpriteManager$1092               SpriteManager
     0000280A  A$SpriteManager$1093               SpriteManager
     0000280B  A$SpriteManager$1094               SpriteManager
     0000280C  A$SpriteManager$1095               SpriteManager
     0000280F  A$SpriteManager$1096               SpriteManager
     00002810  A$SpriteManager$1097               SpriteManager
     00002811  A$SpriteManager$1098               SpriteManager
     00002812  A$SpriteManager$1099               SpriteManager
     00002814  A$SpriteManager$1103               SpriteManager
     00002814  C$SpriteManager.c$153$4_0$213      SpriteManager
     00002817  A$SpriteManager$1104               SpriteManager
     00002818  A$SpriteManager$1105               SpriteManager
     0000281A  A$SpriteManager$1106               SpriteManager
     0000281B  A$SpriteManager$1107               SpriteManager
     0000281C  A$SpriteManager$1109               SpriteManager
     0000281F  A$SpriteManager$1110               SpriteManager
     00002820  A$SpriteManager$1111               SpriteManager
     00002821  A$SpriteManager$1112               SpriteManager
     00002822  A$SpriteManager$1113               SpriteManager
     00002823  A$SpriteManager$1114               SpriteManager
     00002824  A$SpriteManager$1115               SpriteManager
     00002825  A$SpriteManager$1116               SpriteManager
ASxxxx Linker V03.00/V05.40 + sdld,  page 118.
Hexadecimal  [32-Bits]

Area                                    Addr        Size        Decimal Bytes (Attributes)
--------------------------------        ----        ----        ------- ----- ------------
_CODE                               00000200    00002C59 =       11353. bytes (REL,CON)

      Value  Global                              Global Defined In Module
      -----  --------------------------------   ------------------------
     00002826  A$SpriteManager$1120               SpriteManager
     00002826  C$SpriteManager.c$154$4_0$213      SpriteManager
     00002829  A$SpriteManager$1121               SpriteManager
     0000282C  A$SpriteManager$1122               SpriteManager
     0000282F  A$SpriteManager$1126               SpriteManager
     0000282F  C$SpriteManager.c$156$4_0$213      SpriteManager
     00002832  A$SpriteManager$1127               SpriteManager
     00002833  A$SpriteManager$1128               SpriteManager
     00002834  A$SpriteManager$1129               SpriteManager
     00002835  A$SpriteManager$1130               SpriteManager
     00002838  A$SpriteManager$1131               SpriteManager
     00002839  A$SpriteManager$1132               SpriteManager
     0000283A  A$SpriteManager$1133               SpriteManager
     0000283D  A$SpriteManager$1134               SpriteManager
     0000283F  A$SpriteManager$1135               SpriteManager
     00002840  A$SpriteManager$1136               SpriteManager
     00002841  A$SpriteManager$1137               SpriteManager
     00002842  A$SpriteManager$1138               SpriteManager
     00002843  A$SpriteManager$1139               SpriteManager
     00002846  A$SpriteManager$1140               SpriteManager
     00002847  A$SpriteManager$1144               SpriteManager
     00002847  C$SpriteManager.c$157$4_0$213      SpriteManager
     0000284A  A$SpriteManager$1145               SpriteManager
     0000284B  A$SpriteManager$1146               SpriteManager
     0000284C  A$SpriteManager$1147               SpriteManager
     0000284D  A$SpriteManager$1148               SpriteManager
     00002850  A$SpriteManager$1149               SpriteManager
     00002851  A$SpriteManager$1150               SpriteManager
     00002852  A$SpriteManager$1152               SpriteManager
     00002854  A$SpriteManager$1155               SpriteManager
     00002855  A$SpriteManager$1156               SpriteManager
     00002858  A$SpriteManager$1157               SpriteManager
     00002859  A$SpriteManager$1158               SpriteManager
     0000285A  A$SpriteManager$1159               SpriteManager
     0000285B  A$SpriteManager$1161               SpriteManager
     0000285C  A$SpriteManager$1164               SpriteManager
     0000285F  A$SpriteManager$1168               SpriteManager
     0000285F  C$SpriteManager.c$158$4_0$213      SpriteManager
     00002862  A$SpriteManager$1173               SpriteManager
     00002862  C$SpriteManager.c$150$2_0$211      SpriteManager
     00002865  A$SpriteManager$1174               SpriteManager
     00002866  A$SpriteManager$1175               SpriteManager
     00002869  A$SpriteManager$1180               SpriteManager
     00002869  C$SpriteManager.c$161$1_0$210      SpriteManager
     0000286C  A$SpriteManager$1181               SpriteManager
     0000286E  A$SpriteManager$1185               SpriteManager
     0000286F  A$SpriteManager$1186               SpriteManager
     00002870  A$SpriteManager$1191               SpriteManager
     00002870  C$SpriteManager.c$162$1_0$210      SpriteManager
     00002870  XG$SpriteManagerFlushRemove$0$0    SpriteManager
     00002871  A$SpriteManager$1204               SpriteManager
ASxxxx Linker V03.00/V05.40 + sdld,  page 119.
Hexadecimal  [32-Bits]

Area                                    Addr        Size        Decimal Bytes (Attributes)
--------------------------------        ----        ----        ------- ----- ------------
_CODE                               00000200    00002C59 =       11353. bytes (REL,CON)

      Value  Global                              Global Defined In Module
      -----  --------------------------------   ------------------------
     00002871  C$SpriteManager.c$164$1_0$215      SpriteManager
     00002871  C$SpriteManager.c$174$1_0$215      SpriteManager
     00002871  G$SetBank$0$0                      SpriteManager
     00002871  _SetBank                           SpriteManager
     00002873  A$SpriteManager$1205               SpriteManager
     00002874  A$SpriteManager$1206               SpriteManager
     00002877  A$SpriteManager$1207               SpriteManager
     0000287A  A$SpriteManager$1215               SpriteManager
     0000287A  C$SpriteManager.c$175$1_0$215      SpriteManager
     0000287A  XG$SetBank$0$0                     SpriteManager
     0000287B  A$SpriteManager$1225               SpriteManager
     0000287B  C$SpriteManager.c$182$1_0$216      SpriteManager
     0000287B  G$SpriteManagerUpdate$0$0          SpriteManager
     0000287B  _SpriteManagerUpdate               SpriteManager
     0000287C  A$SpriteManager$1226               SpriteManager
     0000287D  A$SpriteManager$1230               SpriteManager
     00002880  A$SpriteManager$1231               SpriteManager
     00002882  A$SpriteManager$1232               SpriteManager
     00002885  A$SpriteManager$1233               SpriteManager
     00002886  A$SpriteManager$1236               SpriteManager
     00002888  A$SpriteManager$1239               SpriteManager
     00002889  A$SpriteManager$1240               SpriteManager
     0000288C  A$SpriteManager$1241               SpriteManager
     0000288D  A$SpriteManager$1242               SpriteManager
     0000288E  A$SpriteManager$1243               SpriteManager
     0000288F  A$SpriteManager$1244               SpriteManager
     00002890  A$SpriteManager$1245               SpriteManager
     00002893  A$SpriteManager$1246               SpriteManager
     00002894  A$SpriteManager$1247               SpriteManager
     00002895  A$SpriteManager$1248               SpriteManager
     00002896  A$SpriteManager$1249               SpriteManager
     00002897  A$SpriteManager$1251               SpriteManager
     0000289A  A$SpriteManager$1252               SpriteManager
     0000289B  A$SpriteManager$1253               SpriteManager
     0000289E  A$SpriteManager$1254               SpriteManager
     0000289F  A$SpriteManager$1255               SpriteManager
     000028A2  A$SpriteManager$1259               SpriteManager
     000028A2  C$SpriteManager.c$184$1_0$216      SpriteManager
     000028A5  A$SpriteManager$1260               SpriteManager
     000028A7  A$SpriteManager$1261               SpriteManager
     000028A8  A$SpriteManager$1262               SpriteManager
     000028AB  A$SpriteManager$1263               SpriteManager
     000028AD  A$SpriteManager$1264               SpriteManager
     000028AE  A$SpriteManager$1265               SpriteManager
     000028AF  A$SpriteManager$1266               SpriteManager
     000028B0  A$SpriteManager$1267               SpriteManager
     000028B3  A$SpriteManager$1268               SpriteManager
     000028B4  A$SpriteManager$1269               SpriteManager
     000028B5  A$SpriteManager$1270               SpriteManager
     000028B6  A$SpriteManager$1271               SpriteManager
     000028B7  A$SpriteManager$1272               SpriteManager
ASxxxx Linker V03.00/V05.40 + sdld,  page 120.
Hexadecimal  [32-Bits]

Area                                    Addr        Size        Decimal Bytes (Attributes)
--------------------------------        ----        ----        ------- ----- ------------
_CODE                               00000200    00002C59 =       11353. bytes (REL,CON)

      Value  Global                              Global Defined In Module
      -----  --------------------------------   ------------------------
     000028B8  A$SpriteManager$1273               SpriteManager
     000028BA  A$SpriteManager$1277               SpriteManager
     000028BA  C$SpriteManager.c$186$4_0$219      SpriteManager
     000028BB  A$SpriteManager$1278               SpriteManager
     000028BC  A$SpriteManager$1279               SpriteManager
     000028BF  A$SpriteManager$1280               SpriteManager
     000028C0  A$SpriteManager$1281               SpriteManager
     000028C1  A$SpriteManager$1282               SpriteManager
     000028C2  A$SpriteManager$1283               SpriteManager
     000028C3  A$SpriteManager$1284               SpriteManager
     000028C4  A$SpriteManager$1285               SpriteManager
     000028C7  A$SpriteManager$1286               SpriteManager
     000028C9  A$SpriteManager$1287               SpriteManager
     000028CA  A$SpriteManager$1288               SpriteManager
     000028CB  A$SpriteManager$1289               SpriteManager
     000028CC  A$SpriteManager$1290               SpriteManager
     000028CD  A$SpriteManager$1291               SpriteManager
     000028D0  A$SpriteManager$1292               SpriteManager
     000028D1  A$SpriteManager$1296               SpriteManager
     000028D1  C$SpriteManager.c$188$4_0$219      SpriteManager
     000028D4  A$SpriteManager$1297               SpriteManager
     000028D5  A$SpriteManager$1298               SpriteManager
     000028D6  A$SpriteManager$1299               SpriteManager
     000028D7  A$SpriteManager$1300               SpriteManager
     000028DA  A$SpriteManager$1301               SpriteManager
     000028DB  A$SpriteManager$1302               SpriteManager
     000028DC  A$SpriteManager$1304               SpriteManager
     000028DE  A$SpriteManager$1307               SpriteManager
     000028DF  A$SpriteManager$1308               SpriteManager
     000028E2  A$SpriteManager$1309               SpriteManager
     000028E3  A$SpriteManager$1310               SpriteManager
     000028E4  A$SpriteManager$1311               SpriteManager
     000028E5  A$SpriteManager$1312               SpriteManager
     000028E6  A$SpriteManager$1314               SpriteManager
     000028E7  A$SpriteManager$1317               SpriteManager
     000028EA  A$SpriteManager$1321               SpriteManager
     000028EA  C$SpriteManager.c$190$4_0$219      SpriteManager
     000028ED  A$SpriteManager$1322               SpriteManager
     000028F0  A$SpriteManager$1323               SpriteManager
     000028F1  A$SpriteManager$1324               SpriteManager
     000028F3  A$SpriteManager$1325               SpriteManager
     000028F6  A$SpriteManager$1326               SpriteManager
     000028F9  A$SpriteManager$1327               SpriteManager
     000028FA  A$SpriteManager$1328               SpriteManager
     000028FC  A$SpriteManager$1332               SpriteManager
     000028FC  C$SpriteManager.c$191$4_0$219      SpriteManager
     000028FF  A$SpriteManager$1337               SpriteManager
     000028FF  C$SpriteManager.c$193$4_0$219      SpriteManager
     00002902  A$SpriteManager$1342               SpriteManager
     00002902  C$SpriteManager.c$183$2_0$217      SpriteManager
     00002905  A$SpriteManager$1343               SpriteManager
ASxxxx Linker V03.00/V05.40 + sdld,  page 121.
Hexadecimal  [32-Bits]

Area                                    Addr        Size        Decimal Bytes (Attributes)
--------------------------------        ----        ----        ------- ----- ------------
_CODE                               00000200    00002C59 =       11353. bytes (REL,CON)

      Value  Global                              Global Defined In Module
      -----  --------------------------------   ------------------------
     00002906  A$SpriteManager$1344               SpriteManager
     00002907  A$SpriteManager$1345               SpriteManager
     00002908  A$SpriteManager$1346               SpriteManager
     0000290B  A$SpriteManager$1347               SpriteManager
     0000290D  A$SpriteManager$1348               SpriteManager
     0000290E  A$SpriteManager$1349               SpriteManager
     0000290F  A$SpriteManager$1351               SpriteManager
     00002911  A$SpriteManager$1354               SpriteManager
     00002912  A$SpriteManager$1355               SpriteManager
     00002915  A$SpriteManager$1356               SpriteManager
     00002916  A$SpriteManager$1357               SpriteManager
     00002917  A$SpriteManager$1358               SpriteManager
     00002918  A$SpriteManager$1359               SpriteManager
     00002919  A$SpriteManager$1360               SpriteManager
     0000291C  A$SpriteManager$1361               SpriteManager
     0000291D  A$SpriteManager$1362               SpriteManager
     0000291E  A$SpriteManager$1363               SpriteManager
     0000291F  A$SpriteManager$1364               SpriteManager
     00002920  A$SpriteManager$1365               SpriteManager
     00002923  A$SpriteManager$1370               SpriteManager
     00002923  C$SpriteManager.c$197$1_0$216      SpriteManager
     00002926  A$SpriteManager$1374               SpriteManager
     00002926  C$SpriteManager.c$199$1_0$216      SpriteManager
     00002929  A$SpriteManager$1375               SpriteManager
     0000292A  A$SpriteManager$1376               SpriteManager
     0000292B  A$SpriteManager$1377               SpriteManager
     0000292D  A$SpriteManager$1381               SpriteManager
     0000292D  C$SpriteManager.c$200$2_0$220      SpriteManager
     0000292E  A$SpriteManager$1382               SpriteManager
     0000292F  A$SpriteManager$1383               SpriteManager
     00002932  A$SpriteManager$1388               SpriteManager
     00002933  A$SpriteManager$1389               SpriteManager
     00002934  A$SpriteManager$1394               SpriteManager
     00002934  C$SpriteManager.c$202$1_0$216      SpriteManager
     00002934  XG$SpriteManagerUpdate$0$0         SpriteManager
     00002935  A$OAMManager$80                    OAMManager
     00002935  C$OAMManager.c$21$0_0$184          OAMManager
     00002935  C$OAMManager.c$23$1_0$184          OAMManager
     00002935  G$SwapOAMs$0$0                     OAMManager
     00002935  _SwapOAMs                          OAMManager
     00002938  A$OAMManager$81                    OAMManager
     00002939  A$OAMManager$84                    OAMManager
     0000293B  A$OAMManager$87                    OAMManager
     0000293C  A$OAMManager$88                    OAMManager
     0000293D  A$OAMManager$89                    OAMManager
     0000293E  A$OAMManager$90                    OAMManager
     0000293F  A$OAMManager$91                    OAMManager
     00002942  A$OAMManager$92                    OAMManager
     00002943  A$OAMManager$93                    OAMManager
     00002944  A$OAMManager$94                    OAMManager
     00002945  A$OAMManager$95                    OAMManager
ASxxxx Linker V03.00/V05.40 + sdld,  page 122.
Hexadecimal  [32-Bits]

Area                                    Addr        Size        Decimal Bytes (Attributes)
--------------------------------        ----        ----        ------- ----- ------------
_CODE                               00000200    00002C59 =       11353. bytes (REL,CON)

      Value  Global                              Global Defined In Module
      -----  --------------------------------   ------------------------
     00002946  A$OAMManager$96                    OAMManager
     00002947  A$OAMManager$100                   OAMManager
     00002947  C$OAMManager.c$24$2_0$185          OAMManager
     00002948  A$OAMManager$101                   OAMManager
     00002949  A$OAMManager$102                   OAMManager
     0000294A  A$OAMManager$103                   OAMManager
     0000294B  A$OAMManager$108                   OAMManager
     0000294B  C$OAMManager.c$25$1_1$185          OAMManager
     0000294E  A$OAMManager$109                   OAMManager
     00002951  A$OAMManager$110                   OAMManager
     00002952  A$OAMManager$111                   OAMManager
     00002953  A$OAMManager$112                   OAMManager
     00002954  A$OAMManager$113                   OAMManager
     00002955  A$OAMManager$114                   OAMManager
     00002956  A$OAMManager$115                   OAMManager
     00002957  A$OAMManager$116                   OAMManager
     00002959  A$OAMManager$120                   OAMManager
     00002959  C$OAMManager.c$26$2_1$186          OAMManager
     0000295C  A$OAMManager$121                   OAMManager
     0000295D  A$OAMManager$122                   OAMManager
     0000295E  A$OAMManager$126                   OAMManager
     0000295E  C$OAMManager.c$27$2_1$186          OAMManager
     0000295F  A$OAMManager$127                   OAMManager
     00002960  A$OAMManager$128                   OAMManager
     00002961  A$OAMManager$129                   OAMManager
     00002962  A$OAMManager$130                   OAMManager
     00002963  A$OAMManager$131                   OAMManager
     00002965  A$OAMManager$132                   OAMManager
     00002966  A$OAMManager$133                   OAMManager
     00002967  A$OAMManager$134                   OAMManager
     00002969  A$OAMManager$135                   OAMManager
     0000296A  A$OAMManager$136                   OAMManager
     0000296C  A$OAMManager$141                   OAMManager
     0000296C  C$OAMManager.c$30$1_1$185          OAMManager
     0000296F  A$OAMManager$142                   OAMManager
     00002970  A$OAMManager$143                   OAMManager
     00002971  A$OAMManager$144                   OAMManager
     00002973  A$OAMManager$145                   OAMManager
     00002974  A$OAMManager$146                   OAMManager
     00002975  A$OAMManager$147                   OAMManager
     00002977  A$OAMManager$148                   OAMManager
     00002978  A$OAMManager$149                   OAMManager
     0000297A  A$OAMManager$150                   OAMManager
     0000297C  A$OAMManager$152                   OAMManager
     0000297E  A$OAMManager$153                   OAMManager
     00002980  A$OAMManager$157                   OAMManager
     00002980  C$OAMManager.c$32$2_1$187          OAMManager
     00002983  A$OAMManager$158                   OAMManager
     00002984  A$OAMManager$159                   OAMManager
     00002985  A$OAMManager$160                   OAMManager
     00002986  A$OAMManager$164                   OAMManager
ASxxxx Linker V03.00/V05.40 + sdld,  page 123.
Hexadecimal  [32-Bits]

Area                                    Addr        Size        Decimal Bytes (Attributes)
--------------------------------        ----        ----        ------- ----- ------------
_CODE                               00000200    00002C59 =       11353. bytes (REL,CON)

      Value  Global                              Global Defined In Module
      -----  --------------------------------   ------------------------
     00002986  C$OAMManager.c$33$2_1$187          OAMManager
     00002989  A$OAMManager$165                   OAMManager
     0000298A  A$OAMManager$166                   OAMManager
     0000298B  A$OAMManager$167                   OAMManager
     0000298D  A$OAMManager$171                   OAMManager
     0000298D  C$OAMManager.c$34$2_1$187          OAMManager
     00002990  A$OAMManager$172                   OAMManager
     00002993  A$OAMManager$173                   OAMManager
     00002996  A$OAMManager$174                   OAMManager
     00002999  A$OAMManager$175                   OAMManager
     0000299B  A$OAMManager$178                   OAMManager
     0000299D  A$OAMManager$179                   OAMManager
     0000299F  A$OAMManager$183                   OAMManager
     0000299F  C$OAMManager.c$37$2_1$188          OAMManager
     000029A2  A$OAMManager$184                   OAMManager
     000029A3  A$OAMManager$185                   OAMManager
     000029A4  A$OAMManager$186                   OAMManager
     000029A5  A$OAMManager$190                   OAMManager
     000029A5  C$OAMManager.c$38$2_1$188          OAMManager
     000029A8  A$OAMManager$191                   OAMManager
     000029A9  A$OAMManager$192                   OAMManager
     000029AA  A$OAMManager$193                   OAMManager
     000029AC  A$OAMManager$197                   OAMManager
     000029AC  C$OAMManager.c$39$2_1$188          OAMManager
     000029AF  A$OAMManager$198                   OAMManager
     000029B2  A$OAMManager$199                   OAMManager
     000029B5  A$OAMManager$200                   OAMManager
     000029B8  A$OAMManager$205                   OAMManager
     000029B8  C$OAMManager.c$41$1_1$185          OAMManager
     000029BB  A$OAMManager$206                   OAMManager
     000029BC  A$OAMManager$207                   OAMManager
     000029BD  A$OAMManager$208                   OAMManager
     000029C0  A$OAMManager$209                   OAMManager
     000029C1  A$OAMManager$213                   OAMManager
     000029C1  C$OAMManager.c$42$1_1$185          OAMManager
     000029C4  A$OAMManager$214                   OAMManager
     000029C6  A$OAMManager$218                   OAMManager
     000029C6  C$OAMManager.c$44$1_1$185          OAMManager
     000029C9  A$OAMManager$219                   OAMManager
     000029CC  A$OAMManager$223                   OAMManager
     000029CC  C$OAMManager.c$45$1_1$185          OAMManager
     000029CF  A$OAMManager$224                   OAMManager
     000029D2  A$OAMManager$232                   OAMManager
     000029D2  C$OAMManager.c$46$1_1$184          OAMManager
     000029D2  XG$SwapOAMs$0$0                    OAMManager
     000029D3  A$OAMManager$245                   OAMManager
     000029D3  C$OAMManager.c$48$1_1$195          OAMManager
     000029D3  C$OAMManager.c$49$1_0$195          OAMManager
     000029D3  G$ClearOAMs$0$0                    OAMManager
     000029D3  _ClearOAMs                         OAMManager
     000029D6  A$OAMManager$246                   OAMManager
ASxxxx Linker V03.00/V05.40 + sdld,  page 124.
Hexadecimal  [32-Bits]

Area                                    Addr        Size        Decimal Bytes (Attributes)
--------------------------------        ----        ----        ------- ----- ------------
_CODE                               00000200    00002C59 =       11353. bytes (REL,CON)

      Value  Global                              Global Defined In Module
      -----  --------------------------------   ------------------------
     000029D7  A$OAMManager$247                   OAMManager
     000029D8  A$OAMManager$248                   OAMManager
     000029DA  A$OAMManager$252                   OAMManager
     000029DA  C$OAMManager.c$50$1_0$195          OAMManager
     000029DD  A$OAMManager$253                   OAMManager
     000029DE  A$OAMManager$254                   OAMManager
     000029DF  A$OAMManager$255                   OAMManager
     000029E1  A$OAMManager$259                   OAMManager
     000029E1  C$OAMManager.c$51$1_0$195          OAMManager
     000029E2  A$OAMManager$260                   OAMManager
     000029E3  A$OAMManager$261                   OAMManager
     000029E4  A$OAMManager$262                   OAMManager
     000029E7  A$OAMManager$263                   OAMManager
     000029E8  A$OAMManager$264                   OAMManager
     000029EB  A$OAMManager$265                   OAMManager
     000029EC  A$OAMManager$266                   OAMManager
     000029EF  A$OAMManager$267                   OAMManager
     000029F1  A$OAMManager$271                   OAMManager
     000029F1  C$OAMManager.c$52$1_0$195          OAMManager
     000029F4  A$OAMManager$272                   OAMManager
     000029F5  A$OAMManager$273                   OAMManager
     000029F6  A$OAMManager$274                   OAMManager
     000029F7  A$OAMManager$275                   OAMManager
     000029F8  A$OAMManager$276                   OAMManager
     000029F9  A$OAMManager$277                   OAMManager
     000029FA  A$OAMManager$278                   OAMManager
     000029FD  A$OAMManager$279                   OAMManager
     000029FE  A$OAMManager$280                   OAMManager
     000029FF  A$OAMManager$281                   OAMManager
     00002A02  A$OAMManager$282                   OAMManager
     00002A04  A$OAMManager$286                   OAMManager
     00002A04  C$OAMManager.c$53$1_0$195          OAMManager
     00002A07  A$OAMManager$287                   OAMManager
     00002A09  A$OAMManager$295                   OAMManager
     00002A09  C$OAMManager.c$54$1_0$195          OAMManager
     00002A09  XG$ClearOAMs$0$0                   OAMManager
     00002A0A  __mulsuchar                        mul
     00002A0D  __muluschar                        mul
     00002A16  __mulschar                         mul
     00002A1E  __mulint                           mul
     00002A3D  __muluchar                         mul
     00002A4F  ___move_metasprite_flipy           Metasprites
     00002A4F  ___move_metasprite_hflip           Metasprites
     00002A90  ___move_metasprite_flipx           Metasprites
     00002A90  ___move_metasprite_vflip           Metasprites
     00002AD1  ___move_metasprite_flipxy          Metasprites
     00002AD1  ___move_metasprite_hvflip          Metasprites
     00002B14  A$Vector$54                        Vector
     00002B14  C$Vector.c$5$0_0$138               Vector
     00002B14  G$VectorAdd$0$0                    Vector
     00002B14  _VectorAdd                         Vector
ASxxxx Linker V03.00/V05.40 + sdld,  page 125.
Hexadecimal  [32-Bits]

Area                                    Addr        Size        Decimal Bytes (Attributes)
--------------------------------        ----        ----        ------- ----- ------------
_CODE                               00000200    00002C59 =       11353. bytes (REL,CON)

      Value  Global                              Global Defined In Module
      -----  --------------------------------   ------------------------
     00002B15  A$Vector$58                        Vector
     00002B15  C$Vector.c$6$1_0$138               Vector
     00002B16  A$Vector$59                        Vector
     00002B17  A$Vector$60                        Vector
     00002B18  A$Vector$61                        Vector
     00002B19  A$Vector$62                        Vector
     00002B1B  A$Vector$63                        Vector
     00002B1C  A$Vector$64                        Vector
     00002B1D  A$Vector$72                        Vector
     00002B1D  C$Vector.c$7$1_0$138               Vector
     00002B1D  XG$VectorAdd$0$0                   Vector
     00002B1E  A$Vector$82                        Vector
     00002B1E  C$Vector.c$9$1_0$140               Vector
     00002B1E  G$VectorRemovePos$0$0              Vector
     00002B1E  _VectorRemovePos                   Vector
     00002B20  A$Vector$83                        Vector
     00002B22  A$Vector$84                        Vector
     00002B23  A$Vector$85                        Vector
     00002B24  A$Vector$86                        Vector
     00002B25  A$Vector$90                        Vector
     00002B25  C$Vector.c$10$1_0$140              Vector
     00002B26  A$Vector$91                        Vector
     00002B27  A$Vector$92                        Vector
     00002B28  A$Vector$93                        Vector
     00002B29  A$Vector$94                        Vector
     00002B2A  A$Vector$95                        Vector
     00002B2B  A$Vector$96                        Vector
     00002B2C  A$Vector$97                        Vector
     00002B2D  A$Vector$98                        Vector
     00002B2F  A$Vector$99                        Vector
     00002B31  A$Vector$100                       Vector
     00002B32  A$Vector$101                       Vector
     00002B33  A$Vector$102                       Vector
     00002B34  A$Vector$103                       Vector
     00002B35  A$Vector$104                       Vector
     00002B36  A$Vector$105                       Vector
     00002B37  A$Vector$106                       Vector
     00002B38  A$Vector$107                       Vector
     00002B39  A$Vector$108                       Vector
     00002B3A  A$Vector$109                       Vector
     00002B3B  A$Vector$110                       Vector
     00002B3C  A$Vector$111                       Vector
     00002B3D  A$Vector$112                       Vector
     00002B3E  A$Vector$113                       Vector
     00002B3F  A$Vector$114                       Vector
     00002B40  A$Vector$115                       Vector
     00002B41  A$Vector$116                       Vector
     00002B42  A$Vector$117                       Vector
     00002B43  A$Vector$118                       Vector
     00002B44  A$Vector$119                       Vector
     00002B45  A$Vector$120                       Vector
ASxxxx Linker V03.00/V05.40 + sdld,  page 126.
Hexadecimal  [32-Bits]

Area                                    Addr        Size        Decimal Bytes (Attributes)
--------------------------------        ----        ----        ------- ----- ------------
_CODE                               00000200    00002C59 =       11353. bytes (REL,CON)

      Value  Global                              Global Defined In Module
      -----  --------------------------------   ------------------------
     00002B46  A$Vector$121                       Vector
     00002B47  A$Vector$122                       Vector
     00002B48  A$Vector$123                       Vector
     00002B49  A$Vector$124                       Vector
     00002B4A  A$Vector$125                       Vector
     00002B4B  A$Vector$126                       Vector
     00002B4C  A$Vector$127                       Vector
     00002B4D  A$Vector$128                       Vector
     00002B4F  A$Vector$129                       Vector
     00002B50  A$Vector$130                       Vector
     00002B51  A$Vector$131                       Vector
     00002B52  A$Vector$132                       Vector
     00002B53  A$Vector$133                       Vector
     00002B54  A$Vector$134                       Vector
     00002B55  A$Vector$135                       Vector
     00002B57  A$Vector$136                       Vector
     00002B58  A$Vector$137                       Vector
     00002B59  A$Vector$140                       Vector
     00002B5A  A$Vector$143                       Vector
     00002B5B  A$Vector$144                       Vector
     00002B5E  A$Vector$148                       Vector
     00002B5E  C$Vector.c$11$1_0$140              Vector
     00002B60  A$Vector$149                       Vector
     00002B61  A$Vector$150                       Vector
     00002B62  A$Vector$151                       Vector
     00002B63  A$Vector$152                       Vector
     00002B64  A$Vector$153                       Vector
     00002B65  A$Vector$154                       Vector
     00002B66  A$Vector$155                       Vector
     00002B67  A$Vector$156                       Vector
     00002B68  A$Vector$157                       Vector
     00002B69  A$Vector$158                       Vector
     00002B6A  A$Vector$162                       Vector
     00002B6C  A$Vector$167                       Vector
     00002B6C  C$Vector.c$12$1_0$140              Vector
     00002B6C  XG$VectorRemovePos$0$0             Vector
     00002B6D  _set_vram_byte                     
     00002B76  _set_win_tile_xy                   
     00002B7E  _set_bkg_tile_xy                   
     00002BA8  ___move_metasprite                 Metasprites
     00002BE5  A$Math$55                          Math
     00002BE5  C$Math.c$3$0_0$3                   Math
     00002BE5  C$Math.c$4$1_0$3                   Math
     00002BE5  G$DespRight$0$0                    Math
     00002BE5  _DespRight                         Math
     00002BE6  A$Math$56                          Math
     00002BE8  A$Math$58                          Math
     00002BEA  A$Math$59                          Math
     00002BEC  A$Math$61                          Math
     00002BED  A$Math$62                          Math
     00002BEF  A$Math$63                          Math
ASxxxx Linker V03.00/V05.40 + sdld,  page 127.
Hexadecimal  [32-Bits]

Area                                    Addr        Size        Decimal Bytes (Attributes)
--------------------------------        ----        ----        ------- ----- ------------
_CODE                               00000200    00002C59 =       11353. bytes (REL,CON)

      Value  Global                              Global Defined In Module
      -----  --------------------------------   ------------------------
     00002BF0  A$Math$64                          Math
     00002BF1  A$Math$72                          Math
     00002BF1  C$Math.c$5$1_0$3                   Math
     00002BF1  XG$DespRight$0$0                   Math
     00002BF2  ___memcpy                          
     00002BF2  _memcpy                            
     00002C24  A$Print$71                         Print
     00002C24  C$Print.c$13$0_0$190               Print
     00002C24  G$Printf$0$0                       Print
     00002C24  _Printf                            Print
     00002C26  A$Print$75                         Print
     00002C26  C$Print.c$15$2_0$190               Print
     00002C28  A$Print$76                         Print
     00002C2A  A$Print$80                         Print
     00002C2A  C$Print.c$19$1_0$190               Print
     00002C2C  A$Print$81                         Print
     00002C2D  A$Print$82                         Print
     00002C2E  A$Print$83                         Print
     00002C30  A$Print$84                         Print
     00002C31  A$Print$85                         Print
     00002C32  A$Print$86                         Print
     00002C33  A$Print$91                         Print
     00002C33  C$Print.c$20$5_0$198               Print
     00002C35  A$Print$92                         Print
     00002C36  A$Print$93                         Print
     00002C37  A$Print$94                         Print
     00002C38  A$Print$95                         Print
     00002C39  A$Print$99                         Print
     00002C39  C$Print.c$21$2_0$191               Print
     00002C3A  A$Print$100                        Print
     00002C3B  A$Print$101                        Print
     00002C3E  A$Print$102                        Print
     00002C40  A$Print$103                        Print
     00002C42  A$Print$107                        Print
     00002C42  C$Print.c$22$3_0$192               Print
     00002C44  A$Print$108                        Print
     00002C46  A$Print$109                        Print
     00002C49  A$Print$114                        Print
     00002C49  C$Print.c$23$2_0$191               Print
     00002C4A  A$Print$115                        Print
     00002C4C  A$Print$116                        Print
     00002C4E  A$Print$117                        Print
     00002C50  A$Print$118                        Print
     00002C51  A$Print$119                        Print
     00002C53  A$Print$120                        Print
     00002C54  A$Print$121                        Print
     00002C55  A$Print$122                        Print
     00002C57  A$Print$123                        Print
     00002C59  A$Print$124                        Print
     00002C5B  A$Print$125                        Print
     00002C5D  A$Print$126                        Print
ASxxxx Linker V03.00/V05.40 + sdld,  page 128.
Hexadecimal  [32-Bits]

Area                                    Addr        Size        Decimal Bytes (Attributes)
--------------------------------        ----        ----        ------- ----- ------------
_CODE                               00000200    00002C59 =       11353. bytes (REL,CON)

      Value  Global                              Global Defined In Module
      -----  --------------------------------   ------------------------
     00002C5E  A$Print$127                        Print
     00002C60  A$Print$129                        Print
     00002C62  A$Print$130                        Print
     00002C64  A$Print$131                        Print
     00002C65  A$Print$133                        Print
     00002C67  A$Print$137                        Print
     00002C67  C$Print.c$24$3_0$193               Print
     00002C68  A$Print$138                        Print
     00002C6A  A$Print$139                        Print
     00002C6C  A$Print$140                        Print
     00002C6D  A$Print$141                        Print
     00002C70  A$Print$146                        Print
     00002C70  C$Print.c$25$2_0$191               Print
     00002C72  A$Print$147                        Print
     00002C73  A$Print$148                        Print
     00002C74  A$Print$149                        Print
     00002C75  A$Print$150                        Print
     00002C76  A$Print$151                        Print
     00002C77  A$Print$152                        Print
     00002C79  A$Print$153                        Print
     00002C7B  A$Print$154                        Print
     00002C7D  A$Print$155                        Print
     00002C7E  A$Print$156                        Print
     00002C80  A$Print$157                        Print
     00002C81  A$Print$158                        Print
     00002C82  A$Print$159                        Print
     00002C84  A$Print$160                        Print
     00002C86  A$Print$161                        Print
     00002C88  A$Print$162                        Print
     00002C8A  A$Print$163                        Print
     00002C8B  A$Print$164                        Print
     00002C8D  A$Print$166                        Print
     00002C8F  A$Print$167                        Print
     00002C91  A$Print$168                        Print
     00002C92  A$Print$170                        Print
     00002C94  A$Print$174                        Print
     00002C94  C$Print.c$26$3_0$194               Print
     00002C95  A$Print$175                        Print
     00002C97  A$Print$176                        Print
     00002C99  A$Print$177                        Print
     00002C9A  A$Print$178                        Print
     00002C9D  A$Print$183                        Print
     00002C9D  C$Print.c$27$2_0$191               Print
     00002C9F  A$Print$184                        Print
     00002CA0  A$Print$185                        Print
     00002CA1  A$Print$186                        Print
     00002CA2  A$Print$187                        Print
     00002CA3  A$Print$188                        Print
     00002CA4  A$Print$189                        Print
     00002CA6  A$Print$190                        Print
     00002CA8  A$Print$191                        Print
ASxxxx Linker V03.00/V05.40 + sdld,  page 129.
Hexadecimal  [32-Bits]

Area                                    Addr        Size        Decimal Bytes (Attributes)
--------------------------------        ----        ----        ------- ----- ------------
_CODE                               00000200    00002C59 =       11353. bytes (REL,CON)

      Value  Global                              Global Defined In Module
      -----  --------------------------------   ------------------------
     00002CAA  A$Print$192                        Print
     00002CAB  A$Print$193                        Print
     00002CAD  A$Print$194                        Print
     00002CAE  A$Print$195                        Print
     00002CAF  A$Print$196                        Print
     00002CB1  A$Print$197                        Print
     00002CB3  A$Print$198                        Print
     00002CB5  A$Print$199                        Print
     00002CB7  A$Print$200                        Print
     00002CB8  A$Print$201                        Print
     00002CBA  A$Print$203                        Print
     00002CBC  A$Print$204                        Print
     00002CBE  A$Print$205                        Print
     00002CBF  A$Print$207                        Print
     00002CC1  A$Print$211                        Print
     00002CC1  C$Print.c$28$3_0$195               Print
     00002CC2  A$Print$212                        Print
     00002CC4  A$Print$213                        Print
     00002CC6  A$Print$214                        Print
     00002CC7  A$Print$215                        Print
     00002CCA  A$Print$220                        Print
     00002CCA  C$Print.c$30$3_0$196               Print
     00002CCC  A$Print$221                        Print
     00002CCD  A$Print$222                        Print
     00002CCE  A$Print$223                        Print
     00002CCF  A$Print$224                        Print
     00002CD0  A$Print$225                        Print
     00002CD2  A$Print$226                        Print
     00002CD4  A$Print$227                        Print
     00002CD6  A$Print$228                        Print
     00002CD8  A$Print$229                        Print
     00002CDA  A$Print$230                        Print
     00002CDC  A$Print$231                        Print
     00002CDE  A$Print$232                        Print
     00002CE0  A$Print$233                        Print
     00002CE2  A$Print$234                        Print
     00002CE4  A$Print$235                        Print
     00002CE6  A$Print$236                        Print
     00002CE8  A$Print$237                        Print
     00002CEA  A$Print$238                        Print
     00002CEC  A$Print$239                        Print
     00002CEE  A$Print$240                        Print
     00002CF0  A$Print$241                        Print
     00002CF2  A$Print$242                        Print
     00002CF4  A$Print$243                        Print
     00002CF7  A$Print$248                        Print
     00002CF7  C$Print.c$31$4_0$197               Print
     00002CF9  A$Print$249                        Print
     00002CFB  A$Print$250                        Print
     00002CFE  A$Print$255                        Print
     00002CFE  C$Print.c$32$4_0$197               Print
ASxxxx Linker V03.00/V05.40 + sdld,  page 130.
Hexadecimal  [32-Bits]

Area                                    Addr        Size        Decimal Bytes (Attributes)
--------------------------------        ----        ----        ------- ----- ------------
_CODE                               00000200    00002C59 =       11353. bytes (REL,CON)

      Value  Global                              Global Defined In Module
      -----  --------------------------------   ------------------------
     00002D00  A$Print$256                        Print
     00002D02  A$Print$257                        Print
     00002D05  A$Print$262                        Print
     00002D05  C$Print.c$33$4_0$197               Print
     00002D07  A$Print$263                        Print
     00002D09  A$Print$264                        Print
     00002D0C  A$Print$269                        Print
     00002D0C  C$Print.c$34$4_0$197               Print
     00002D0E  A$Print$270                        Print
     00002D10  A$Print$271                        Print
     00002D13  A$Print$276                        Print
     00002D13  C$Print.c$35$4_0$197               Print
     00002D15  A$Print$277                        Print
     00002D17  A$Print$278                        Print
     00002D1A  A$Print$283                        Print
     00002D1A  C$Print.c$36$4_0$197               Print
     00002D1C  A$Print$284                        Print
     00002D1E  A$Print$285                        Print
     00002D21  A$Print$290                        Print
     00002D21  C$Print.c$37$4_0$197               Print
     00002D23  A$Print$291                        Print
     00002D25  A$Print$292                        Print
     00002D28  A$Print$297                        Print
     00002D28  C$Print.c$38$4_0$197               Print
     00002D2A  A$Print$298                        Print
     00002D2C  A$Print$299                        Print
     00002D2F  A$Print$307                        Print
     00002D2F  C$Print.c$39$4_0$197               Print
     00002D2F  C$Print.c$40$4_0$197               Print
     00002D30  A$Print$308                        Print
     00002D31  A$Print$309                        Print
     00002D33  A$Print$310                        Print
     00002D35  A$Print$311                        Print
     00002D37  A$Print$312                        Print
     00002D39  A$Print$313                        Print
     00002D3B  A$Print$314                        Print
     00002D3E  A$Print$315                        Print
     00002D40  A$Print$316                        Print
     00002D42  A$Print$317                        Print
     00002D45  A$Print$325                        Print
     00002D45  C$Print.c$42$5_0$198               Print
     00002D45  C$Print.c$43$5_0$198               Print
     00002D47  A$Print$326                        Print
     00002D48  A$Print$327                        Print
     00002D49  A$Print$328                        Print
     00002D4A  A$Print$329                        Print
     00002D4B  A$Print$330                        Print
     00002D4C  A$Print$331                        Print
     00002D4D  A$Print$332                        Print
     00002D4E  A$Print$333                        Print
     00002D4F  A$Print$334                        Print
ASxxxx Linker V03.00/V05.40 + sdld,  page 131.
Hexadecimal  [32-Bits]

Area                                    Addr        Size        Decimal Bytes (Attributes)
--------------------------------        ----        ----        ------- ----- ------------
_CODE                               00000200    00002C59 =       11353. bytes (REL,CON)

      Value  Global                              Global Defined In Module
      -----  --------------------------------   ------------------------
     00002D50  A$Print$335                        Print
     00002D51  A$Print$336                        Print
     00002D52  A$Print$337                        Print
     00002D53  A$Print$338                        Print
     00002D54  A$Print$339                        Print
     00002D55  A$Print$340                        Print
     00002D56  A$Print$341                        Print
     00002D57  A$Print$342                        Print
     00002D59  A$Print$343                        Print
     00002D5A  A$Print$344                        Print
     00002D5B  A$Print$345                        Print
     00002D5E  A$Print$346                        Print
     00002D5F  A$Print$347                        Print
     00002D60  A$Print$348                        Print
     00002D61  A$Print$349                        Print
     00002D64  A$Print$350                        Print
     00002D66  A$Print$354                        Print
     00002D66  C$Print.c$44$5_0$198               Print
     00002D69  A$Print$355                        Print
     00002D6A  A$Print$356                        Print
     00002D6B  A$Print$357                        Print
     00002D6E  A$Print$358                        Print
     00002D6F  A$Print$362                        Print
     00002D6F  C$Print.c$45$5_0$198               Print
     00002D71  A$Print$363                        Print
     00002D72  A$Print$364                        Print
     00002D73  A$Print$365                        Print
     00002D74  A$Print$366                        Print
     00002D77  A$Print$367                        Print
     00002D78  A$Print$368                        Print
     00002D79  A$Print$369                        Print
     00002D7A  A$Print$370                        Print
     00002D7C  A$Print$371                        Print
     00002D7D  A$Print$372                        Print
     00002D7E  A$Print$373                        Print
     00002D7F  A$Print$374                        Print
     00002D81  A$Print$375                        Print
     00002D82  A$Print$379                        Print
     00002D82  C$Print.c$46$5_0$198               Print
     00002D85  A$Print$387                        Print
     00002D85  C$Print.c$48$5_0$198               Print
     00002D85  C$Print.c$49$5_0$198               Print
     00002D87  A$Print$388                        Print
     00002D88  A$Print$389                        Print
     00002D89  A$Print$390                        Print
     00002D8A  A$Print$391                        Print
     00002D8B  A$Print$392                        Print
     00002D8C  A$Print$393                        Print
     00002D8D  A$Print$394                        Print
     00002D8E  A$Print$395                        Print
     00002D8F  A$Print$396                        Print
ASxxxx Linker V03.00/V05.40 + sdld,  page 132.
Hexadecimal  [32-Bits]

Area                                    Addr        Size        Decimal Bytes (Attributes)
--------------------------------        ----        ----        ------- ----- ------------
_CODE                               00000200    00002C59 =       11353. bytes (REL,CON)

      Value  Global                              Global Defined In Module
      -----  --------------------------------   ------------------------
     00002D90  A$Print$397                        Print
     00002D91  A$Print$398                        Print
     00002D92  A$Print$399                        Print
     00002D93  A$Print$400                        Print
     00002D94  A$Print$401                        Print
     00002D95  A$Print$402                        Print
     00002D96  A$Print$403                        Print
     00002D97  A$Print$404                        Print
     00002D99  A$Print$405                        Print
     00002D9A  A$Print$406                        Print
     00002D9B  A$Print$407                        Print
     00002D9E  A$Print$408                        Print
     00002D9F  A$Print$409                        Print
     00002DA0  A$Print$410                        Print
     00002DA1  A$Print$411                        Print
     00002DA4  A$Print$412                        Print
     00002DA6  A$Print$416                        Print
     00002DA6  C$Print.c$50$5_0$198               Print
     00002DA9  A$Print$417                        Print
     00002DAA  A$Print$418                        Print
     00002DAB  A$Print$419                        Print
     00002DAE  A$Print$420                        Print
     00002DAF  A$Print$424                        Print
     00002DAF  C$Print.c$51$5_0$198               Print
     00002DB1  A$Print$425                        Print
     00002DB2  A$Print$426                        Print
     00002DB3  A$Print$427                        Print
     00002DB4  A$Print$428                        Print
     00002DB7  A$Print$429                        Print
     00002DB8  A$Print$430                        Print
     00002DB9  A$Print$431                        Print
     00002DBA  A$Print$432                        Print
     00002DBC  A$Print$433                        Print
     00002DBD  A$Print$434                        Print
     00002DBE  A$Print$435                        Print
     00002DBF  A$Print$436                        Print
     00002DC1  A$Print$437                        Print
     00002DC2  A$Print$441                        Print
     00002DC2  C$Print.c$52$5_0$198               Print
     00002DC5  A$Print$449                        Print
     00002DC5  C$Print.c$54$5_0$198               Print
     00002DC5  C$Print.c$55$5_0$198               Print
     00002DC7  A$Print$450                        Print
     00002DC8  A$Print$451                        Print
     00002DC9  A$Print$452                        Print
     00002DCA  A$Print$453                        Print
     00002DCB  A$Print$454                        Print
     00002DCC  A$Print$455                        Print
     00002DCD  A$Print$456                        Print
     00002DCE  A$Print$457                        Print
     00002DCF  A$Print$458                        Print
ASxxxx Linker V03.00/V05.40 + sdld,  page 133.
Hexadecimal  [32-Bits]

Area                                    Addr        Size        Decimal Bytes (Attributes)
--------------------------------        ----        ----        ------- ----- ------------
_CODE                               00000200    00002C59 =       11353. bytes (REL,CON)

      Value  Global                              Global Defined In Module
      -----  --------------------------------   ------------------------
     00002DD0  A$Print$459                        Print
     00002DD1  A$Print$460                        Print
     00002DD2  A$Print$461                        Print
     00002DD3  A$Print$462                        Print
     00002DD4  A$Print$463                        Print
     00002DD5  A$Print$464                        Print
     00002DD6  A$Print$465                        Print
     00002DD7  A$Print$466                        Print
     00002DD8  A$Print$467                        Print
     00002DDB  A$Print$468                        Print
     00002DDC  A$Print$472                        Print
     00002DDC  C$Print.c$56$5_0$198               Print
     00002DDE  A$Print$473                        Print
     00002DDF  A$Print$474                        Print
     00002DE0  A$Print$475                        Print
     00002DE1  A$Print$476                        Print
     00002DE4  A$Print$477                        Print
     00002DE5  A$Print$478                        Print
     00002DE6  A$Print$479                        Print
     00002DE7  A$Print$480                        Print
     00002DE9  A$Print$481                        Print
     00002DEA  A$Print$482                        Print
     00002DEB  A$Print$483                        Print
     00002DEC  A$Print$484                        Print
     00002DEE  A$Print$485                        Print
     00002DEF  A$Print$489                        Print
     00002DEF  C$Print.c$57$5_0$198               Print
     00002DF2  A$Print$497                        Print
     00002DF2  C$Print.c$60$2_0$191               Print
     00002DF2  C$Print.c$62$2_0$191               Print
     00002DF5  A$Print$498                        Print
     00002DF6  A$Print$499                        Print
     00002DF8  A$Print$503                        Print
     00002DF8  C$Print.c$63$2_0$191               Print
     00002DFB  A$Print$504                        Print
     00002DFE  A$Print$505                        Print
     00002DFF  A$Print$506                        Print
     00002E01  A$Print$507                        Print
     00002E02  A$Print$508                        Print
     00002E05  A$Print$509                        Print
     00002E08  A$Print$510                        Print
     00002E09  A$Print$511                        Print
     00002E0B  A$Print$512                        Print
     00002E0C  A$Print$513                        Print
     00002E0F  A$Print$514                        Print
     00002E10  A$Print$515                        Print
     00002E12  A$Print$516                        Print
     00002E13  A$Print$517                        Print
     00002E14  A$Print$518                        Print
     00002E15  A$Print$519                        Print
     00002E18  A$Print$520                        Print
ASxxxx Linker V03.00/V05.40 + sdld,  page 134.
Hexadecimal  [32-Bits]

Area                                    Addr        Size        Decimal Bytes (Attributes)
--------------------------------        ----        ----        ------- ----- ------------
_CODE                               00000200    00002C59 =       11353. bytes (REL,CON)

      Value  Global                              Global Defined In Module
      -----  --------------------------------   ------------------------
     00002E19  A$Print$523                        Print
     00002E1C  A$Print$524                        Print
     00002E1D  A$Print$527                        Print
     00002E1E  A$Print$528                        Print
     00002E1F  A$Print$529                        Print
     00002E20  A$Print$530                        Print
     00002E23  A$Print$531                        Print
     00002E26  A$Print$532                        Print
     00002E28  A$Print$537                        Print
     00002E28  C$Print.c$65$2_0$191               Print
     00002E2B  A$Print$538                        Print
     00002E2C  A$Print$539                        Print
     00002E2E  A$Print$540                        Print
     00002E2F  A$Print$541                        Print
     00002E30  A$Print$542                        Print
     00002E31  A$Print$543                        Print
     00002E34  A$Print$544                        Print
     00002E35  A$Print$545                        Print
     00002E36  A$Print$546                        Print
     00002E37  A$Print$547                        Print
     00002E38  A$Print$548                        Print
     00002E3B  A$Print$549                        Print
     00002E3C  A$Print$550                        Print
     00002E3D  A$Print$551                        Print
     00002E40  A$Print$552                        Print
     00002E41  A$Print$553                        Print
     00002E44  A$Print$554                        Print
     00002E47  A$Print$559                        Print
     00002E47  C$Print.c$67$2_0$191               Print
     00002E4A  A$Print$560                        Print
     00002E4B  A$Print$564                        Print
     00002E4B  C$Print.c$68$2_0$191               Print
     00002E4D  A$Print$565                        Print
     00002E4E  A$Print$566                        Print
     00002E51  A$Print$567                        Print
     00002E52  A$Print$568                        Print
     00002E53  A$Print$569                        Print
     00002E56  A$Print$574                        Print
     00002E58  A$Print$579                        Print
     00002E58  C$Print.c$71$1_0$190               Print
     00002E58  XG$Printf$0$0                      Print

ASxxxx Linker V03.00/V05.40 + sdld,  page 135.
Hexadecimal  [32-Bits]

Area                                    Addr        Size        Decimal Bytes (Attributes)
--------------------------------        ----        ----        ------- ----- ------------
_HEADER0                            00000000    00000001 =           1. bytes (ABS,CON)

      Value  Global                              Global Defined In Module
      -----  --------------------------------   ------------------------
     00000020  .call_hl                           Runtime

ASxxxx Linker V03.00/V05.40 + sdld,  page 136.
Hexadecimal  [32-Bits]

Area                                    Addr        Size        Decimal Bytes (Attributes)
--------------------------------        ----        ----        ------- ----- ------------
_HEADER1                            00000000    00000005 =           5. bytes (ABS,CON)

      Value  Global                              Global Defined In Module
      -----  --------------------------------   ------------------------
     00000028  .MemsetSmall                       Runtime

ASxxxx Linker V03.00/V05.40 + sdld,  page 137.
Hexadecimal  [32-Bits]

Area                                    Addr        Size        Decimal Bytes (Attributes)
--------------------------------        ----        ----        ------- ----- ------------
_HEADER2                            00000000    00000007 =           7. bytes (ABS,CON)

      Value  Global                              Global Defined In Module
      -----  --------------------------------   ------------------------
     00000030  .MemcpySmall                       Runtime

ASxxxx Linker V03.00/V05.40 + sdld,  page 138.
Hexadecimal  [32-Bits]

Area                                    Addr        Size        Decimal Bytes (Attributes)
--------------------------------        ----        ----        ------- ----- ------------
_HEADER3                            00000000    00000008 =           8. bytes (ABS,CON)

      Value  Global                              Global Defined In Module
      -----  --------------------------------   ------------------------
ASxxxx Linker V03.00/V05.40 + sdld,  page 139.
Hexadecimal  [32-Bits]

Area                                    Addr        Size        Decimal Bytes (Attributes)
--------------------------------        ----        ----        ------- ----- ------------
_HEADER4                            00000000    0000005C =          92. bytes (ABS,CON)

      Value  Global                              Global Defined In Module
      -----  --------------------------------   ------------------------
     00000080  .int                               Runtime
     0000008F  _wait_int_handler                  Runtime
     0000009C  __standard_VBL_handler             Runtime
     000000AB  _refresh_OAM                       Runtime
     000000CC  .wait_vbl_done                     Runtime
     000000CC  _vsync                             Runtime
     000000CC  _wait_vbl_done                     Runtime

ASxxxx Linker V03.00/V05.40 + sdld,  page 140.
Hexadecimal  [32-Bits]

Area                                    Addr        Size        Decimal Bytes (Attributes)
--------------------------------        ----        ----        ------- ----- ------------
_HEADER5                            00000000    00000001 =           1. bytes (ABS,CON)

      Value  Global                              Global Defined In Module
      -----  --------------------------------   ------------------------
ASxxxx Linker V03.00/V05.40 + sdld,  page 141.
Hexadecimal  [32-Bits]

Area                                    Addr        Size        Decimal Bytes (Attributes)
--------------------------------        ----        ----        ------- ----- ------------
_HEADER6                            00000000    00000002 =           2. bytes (ABS,CON)

      Value  Global                              Global Defined In Module
      -----  --------------------------------   ------------------------
ASxxxx Linker V03.00/V05.40 + sdld,  page 142.
Hexadecimal  [32-Bits]

Area                                    Addr        Size        Decimal Bytes (Attributes)
--------------------------------        ----        ----        ------- ----- ------------
_HEADER7                            00000000    00000030 =          48. bytes (ABS,CON)

      Value  Global                              Global Defined In Module
      -----  --------------------------------   ------------------------
ASxxxx Linker V03.00/V05.40 + sdld,  page 143.
Hexadecimal  [32-Bits]

Area                                    Addr        Size        Decimal Bytes (Attributes)
--------------------------------        ----        ----        ------- ----- ------------
_HEADER8                            00000000    00000006 =           6. bytes (ABS,CON)

      Value  Global                              Global Defined In Module
      -----  --------------------------------   ------------------------
ASxxxx Linker V03.00/V05.40 + sdld,  page 144.
Hexadecimal  [32-Bits]

Area                                    Addr        Size        Decimal Bytes (Attributes)
--------------------------------        ----        ----        ------- ----- ------------
_HEADER9                            00000000    00000003 =           3. bytes (ABS,CON)

      Value  Global                              Global Defined In Module
      -----  --------------------------------   ------------------------
ASxxxx Linker V03.00/V05.40 + sdld,  page 145.
Hexadecimal  [32-Bits]

Area                                    Addr        Size        Decimal Bytes (Attributes)
--------------------------------        ----        ----        ------- ----- ------------
_HEADERa                            00000000    00000001 =           1. bytes (ABS,CON)

      Value  Global                              Global Defined In Module
      -----  --------------------------------   ------------------------
ASxxxx Linker V03.00/V05.40 + sdld,  page 146.
Hexadecimal  [32-Bits]

Area                                    Addr        Size        Decimal Bytes (Attributes)
--------------------------------        ----        ----        ------- ----- ------------
_HEADERb                            00000000    00000001 =           1. bytes (ABS,CON)

      Value  Global                              Global Defined In Module
      -----  --------------------------------   ------------------------
ASxxxx Linker V03.00/V05.40 + sdld,  page 147.
Hexadecimal  [32-Bits]

Area                                    Addr        Size        Decimal Bytes (Attributes)
--------------------------------        ----        ----        ------- ----- ------------
_HEADERc                            00000000    00000001 =           1. bytes (ABS,CON)

      Value  Global                              Global Defined In Module
      -----  --------------------------------   ------------------------
ASxxxx Linker V03.00/V05.40 + sdld,  page 148.
Hexadecimal  [32-Bits]

Area                                    Addr        Size        Decimal Bytes (Attributes)
--------------------------------        ----        ----        ------- ----- ------------
_HEADERd                            00000000    00000002 =           2. bytes (ABS,CON)

      Value  Global                              Global Defined In Module
      -----  --------------------------------   ------------------------
ASxxxx Linker V03.00/V05.40 + sdld,  page 149.
Hexadecimal  [32-Bits]

Area                                    Addr        Size        Decimal Bytes (Attributes)
--------------------------------        ----        ----        ------- ----- ------------
_HEADERe                            00000000    00000001 =           1. bytes (ABS,CON)

      Value  Global                              Global Defined In Module
      -----  --------------------------------   ------------------------
ASxxxx Linker V03.00/V05.40 + sdld,  page 150.
Hexadecimal  [32-Bits]

Area                                    Addr        Size        Decimal Bytes (Attributes)
--------------------------------        ----        ----        ------- ----- ------------
_HEADERf                            00000000    00000001 =           1. bytes (ABS,CON)

      Value  Global                              Global Defined In Module
      -----  --------------------------------   ------------------------
ASxxxx Linker V03.00/V05.40 + sdld,  page 151.
Hexadecimal  [32-Bits]

Area                                    Addr        Size        Decimal Bytes (Attributes)
--------------------------------        ----        ----        ------- ----- ------------
_HEADER10                           00000000    00000002 =           2. bytes (ABS,CON)

      Value  Global                              Global Defined In Module
      -----  --------------------------------   ------------------------
ASxxxx Linker V03.00/V05.40 + sdld,  page 152.
Hexadecimal  [32-Bits]

Area                                    Addr        Size        Decimal Bytes (Attributes)
--------------------------------        ----        ----        ------- ----- ------------
_HEADER11                           00000000    000000AF =         175. bytes (ABS,CON)

      Value  Global                              Global Defined In Module
      -----  --------------------------------   ------------------------
     00000150  .reset                             Runtime
     00000150  _reset                             Runtime
     00000157  .code_start                        Runtime
     000001B9  _exit                              Runtime
     000001BD  _set_interrupts                    Runtime
     000001D1  .remove_VBL                        Runtime
     000001D1  _remove_VBL                        Runtime
     000001D4  .remove_int                        Runtime
     000001F1  .add_VBL                           Runtime
     000001F1  _add_VBL                           Runtime
     000001F4  .add_int                           Runtime

ASxxxx Linker V03.00/V05.40 + sdld,  page 153.
Hexadecimal  [32-Bits]

Area                                    Addr        Size        Decimal Bytes (Attributes)
--------------------------------        ----        ----        ------- ----- ------------
_HOME                               00002E59    000002D2 =         722. bytes (REL,CON)

      Value  Global                              Global Defined In Module
      -----  --------------------------------   ------------------------
     00002E59  .memset_simple                     Runtime
     00002E62  .memcpy_simple                     Runtime
     00002E7F  .display_off                       Runtime
     00002E7F  _display_off                       Runtime
     00002E97  A$StateGame$105                    StateGame
     00002E97  C$StateGame.c$190$1_0$226          StateGame
     00002E97  G$set_banked_bkg_data$0$0          StateGame
     00002E97  _set_banked_bkg_data               StateGame
     00002E98  A$StateGame$106                    StateGame
     00002E99  A$StateGame$107                    StateGame
     00002E9A  A$StateGame$108                    StateGame
     00002E9C  A$StateGame$109                    StateGame
     00002E9D  A$StateGame$113                    StateGame
     00002E9D  C$StateGame.c$191$2_0$226          StateGame
     00002E9E  A$StateGame$114                    StateGame
     00002EA0  A$StateGame$115                    StateGame
     00002EA1  A$StateGame$119                    StateGame
     00002EA1  C$StateGame.c$192$1_0$226          StateGame
     00002EA3  A$StateGame$120                    StateGame
     00002EA4  A$StateGame$121                    StateGame
     00002EA6  A$StateGame$122                    StateGame
     00002EA9  A$StateGame$126                    StateGame
     00002EA9  C$StateGame.c$193$1_0$226          StateGame
     00002EAB  A$StateGame$127                    StateGame
     00002EAC  A$StateGame$128                    StateGame
     00002EAD  A$StateGame$129                    StateGame
     00002EAE  A$StateGame$130                    StateGame
     00002EAF  A$StateGame$133                    StateGame
     00002EB0  A$StateGame$136                    StateGame
     00002EB1  A$StateGame$137                    StateGame
     00002EB2  A$StateGame$138                    StateGame
     00002EB3  A$StateGame$139                    StateGame
     00002EB4  A$StateGame$142                    StateGame
     00002EB6  A$StateGame$145                    StateGame
     00002EB7  A$StateGame$146                    StateGame
     00002EB8  A$StateGame$147                    StateGame
     00002EB9  A$StateGame$148                    StateGame
     00002EBA  A$StateGame$149                    StateGame
     00002EBB  A$StateGame$150                    StateGame
     00002EBC  A$StateGame$151                    StateGame
     00002EBD  A$StateGame$152                    StateGame
     00002EBE  A$StateGame$153                    StateGame
     00002EC0  A$StateGame$154                    StateGame
     00002EC1  A$StateGame$155                    StateGame
     00002EC2  A$StateGame$156                    StateGame
     00002EC3  A$StateGame$157                    StateGame
     00002EC4  A$StateGame$158                    StateGame
     00002EC5  A$StateGame$159                    StateGame
     00002EC6  A$StateGame$160                    StateGame
     00002EC9  A$StateGame$161                    StateGame
ASxxxx Linker V03.00/V05.40 + sdld,  page 154.
Hexadecimal  [32-Bits]

Area                                    Addr        Size        Decimal Bytes (Attributes)
--------------------------------        ----        ----        ------- ----- ------------
_HOME                               00002E59    000002D2 =         722. bytes (REL,CON)

      Value  Global                              Global Defined In Module
      -----  --------------------------------   ------------------------
     00002ECB  A$StateGame$165                    StateGame
     00002ECB  C$StateGame.c$194$1_0$226          StateGame
     00002ECD  A$StateGame$166                    StateGame
     00002ECE  A$StateGame$167                    StateGame
     00002ED0  A$StateGame$168                    StateGame
     00002ED1  A$StateGame$169                    StateGame
     00002ED4  A$StateGame$173                    StateGame
     00002ED4  C$StateGame.c$195$1_0$226          StateGame
     00002ED5  A$StateGame$174                    StateGame
     00002ED6  A$StateGame$175                    StateGame
     00002ED7  A$StateGame$176                    StateGame
     00002ED9  A$StateGame$177                    StateGame
     00002EDA  A$Sprite$63                        Sprite
     00002EDA  C$Sprite.c$53$1_0$186              Sprite
     00002EDA  C$Sprite.c$80$1_0$186              Sprite
     00002EDA  G$update_attr$0$0                  Sprite
     00002EDA  _update_attr                       Sprite
     00002EDC  A$Sprite$64                        Sprite
     00002EDD  A$Sprite$65                        Sprite
     00002EDE  A$Sprite$66                        Sprite
     00002EDF  A$Sprite$67                        Sprite
     00002EE0  A$Sprite$68                        Sprite
     00002EE1  A$Sprite$69                        Sprite
     00002EE2  A$Sprite$70                        Sprite
     00002EE3  A$Sprite$71                        Sprite
     00002EE4  A$Sprite$72                        Sprite
     00002EE5  A$Sprite$73                        Sprite
     00002EE7  A$Sprite$74                        Sprite
     00002EE8  A$Sprite$75                        Sprite
     00002EEB  A$Sprite$76                        Sprite
     00002EEC  A$Sprite$77                        Sprite
     00002EEF  A$Sprite$79                        Sprite
     00002EF0  A$Sprite$80                        Sprite
     00002EF1  A$Sprite$81                        Sprite
     00002EF2  A$Sprite$82                        Sprite
     00002EF3  A$Sprite$83                        Sprite
     00002EF4  A$Sprite$84                        Sprite
     00002EF6  A$Sprite$85                        Sprite
     00002EF7  A$main$95                          main
     00002EF7  C$Sprite.c$81$1_0$186              Sprite
     00002EF7  C$main.c$70$1_0$214                main
     00002EF7  C$main.c$71$1_0$214                main
     00002EF7  G$LCD_isr$0$0                      main
     00002EF7  _LCD_isr                           main
     00002EFA  A$main$96                          main
     00002EFB  A$main$97                          main
     00002EFD  A$main$101                         main
     00002EFD  C$main.c$72$2_0$215                main
     00002F00  A$main$102                         main
     00002F01  A$main$103                         main
     00002F03  A$main$107                         main
ASxxxx Linker V03.00/V05.40 + sdld,  page 155.
Hexadecimal  [32-Bits]

Area                                    Addr        Size        Decimal Bytes (Attributes)
--------------------------------        ----        ----        ------- ----- ------------
_HOME                               00002E59    000002D2 =         722. bytes (REL,CON)

      Value  Global                              Global Defined In Module
      -----  --------------------------------   ------------------------
     00002F03  C$main.c$73$3_0$216                main
     00002F05  A$main$108                         main
     00002F07  A$main$109                         main
     00002F09  A$main$110                         main
     00002F0A  A$main$115                         main
     00002F0A  C$main.c$75$3_0$217                main
     00002F0C  A$main$116                         main
     00002F0E  A$main$117                         main
     00002F10  A$main$121                         main
     00002F10  C$main.c$76$3_0$217                main
     00002F12  A$main$122                         main
     00002F13  A$main$123                         main
     00002F15  A$main$124                         main
     00002F16  A$main$129                         main
     00002F16  C$main.c$79$2_0$218                main
     00002F18  A$main$130                         main
     00002F1A  A$main$131                         main
     00002F1C  A$main$135                         main
     00002F1C  C$main.c$80$2_0$218                main
     00002F1D  A$main$136                         main
     00002F1F  A$main$144                         main
     00002F1F  C$main.c$82$1_0$214                main
     00002F1F  XG$LCD_isr$0$0                     main
     00002F20  A$Music$75                         Music
     00002F20  C$Music.c$8$0_0$142                Music
     00002F20  C$Music.c$9$1_0$142                Music
     00002F20  G$MusicCallback$0$0                Music
     00002F20  _MusicCallback                     Music
     00002F23  A$Music$76                         Music
     00002F24  A$Music$80                         Music
     00002F24  C$Music.c$10$1_0$142               Music
     00002F25  A$Music$84                         Music
     00002F25  C$Music.c$12$2_0$143               Music
     00002F27  A$Music$85                         Music
     00002F28  A$Music$89                         Music
     00002F28  C$Music.c$13$1_1$142               Music
     00002F2B  A$Music$90                         Music
     00002F2D  A$Music$91                         Music
     00002F30  A$Music$95                         Music
     00002F30  C$Music.c$14$1_1$143               Music
     00002F31  A$Music$96                         Music
     00002F34  A$Music$97                         Music
     00002F35  A$Music$101                        Music
     00002F35  C$Music.c$15$1_1$143               Music
     00002F36  A$Music$102                        Music
     00002F38  A$Music$103                        Music
     00002F3B  A$Music$104                        Music
     00002F3C  A$Music$112                        Music
     00002F3C  C$Music.c$16$1_1$142               Music
     00002F3C  XG$MusicCallback$0$0               Music
     00002F3D  A$BankManager$61                   BankManager
ASxxxx Linker V03.00/V05.40 + sdld,  page 156.
Hexadecimal  [32-Bits]

Area                                    Addr        Size        Decimal Bytes (Attributes)
--------------------------------        ----        ----        ------- ----- ------------
_HOME                               00002E59    000002D2 =         722. bytes (REL,CON)

      Value  Global                              Global Defined In Module
      -----  --------------------------------   ------------------------
     00002F3D  C$BankManager.c$5$0_0$126          BankManager
     00002F3D  G$empty$0$0                        BankManager
     00002F3D  XG$empty$0$0                       BankManager
     00002F3D  _empty                             BankManager
     00002F3E  _set_tile_data                     
     00002F43  _set_bkg_data                      
     00002F43  _set_win_data                      
     00002F4B  _set_sprite_data                   
     00002F81  _add_low_priority_TIM              
     00002F84  .add_TIM                           
     00002F8A  .remove_TIM                        
     00002F8A  _remove_TIM                        
     00002F90  .padup                             
     00002F90  _waitpadup                         
     00002FA0  .jpad                              
     00002FA0  _joypad                            
     00002FC8  _waitpad                           
     00002FC9  .wait_pad                          
     00002FD0  ___sdcc_call_hl                    call_hl
     00002FD1  _memset                            memset
     00003004  .delay                             
     00003004  _delay                             
     00003030  ___sdcc_bcall_ehl                  
     00003079  .add_LCD                           
     00003079  _add_LCD                           
     0000307F  .remove_LCD                        
     0000307F  _remove_LCD                        
     00003085  _uitoa                             itoa
     00003094  _itoa                              itoa
     000030A3  .itoa                              itoa
     000030B7  .utoa                              itoa
ASxxxx Linker V03.00/V05.40 + sdld,  page 157.
Hexadecimal  [32-Bits]

Area                                    Addr        Size        Decimal Bytes (Attributes)
--------------------------------        ----        ----        ------- ----- ------------
_INITIALIZER                        0000312B    00000080 =         128. bytes (REL,CON)

      Value  Global                              Global Defined In Module
      -----  --------------------------------   ------------------------
     0000312B  FSpriteHorse$__xinit_velocity_co   SpriteHorse
     0000312C  FSpriteHorse$__xinit_velocity$0_   SpriteHorse
     0000312D  FSpriteHorse$__xinit_vy$0_0$0      SpriteHorse
     0000312E  FSpriteHorse$__xinit_vx$0_0$0      SpriteHorse
     0000312F  FSpriteHorse$__xinit_frm_skip$0_   SpriteHorse
     00003130  FSpriteHorse$__xinit_whip_power_   SpriteHorse
     00003131  FSpriteHorse$__xinit_whip_counte   SpriteHorse
     00003132  FSpriteHorse$__xinit_whip_counte   SpriteHorse
     00003133  FSpriteHorse$__xinit_euphoria_mi   SpriteHorse
     00003135  FSpriteHorse$__xinit_euphoria_ma   SpriteHorse
     00003137  FSpriteHorse$__xinit_stamina_cur   SpriteHorse
     00003139  FSpriteHorse$__xinit_stamina_ver   SpriteHorse
     0000313A  FSpriteHorse$__xinit_no_whip_cou   SpriteHorse
     0000313B  FSpriteHorse$__xinit_no_whip_ove   SpriteHorse
     0000313C  FSpriteHorse$__xinit_no_whip_cou   SpriteHorse
     0000313D  FSpriteHorse$__xinit_turn$0_0$0    SpriteHorse
     0000313E  FSpriteHorse$__xinit_sin$0_0$0     SpriteHorse
     0000313F  FSpriteHorse$__xinit_cos$0_0$0     SpriteHorse
     00003140  FSpriteHorse$__xinit_turn_samepr   SpriteHorse
     00003141  FSpriteHorse$__xinit_past_coll_t   SpriteHorse
     00003142  FSpriteHorse$__xinit_turn_verse$   SpriteHorse
     00003143  FSpriteHorse$__xinit_orme_spawne   SpriteHorse
     00003144  FStateGame$__xinit_s_horse$0_0$0   StateGame
     00003146  FStateGame$__xinit_s_biga$0_0$0    StateGame
     00003148  FStateGame$__xinit_s_compass$0_0   StateGame
     0000314A  FStateGame$__xinit_euphoria_min_   StateGame
     0000314C  FStateGame$__xinit_euphoria_max_   StateGame
     0000314E  FStateGame$__xinit_horse_directi   StateGame
     0000314F  FStateGame$__xinit_horse_directi   StateGame
     00003150  FStateGame$__xinit_hp_current$0_   StateGame
     00003151  FZGBMain$__xinit_next_state$0_0$   ZGBMain
     00003152  FZGBMain$__xinit_J_WHIP$0_0$0      ZGBMain
     00003153  FZGBMain$__xinit_J_ATK$0_0$0       ZGBMain
     00003154  Fmain$__xinit_state_running$0_0$   main
     00003155  Fmain$__xinit_vbl_count$0_0$0      main
     00003156  Fmain$__xinit_music_mute_frames$   main
     00003157  Fmain$__xinit_default_palette$0_   main
     0000315F  FScroll$__xinit_scroll_top_movem   Scroll
     00003160  FScroll$__xinit_scroll_bottom_mo   Scroll
     00003161  FScroll$__xinit_scroll_map$0_0$0   Scroll
     00003163  FScroll$__xinit_scroll_cmap$0_0$   Scroll
     00003165  FScroll$__xinit_scroll_x$0_0$0     Scroll
     00003167  FScroll$__xinit_scroll_y$0_0$0     Scroll
     00003169  FScroll$__xinit_scroll_x_vblank$   Scroll
     0000316A  FScroll$__xinit_scroll_y_vblank$   Scroll
     0000316B  FScroll$__xinit_scroll_target$0_   Scroll
     0000316D  FScroll$__xinit_scroll_offset_x$   Scroll
     0000316E  FScroll$__xinit_scroll_offset_y$   Scroll
     0000316F  FScroll$__xinit_pending_h_map$0_   Scroll
     00003171  FScroll$__xinit_pending_w_map$0_   Scroll
ASxxxx Linker V03.00/V05.40 + sdld,  page 158.
Hexadecimal  [32-Bits]

Area                                    Addr        Size        Decimal Bytes (Attributes)
--------------------------------        ----        ----        ------- ----- ------------
_INITIALIZER                        0000312B    00000080 =         128. bytes (REL,CON)

      Value  Global                              Global Defined In Module
      -----  --------------------------------   ------------------------
     00003173  FScroll$__xinit_last_tile_loaded   Scroll
     00003174  FScroll$__xinit_last_bg_pal_load   Scroll
     00003175  FScroll$__xinit_scroll_h_border$   Scroll
     00003176  FScroll$__xinit_clamp_enabled$0_   Scroll
     00003177  FMusic$__xinit_hUGE_paused$0_0$0   Music
     00003178  FMusic$__xinit_last_music$0_0$0    Music
     0000317A  FMusic$__xinit_stop_music_on_new   Music
     0000317B  FBankManager$__xinit_bank_stack$   BankManager
     0000317D  FSpriteManager$__xinit_sprite_ma   SpriteManager
     0000317F  FSpriteManager$__xinit_sprite_ma   SpriteManager
     00003194  FSpriteManager$__xinit_last_spri   SpriteManager
     00003196  FSpriteManager$__xinit_last_spri   SpriteManager
     00003197  FSpriteManager$__xinit_THIS_IDX$   SpriteManager
     00003198  FSpriteManager$__xinit_THIS$0_0$   SpriteManager
     0000319A  FOAMManager$__xinit_next_oam_idx   OAMManager
     0000319B  FOAMManager$__xinit_oam$0_0$0      OAMManager
     0000319D  FOAMManager$__xinit_oam0$0_0$0     OAMManager
     0000319F  FOAMManager$__xinit_oam1$0_0$0     OAMManager
     000031A1  FOAMManager$__xinit_oam_end$0_0$   OAMManager
     000031A3  FKeys$__xinit_previous_keys$0_0$   Keys
     000031A4  FKeys$__xinit_keys$0_0$0           Keys
     000031A6  FPrint$__xinit_print_x$0_0$0       Print
     000031A7  FPrint$__xinit_print_y$0_0$0       Print
     000031A8  FPrint$__xinit_print_target$0_0$   Print
     000031A9  FPrint$__xinit_font_offset$0_0$0   Print
ASxxxx Linker V03.00/V05.40 + sdld,  page 159.
Hexadecimal  [32-Bits]

Area                                    Addr        Size        Decimal Bytes (Attributes)
--------------------------------        ----        ----        ------- ----- ------------
_GSINIT                             000031AB    0000000C =          12. bytes (REL,CON)

      Value  Global                              Global Defined In Module
      -----  --------------------------------   ------------------------
     000031AB  gsinit                             Runtime

ASxxxx Linker V03.00/V05.40 + sdld,  page 160.
Hexadecimal  [32-Bits]

Area                                    Addr        Size        Decimal Bytes (Attributes)
--------------------------------        ----        ----        ------- ----- ------------
_GSFINAL                            000031B7    00000001 =           1. bytes (REL,CON)

      Value  Global                              Global Defined In Module
      -----  --------------------------------   ------------------------
ASxxxx Linker V03.00/V05.40 + sdld,  page 161.
Hexadecimal  [32-Bits]

Area                                    Addr        Size        Decimal Bytes (Attributes)
--------------------------------        ----        ----        ------- ----- ------------
_DATA                               0000C0A0    00000789 =        1929. bytes (REL,CON)

      Value  Global                              Global Defined In Module
      -----  --------------------------------   ------------------------
     0000C0A0  __cpu                              Runtime
     0000C0A1  __is_GBA                           Runtime
     0000C0A2  .mode                              Runtime
     0000C0A3  .sys_time                          Runtime
     0000C0A3  _sys_time                          Runtime
     0000C0A5  .int_0x40                          Runtime
     0000C0CD  _hUGE_current_wave                 hUGEDriver_obj
     0000C0CD  hUGE_current_wave                  hUGEDriver_obj
     0000C0CE  _hUGE_mute_mask                    hUGEDriver_obj
     0000C115  G$tile_coll$0_0$0                  Sprite
     0000C115  _tile_coll                         Sprite
     0000C117  G$delta_time$0_0$0                 main
     0000C117  _delta_time                        main
     0000C118  G$current_state$0_0$0              main
     0000C118  _current_state                     main
     0000C119  G$scroll_w$0_0$0                   Scroll
     0000C119  _scroll_w                          Scroll
     0000C11B  G$scroll_h$0_0$0                   Scroll
     0000C11B  _scroll_h                          Scroll
     0000C11D  G$scroll_tiles_w$0_0$0             Scroll
     0000C11D  _scroll_tiles_w                    Scroll
     0000C11F  G$scroll_tiles_h$0_0$0             Scroll
     0000C11F  _scroll_tiles_h                    Scroll
     0000C121  G$scroll_collisions$0_0$0          Scroll
     0000C121  _scroll_collisions                 Scroll
     0000C221  G$scroll_collisions_down$0_0$0     Scroll
     0000C221  _scroll_collisions_down            Scroll
     0000C321  G$scroll_tile_info$0_0$0           Scroll
     0000C321  _scroll_tile_info                  Scroll
     0000C421  G$scroll_bank$0_0$0                Scroll
     0000C421  _scroll_bank                       Scroll
     0000C422  G$pending_h_x$0_0$0                Scroll
     0000C422  _pending_h_x                       Scroll
     0000C424  G$pending_h_y$0_0$0                Scroll
     0000C424  _pending_h_y                       Scroll
     0000C426  G$pending_h_i$0_0$0                Scroll
     0000C426  _pending_h_i                       Scroll
     0000C427  G$pending_w_x$0_0$0                Scroll
     0000C427  _pending_w_x                       Scroll
     0000C429  G$pending_w_y$0_0$0                Scroll
     0000C429  _pending_w_y                       Scroll
     0000C42B  G$pending_w_i$0_0$0                Scroll
     0000C42B  _pending_w_i                       Scroll
     0000C42C  G$hud_map_offset$0_0$0             Scroll
     0000C42C  _hud_map_offset                    Scroll
     0000C42E  G$tiles_bank_0$0_0$0               Scroll
     0000C42E  _tiles_bank_0                      Scroll
     0000C42F  G$tiles_0$0_0$0                    Scroll
     0000C42F  _tiles_0                           Scroll
     0000C431  G$current_vbl_count$0_0$0          Scroll
ASxxxx Linker V03.00/V05.40 + sdld,  page 162.
Hexadecimal  [32-Bits]

Area                                    Addr        Size        Decimal Bytes (Attributes)
--------------------------------        ----        ----        ------- ----- ------------
_DATA                               0000C0A0    00000789 =        1929. bytes (REL,CON)

      Value  Global                              Global Defined In Module
      -----  --------------------------------   ------------------------
     0000C431  _current_vbl_count                 Scroll
     0000C432  G$ZGB_Fading_BPal$0_0$0            Fade_b
     0000C432  _ZGB_Fading_BPal                   Fade_b
     0000C472  G$ZGB_Fading_SPal$0_0$0            Fade_b
     0000C472  _ZGB_Fading_SPal                   Fade_b
     0000C4B2  G$hUGE_current_track$0_0$0         Music
     0000C4B2  _hUGE_current_track                Music
     0000C4B4  G$hUGE_current_track_bank$0_0$0    Music
     0000C4B4  _hUGE_current_track_bank           Music
     0000C4B5  G$bank_stackSTACK$0_0$0            BankManager
     0000C4B5  _bank_stackSTACK                   BankManager
     0000C4BF  G$stateBanks$0_0$0                 ZGBMain_Init
     0000C4BF  _stateBanks                        ZGBMain_Init
     0000C4C0  G$startFuncs$0_0$0                 ZGBMain_Init
     0000C4C0  _startFuncs                        ZGBMain_Init
     0000C4C2  G$updateFuncs$0_0$0                ZGBMain_Init
     0000C4C2  _updateFuncs                       ZGBMain_Init
     0000C4C4  G$spriteBanks$0_0$0                ZGBMain_Init
     0000C4C4  _spriteBanks                       ZGBMain_Init
     0000C4CB  G$spriteDataBanks$0_0$0            ZGBMain_Init
     0000C4CB  _spriteDataBanks                   ZGBMain_Init
     0000C4D2  G$spriteStartFuncs$0_0$0           ZGBMain_Init
     0000C4D2  _spriteStartFuncs                  ZGBMain_Init
     0000C4E0  G$spriteUpdateFuncs$0_0$0          ZGBMain_Init
     0000C4E0  _spriteUpdateFuncs                 ZGBMain_Init
     0000C4EE  G$spriteDestroyFuncs$0_0$0         ZGBMain_Init
     0000C4EE  _spriteDestroyFuncs                ZGBMain_Init
     0000C4FC  G$spriteDatas$0_0$0                ZGBMain_Init
     0000C4FC  _spriteDatas                       ZGBMain_Init
     0000C50A  G$spriteIdxs$0_0$0                 ZGBMain_Init
     0000C50A  _spriteIdxs                        ZGBMain_Init
     0000C511  G$spritePalsOffset$0_0$0           ZGBMain_Init
     0000C511  _spritePalsOffset                  ZGBMain_Init
     0000C518  G$sprite_manager_sprites_mem$0_0   SpriteManager
     0000C518  _sprite_manager_sprites_mem        SpriteManager
     0000C7D4  G$sprite_manager_sprites$0_0$0     SpriteManager
     0000C7D4  _sprite_manager_sprites            SpriteManager
     0000C7FC  G$sprite_manager_sprites_poolSTA   SpriteManager
     0000C7FC  _sprite_manager_sprites_poolSTAC   SpriteManager
     0000C810  G$sprite_manager_removal_check$0   SpriteManager
     0000C810  _sprite_manager_removal_check      SpriteManager
     0000C811  G$cachedSprite$0_0$0               SpriteManager
     0000C811  _cachedSprite                      SpriteManager
     0000C813  .int_0x50                          
     0000C81D  ___current_metasprite              Metasprites
     0000C81F  ___current_base_tile               Metasprites
     0000C820  ___current_base_prop               Metasprites
     0000C821  .int_0x48                          

ASxxxx Linker V03.00/V05.40 + sdld,  page 163.
Hexadecimal  [32-Bits]

Area                                    Addr        Size        Decimal Bytes (Attributes)
--------------------------------        ----        ----        ------- ----- ------------
_INITIALIZED                        0000C829    00000080 =         128. bytes (REL,CON)

      Value  Global                              Global Defined In Module
      -----  --------------------------------   ------------------------
     0000C829  G$velocity_counter$0_0$0           SpriteHorse
     0000C829  _velocity_counter                  SpriteHorse
     0000C82A  G$velocity$0_0$0                   SpriteHorse
     0000C82A  _velocity                          SpriteHorse
     0000C82B  G$vy$0_0$0                         SpriteHorse
     0000C82B  _vy                                SpriteHorse
     0000C82C  G$vx$0_0$0                         SpriteHorse
     0000C82C  _vx                                SpriteHorse
     0000C82D  G$frm_skip$0_0$0                   SpriteHorse
     0000C82D  _frm_skip                          SpriteHorse
     0000C82E  G$whip_power_over_stamina$0_0$0    SpriteHorse
     0000C82E  _whip_power_over_stamina           SpriteHorse
     0000C82F  G$whip_counter$0_0$0               SpriteHorse
     0000C82F  _whip_counter                      SpriteHorse
     0000C830  G$whip_counter_max$0_0$0           SpriteHorse
     0000C830  _whip_counter_max                  SpriteHorse
     0000C831  G$euphoria_min$0_0$0               SpriteHorse
     0000C831  _euphoria_min                      SpriteHorse
     0000C833  G$euphoria_max$0_0$0               SpriteHorse
     0000C833  _euphoria_max                      SpriteHorse
     0000C835  G$stamina_current$0_0$0            SpriteHorse
     0000C835  _stamina_current                   SpriteHorse
     0000C837  G$stamina_verso$0_0$0              SpriteHorse
     0000C837  _stamina_verso                     SpriteHorse
     0000C838  G$no_whip_counter$0_0$0            SpriteHorse
     0000C838  _no_whip_counter                   SpriteHorse
     0000C839  G$no_whip_over_stamina$0_0$0       SpriteHorse
     0000C839  _no_whip_over_stamina              SpriteHorse
     0000C83A  G$no_whip_counter_max$0_0$0        SpriteHorse
     0000C83A  _no_whip_counter_max               SpriteHorse
     0000C83B  G$turn$0_0$0                       SpriteHorse
     0000C83B  _turn                              SpriteHorse
     0000C83C  G$sin$0_0$0                        SpriteHorse
     0000C83C  _sin                               SpriteHorse
     0000C83D  G$cos$0_0$0                        SpriteHorse
     0000C83D  _cos                               SpriteHorse
     0000C83E  G$turn_samepressure_counter$0_0$   SpriteHorse
     0000C83E  _turn_samepressure_counter         SpriteHorse
     0000C83F  G$past_coll_tile$0_0$0             SpriteHorse
     0000C83F  _past_coll_tile                    SpriteHorse
     0000C840  G$turn_verse$0_0$0                 SpriteHorse
     0000C840  _turn_verse                        SpriteHorse
     0000C841  G$orme_spawned$0_0$0               SpriteHorse
     0000C841  _orme_spawned                      SpriteHorse
     0000C842  G$s_horse$0_0$0                    StateGame
     0000C842  _s_horse                           StateGame
     0000C844  G$s_biga$0_0$0                     StateGame
     0000C844  _s_biga                            StateGame
     0000C846  G$s_compass$0_0$0                  StateGame
     0000C846  _s_compass                         StateGame
ASxxxx Linker V03.00/V05.40 + sdld,  page 164.
Hexadecimal  [32-Bits]

Area                                    Addr        Size        Decimal Bytes (Attributes)
--------------------------------        ----        ----        ------- ----- ------------
_INITIALIZED                        0000C829    00000080 =         128. bytes (REL,CON)

      Value  Global                              Global Defined In Module
      -----  --------------------------------   ------------------------
     0000C848  G$euphoria_min_current$0_0$0       StateGame
     0000C848  _euphoria_min_current              StateGame
     0000C84A  G$euphoria_max_current$0_0$0       StateGame
     0000C84A  _euphoria_max_current              StateGame
     0000C84C  G$horse_direction$0_0$0            StateGame
     0000C84C  _horse_direction                   StateGame
     0000C84D  G$horse_direction_old$0_0$0        StateGame
     0000C84D  _horse_direction_old               StateGame
     0000C84E  G$hp_current$0_0$0                 StateGame
     0000C84E  _hp_current                        StateGame
     0000C84F  G$next_state$0_0$0                 ZGBMain
     0000C84F  _next_state                        ZGBMain
     0000C850  G$J_WHIP$0_0$0                     ZGBMain
     0000C850  _J_WHIP                            ZGBMain
     0000C851  G$J_ATK$0_0$0                      ZGBMain
     0000C851  _J_ATK                             ZGBMain
     0000C852  G$state_running$0_0$0              main
     0000C852  _state_running                     main
     0000C853  G$vbl_count$0_0$0                  main
     0000C853  _vbl_count                         main
     0000C854  G$music_mute_frames$0_0$0          main
     0000C854  _music_mute_frames                 main
     0000C855  G$default_palette$0_0$0            main
     0000C855  _default_palette                   main
     0000C85D  G$scroll_top_movement_limit$0_0$   Scroll
     0000C85D  _scroll_top_movement_limit         Scroll
     0000C85E  G$scroll_bottom_movement_limit$0   Scroll
     0000C85E  _scroll_bottom_movement_limit      Scroll
     0000C85F  G$scroll_map$0_0$0                 Scroll
     0000C85F  _scroll_map                        Scroll
     0000C861  G$scroll_cmap$0_0$0                Scroll
     0000C861  _scroll_cmap                       Scroll
     0000C863  G$scroll_x$0_0$0                   Scroll
     0000C863  _scroll_x                          Scroll
     0000C865  G$scroll_y$0_0$0                   Scroll
     0000C865  _scroll_y                          Scroll
     0000C867  G$scroll_x_vblank$0_0$0            Scroll
     0000C867  _scroll_x_vblank                   Scroll
     0000C868  G$scroll_y_vblank$0_0$0            Scroll
     0000C868  _scroll_y_vblank                   Scroll
     0000C869  G$scroll_target$0_0$0              Scroll
     0000C869  _scroll_target                     Scroll
     0000C86B  G$scroll_offset_x$0_0$0            Scroll
     0000C86B  _scroll_offset_x                   Scroll
     0000C86C  G$scroll_offset_y$0_0$0            Scroll
     0000C86C  _scroll_offset_y                   Scroll
     0000C86D  G$pending_h_map$0_0$0              Scroll
     0000C86D  _pending_h_map                     Scroll
     0000C86F  G$pending_w_map$0_0$0              Scroll
     0000C86F  _pending_w_map                     Scroll
     0000C871  G$last_tile_loaded$0_0$0           Scroll
ASxxxx Linker V03.00/V05.40 + sdld,  page 165.
Hexadecimal  [32-Bits]

Area                                    Addr        Size        Decimal Bytes (Attributes)
--------------------------------        ----        ----        ------- ----- ------------
_INITIALIZED                        0000C829    00000080 =         128. bytes (REL,CON)

      Value  Global                              Global Defined In Module
      -----  --------------------------------   ------------------------
     0000C871  _last_tile_loaded                  Scroll
     0000C872  G$last_bg_pal_loaded$0_0$0         Scroll
     0000C872  _last_bg_pal_loaded                Scroll
     0000C873  G$scroll_h_border$0_0$0            Scroll
     0000C873  _scroll_h_border                   Scroll
     0000C874  G$clamp_enabled$0_0$0              Scroll
     0000C874  _clamp_enabled                     Scroll
     0000C875  G$hUGE_paused$0_0$0                Music
     0000C875  _hUGE_paused                       Music
     0000C876  G$last_music$0_0$0                 Music
     0000C876  _last_music                        Music
     0000C878  G$stop_music_on_new_state$0_0$0    Music
     0000C878  _stop_music_on_new_state           Music
     0000C879  G$bank_stack$0_0$0                 BankManager
     0000C879  _bank_stack                        BankManager
     0000C87B  G$sprite_manager_sprites_pool$0_   SpriteManager
     0000C87B  _sprite_manager_sprites_pool       SpriteManager
     0000C87D  G$sprite_manager_updatables$0_0$   SpriteManager
     0000C87D  _sprite_manager_updatables         SpriteManager
     0000C892  G$last_sprite_loaded$0_0$0         SpriteManager
     0000C892  _last_sprite_loaded                SpriteManager
     0000C894  G$last_sprite_pal_loaded$0_0$0     SpriteManager
     0000C894  _last_sprite_pal_loaded            SpriteManager
     0000C895  G$THIS_IDX$0_0$0                   SpriteManager
     0000C895  _THIS_IDX                          SpriteManager
     0000C896  G$THIS$0_0$0                       SpriteManager
     0000C896  _THIS                              SpriteManager
     0000C898  G$next_oam_idx$0_0$0               OAMManager
     0000C898  _next_oam_idx                      OAMManager
     0000C899  G$oam$0_0$0                        OAMManager
     0000C899  _oam                               OAMManager
     0000C89B  G$oam0$0_0$0                       OAMManager
     0000C89B  _oam0                              OAMManager
     0000C89D  G$oam1$0_0$0                       OAMManager
     0000C89D  _oam1                              OAMManager
     0000C89F  G$oam_end$0_0$0                    OAMManager
     0000C89F  _oam_end                           OAMManager
     0000C8A1  G$previous_keys$0_0$0              Keys
     0000C8A1  _previous_keys                     Keys
     0000C8A2  G$keys$0_0$0                       Keys
     0000C8A2  _keys                              Keys
     0000C8A3  ___render_shadow_OAM               Metasprites
     0000C8A4  G$print_x$0_0$0                    Print
     0000C8A4  _print_x                           Print
     0000C8A5  G$print_y$0_0$0                    Print
     0000C8A5  _print_y                           Print
     0000C8A6  G$print_target$0_0$0               Print
     0000C8A6  _print_target                      Print
     0000C8A7  G$font_offset$0_0$0                Print
     0000C8A7  _font_offset                       Print

ASxxxx Linker V03.00/V05.40 + sdld,  page 166.
Hexadecimal  [32-Bits]

Area                                    Addr        Size        Decimal Bytes (Attributes)
--------------------------------        ----        ----        ------- ----- ------------
_HRAM12                             00000000    00000003 =           3. bytes (ABS,CON)

      Value  Global                              Global Defined In Module
      -----  --------------------------------   ------------------------
     0000FF90  __current_bank                     Runtime
     0000FF92  __shadow_OAM_base                  Runtime

ASxxxx Linker V03.00/V05.40 + sdld,  page 167.
Hexadecimal  [32-Bits]

Area                                    Addr        Size        Decimal Bytes (Attributes)
--------------------------------        ----        ----        ------- ----- ------------
_CODE_2                             00024000    00003FF1 =       16369. bytes (REL,CON)

      Value  Global                              Global Defined In Module
      -----  --------------------------------   ------------------------
     00024000  G$hudm_map$0_0$0                   hudm_gbm
     00024000  _hudm_map                          hudm_gbm
     00024064  G$hudm$0_0$0                       hudm_gbm
     00024064  _hudm                              hudm_gbm
     0002406D  G$maprome_map_map$0_0$0            maprome_gbm
     0002406D  _maprome_map_map                   maprome_gbm
     00024261  G$maprome_map$0_0$0                maprome_gbm
     00024261  _maprome_map                       maprome_gbm
     0002426A  G$font_tiles$0_0$0                 font_gbr
     0002426A  _font_tiles                        font_gbr
     0002453A  G$font$0_0$0                       font_gbr
     0002453A  _font                              font_gbr
     00024542  G$hudt_palettes$0_0$0              hudt_gbr
     00024542  _hudt_palettes                     hudt_gbr
     0002455A  G$hudtCGB$0_0$0                    hudt_gbr
     0002455A  _hudtCGB                           hudt_gbr
     000245A8  G$hudt_tiles$0_0$0                 hudt_gbr
     000245A8  _hudt_tiles                        hudt_gbr
     00024A88  G$hudt$0_0$0                       hudt_gbr
     00024A88  _hudt                              hudt_gbr
     00024A90  G$hudtdifcoat_tiles$0_0$0          hudtdifcoat_gbr
     00024A90  _hudtdifcoat_tiles                 hudtdifcoat_gbr
     00024C50  G$hudtdifcoat$0_0$0                hudtdifcoat_gbr
     00024C50  _hudtdifcoat                       hudtdifcoat_gbr
     00024C58  G$hudtdifelmet_tiles$0_0$0         hudtdifelmet_gbr
     00024C58  _hudtdifelmet_tiles                hudtdifelmet_gbr
     00024E18  G$hudtdifelmet$0_0$0               hudtdifelmet_gbr
     00024E18  _hudtdifelmet                      hudtdifelmet_gbr
     00024E20  G$mapcircuit_tiles_palettes$0_0$   tiles_gbr
     00024E20  _mapcircuit_tiles_palettes         tiles_gbr
     00024E28  G$mapcircuit_tilesCGB$0_0$0        tiles_gbr
     00024E28  _mapcircuit_tilesCGB               tiles_gbr
     00024EA8  G$mapcircuit_tiles_tiles$0_0$0     tiles_gbr
     00024EA8  _mapcircuit_tiles_tiles            tiles_gbr
     000256A8  G$mapcircuit_tiles$0_0$0           tiles_gbr
     000256A8  _mapcircuit_tiles                  tiles_gbr
     000256B0  C$biga.gbr.c$9$0_0$161             biga_gbr
     000256B0  G$__func_biga$0$0                  biga_gbr
     000256B0  G$biga_palettes$0_0$0              biga_gbr
     000256B0  ___func_biga                       biga_gbr
     000256B0  _biga_palettes                     biga_gbr
     000256B8  G$biga_tiles$0_0$0                 biga_gbr
     000256B8  _biga_tiles                        biga_gbr
     00025878  G$biga_metasprite0$0_0$0           biga_gbr
     00025878  _biga_metasprite0                  biga_gbr
     0002587C  G$biga_metasprite1$0_0$0           biga_gbr
     0002587C  _biga_metasprite1                  biga_gbr
     00025888  G$biga_metasprite2$0_0$0           biga_gbr
     00025888  _biga_metasprite2                  biga_gbr
     00025894  G$biga_metasprite3$0_0$0           biga_gbr
ASxxxx Linker V03.00/V05.40 + sdld,  page 168.
Hexadecimal  [32-Bits]

Area                                    Addr        Size        Decimal Bytes (Attributes)
--------------------------------        ----        ----        ------- ----- ------------
_CODE_2                             00024000    00003FF1 =       16369. bytes (REL,CON)

      Value  Global                              Global Defined In Module
      -----  --------------------------------   ------------------------
     00025894  _biga_metasprite3                  biga_gbr
     000258A0  G$biga_metasprite4$0_0$0           biga_gbr
     000258A0  _biga_metasprite4                  biga_gbr
     000258AC  G$biga_metasprite5$0_0$0           biga_gbr
     000258AC  _biga_metasprite5                  biga_gbr
     000258B8  G$biga_metasprite6$0_0$0           biga_gbr
     000258B8  _biga_metasprite6                  biga_gbr
     000258C4  G$biga_metasprite7$0_0$0           biga_gbr
     000258C4  _biga_metasprite7                  biga_gbr
     000258D0  G$biga_metasprites$0_0$0           biga_gbr
     000258D0  _biga_metasprites                  biga_gbr
     000258E0  G$biga$0_0$0                       biga_gbr
     000258E0  _biga                              biga_gbr
     000258EB  C$fire.gbr.c$9$0_0$161             fire_gbr
     000258EB  G$__func_fire$0$0                  fire_gbr
     000258EB  G$fire_palettes$0_0$0              fire_gbr
     000258EB  ___func_fire                       fire_gbr
     000258EB  _fire_palettes                     fire_gbr
     000258FB  G$fire_tiles$0_0$0                 fire_gbr
     000258FB  _fire_tiles                        fire_gbr
     00025AFB  G$fire_metasprite0$0_0$0           fire_gbr
     00025AFB  _fire_metasprite0                  fire_gbr
     00025B07  G$fire_metasprite1$0_0$0           fire_gbr
     00025B07  _fire_metasprite1                  fire_gbr
     00025B13  G$fire_metasprite2$0_0$0           fire_gbr
     00025B13  _fire_metasprite2                  fire_gbr
     00025B1F  G$fire_metasprite3$0_0$0           fire_gbr
     00025B1F  _fire_metasprite3                  fire_gbr
     00025B2B  G$fire_metasprite4$0_0$0           fire_gbr
     00025B2B  _fire_metasprite4                  fire_gbr
     00025B37  G$fire_metasprite5$0_0$0           fire_gbr
     00025B37  _fire_metasprite5                  fire_gbr
     00025B43  G$fire_metasprite6$0_0$0           fire_gbr
     00025B43  _fire_metasprite6                  fire_gbr
     00025B4F  G$fire_metasprite7$0_0$0           fire_gbr
     00025B4F  _fire_metasprite7                  fire_gbr
     00025B5B  G$fire_metasprites$0_0$0           fire_gbr
     00025B5B  _fire_metasprites                  fire_gbr
     00025B6B  G$fire$0_0$0                       fire_gbr
     00025B6B  _fire                              fire_gbr
     00025B76  C$horse.gbr.c$9$0_0$161            horse_gbr
     00025B76  G$__func_horse$0$0                 horse_gbr
     00025B76  G$horse_palettes$0_0$0             horse_gbr
     00025B76  ___func_horse                      horse_gbr
     00025B76  _horse_palettes                    horse_gbr
     00025B7E  G$horse_tiles$0_0$0                horse_gbr
     00025B7E  _horse_tiles                       horse_gbr
     00025F7E  G$horse_metasprite0$0_0$0          horse_gbr
     00025F7E  _horse_metasprite0                 horse_gbr
     00025F92  G$horse_metasprite1$0_0$0          horse_gbr
     00025F92  _horse_metasprite1                 horse_gbr
ASxxxx Linker V03.00/V05.40 + sdld,  page 169.
Hexadecimal  [32-Bits]

Area                                    Addr        Size        Decimal Bytes (Attributes)
--------------------------------        ----        ----        ------- ----- ------------
_CODE_2                             00024000    00003FF1 =       16369. bytes (REL,CON)

      Value  Global                              Global Defined In Module
      -----  --------------------------------   ------------------------
     00025FA6  G$horse_metasprite2$0_0$0          horse_gbr
     00025FA6  _horse_metasprite2                 horse_gbr
     00025FBA  G$horse_metasprite3$0_0$0          horse_gbr
     00025FBA  _horse_metasprite3                 horse_gbr
     00025FCE  G$horse_metasprite4$0_0$0          horse_gbr
     00025FCE  _horse_metasprite4                 horse_gbr
     00025FE2  G$horse_metasprite5$0_0$0          horse_gbr
     00025FE2  _horse_metasprite5                 horse_gbr
     00025FF6  G$horse_metasprite6$0_0$0          horse_gbr
     00025FF6  _horse_metasprite6                 horse_gbr
     0002600A  G$horse_metasprite7$0_0$0          horse_gbr
     0002600A  _horse_metasprite7                 horse_gbr
     0002601E  G$horse_metasprites$0_0$0          horse_gbr
     0002601E  _horse_metasprites                 horse_gbr
     0002602E  G$horse$0_0$0                      horse_gbr
     0002602E  _horse                             horse_gbr
     00026039  C$horse8frames.gbr.c$9$0_0$161     horse8frames_gbr
     00026039  G$__func_horse8frames$0$0          horse8frames_gbr
     00026039  G$horse8frames_palettes$0_0$0      horse8frames_gbr
     00026039  ___func_horse8frames               horse8frames_gbr
     00026039  _horse8frames_palettes             horse8frames_gbr
     00026041  G$horse8frames_tiles$0_0$0         horse8frames_gbr
     00026041  _horse8frames_tiles                horse8frames_gbr
     00026441  G$horse8frames_metasprite0$0_0$0   horse8frames_gbr
     00026441  _horse8frames_metasprite0          horse8frames_gbr
     00026455  G$horse8frames_metasprite1$0_0$0   horse8frames_gbr
     00026455  _horse8frames_metasprite1          horse8frames_gbr
     00026469  G$horse8frames_metasprite2$0_0$0   horse8frames_gbr
     00026469  _horse8frames_metasprite2          horse8frames_gbr
     0002647D  G$horse8frames_metasprite3$0_0$0   horse8frames_gbr
     0002647D  _horse8frames_metasprite3          horse8frames_gbr
     00026491  G$horse8frames_metasprite4$0_0$0   horse8frames_gbr
     00026491  _horse8frames_metasprite4          horse8frames_gbr
     000264A5  G$horse8frames_metasprite5$0_0$0   horse8frames_gbr
     000264A5  _horse8frames_metasprite5          horse8frames_gbr
     000264B9  G$horse8frames_metasprite6$0_0$0   horse8frames_gbr
     000264B9  _horse8frames_metasprite6          horse8frames_gbr
     000264CD  G$horse8frames_metasprite7$0_0$0   horse8frames_gbr
     000264CD  _horse8frames_metasprite7          horse8frames_gbr
     000264E1  G$horse8frames_metasprites$0_0$0   horse8frames_gbr
     000264E1  _horse8frames_metasprites          horse8frames_gbr
     000264F1  G$horse8frames$0_0$0               horse8frames_gbr
     000264F1  _horse8frames                      horse8frames_gbr
     000264FC  C$oldhorse.gbr.c$9$0_0$161         oldhorse_gbr
     000264FC  G$__func_oldhorse$0$0              oldhorse_gbr
     000264FC  G$oldhorse_palettes$0_0$0          oldhorse_gbr
     000264FC  ___func_oldhorse                   oldhorse_gbr
     000264FC  _oldhorse_palettes                 oldhorse_gbr
     00026504  G$oldhorse_tiles$0_0$0             oldhorse_gbr
     00026504  _oldhorse_tiles                    oldhorse_gbr
     00026904  G$oldhorse_metasprite0$0_0$0       oldhorse_gbr
ASxxxx Linker V03.00/V05.40 + sdld,  page 170.
Hexadecimal  [32-Bits]

Area                                    Addr        Size        Decimal Bytes (Attributes)
--------------------------------        ----        ----        ------- ----- ------------
_CODE_2                             00024000    00003FF1 =       16369. bytes (REL,CON)

      Value  Global                              Global Defined In Module
      -----  --------------------------------   ------------------------
     00026904  _oldhorse_metasprite0              oldhorse_gbr
     00026918  G$oldhorse_metasprite1$0_0$0       oldhorse_gbr
     00026918  _oldhorse_metasprite1              oldhorse_gbr
     0002692C  G$oldhorse_metasprite2$0_0$0       oldhorse_gbr
     0002692C  _oldhorse_metasprite2              oldhorse_gbr
     00026940  G$oldhorse_metasprite3$0_0$0       oldhorse_gbr
     00026940  _oldhorse_metasprite3              oldhorse_gbr
     00026954  G$oldhorse_metasprite4$0_0$0       oldhorse_gbr
     00026954  _oldhorse_metasprite4              oldhorse_gbr
     00026968  G$oldhorse_metasprite5$0_0$0       oldhorse_gbr
     00026968  _oldhorse_metasprite5              oldhorse_gbr
     0002697C  G$oldhorse_metasprite6$0_0$0       oldhorse_gbr
     0002697C  _oldhorse_metasprite6              oldhorse_gbr
     00026990  G$oldhorse_metasprite7$0_0$0       oldhorse_gbr
     00026990  _oldhorse_metasprite7              oldhorse_gbr
     000269A4  G$oldhorse_metasprites$0_0$0       oldhorse_gbr
     000269A4  _oldhorse_metasprites              oldhorse_gbr
     000269B4  G$oldhorse$0_0$0                   oldhorse_gbr
     000269B4  _oldhorse                          oldhorse_gbr
     000269BF  C$player.gbr.c$9$0_0$161           player_gbr
     000269BF  G$__func_player$0$0                player_gbr
     000269BF  G$player_palettes$0_0$0            player_gbr
     000269BF  ___func_player                     player_gbr
     000269BF  _player_palettes                   player_gbr
     000269C7  G$player_tiles$0_0$0               player_gbr
     000269C7  _player_tiles                      player_gbr
     00026A07  G$player_metasprite0$0_0$0         player_gbr
     00026A07  _player_metasprite0                player_gbr
     00026A13  G$player_metasprites$0_0$0         player_gbr
     00026A13  _player_metasprites                player_gbr
     00026A15  G$player$0_0$0                     player_gbr
     00026A15  _player                            player_gbr
     00026A20  A$SpriteBiga$63                    SpriteBiga
     00026A20  C$SpriteBiga.c$25$0_0$177          SpriteBiga
     00026A20  C$SpriteBiga.c$26$1_0$177          SpriteBiga
     00026A20  G$Start_SpriteBiga$0$0             SpriteBiga
     00026A20  _Start_SpriteBiga                  SpriteBiga
     00026A22  A$SpriteBiga$64                    SpriteBiga
     00026A23  A$SpriteBiga$65                    SpriteBiga
     00026A24  A$SpriteBiga$66                    SpriteBiga
     00026A27  A$SpriteBiga$67                    SpriteBiga
     00026A2A  A$SpriteBiga$68                    SpriteBiga
     00026A2B  A$SpriteBiga$69                    SpriteBiga
     00026A2C  A$SpriteBiga$70                    SpriteBiga
     00026A2D  A$SpriteBiga$71                    SpriteBiga
     00026A30  A$SpriteBiga$75                    SpriteBiga
     00026A30  C$SpriteBiga.c$27$1_0$177          SpriteBiga
     00026A33  A$SpriteBiga$76                    SpriteBiga
     00026A34  A$SpriteBiga$77                    SpriteBiga
     00026A35  A$SpriteBiga$78                    SpriteBiga
     00026A36  A$SpriteBiga$79                    SpriteBiga
ASxxxx Linker V03.00/V05.40 + sdld,  page 171.
Hexadecimal  [32-Bits]

Area                                    Addr        Size        Decimal Bytes (Attributes)
--------------------------------        ----        ----        ------- ----- ------------
_CODE_2                             00024000    00003FF1 =       16369. bytes (REL,CON)

      Value  Global                              Global Defined In Module
      -----  --------------------------------   ------------------------
     00026A39  A$SpriteBiga$80                    SpriteBiga
     00026A3A  A$SpriteBiga$81                    SpriteBiga
     00026A3C  A$SpriteBiga$82                    SpriteBiga
     00026A3D  A$SpriteBiga$83                    SpriteBiga
     00026A3F  A$SpriteBiga$87                    SpriteBiga
     00026A3F  C$SpriteBiga.c$28$1_0$177          SpriteBiga
     00026A42  A$SpriteBiga$88                    SpriteBiga
     00026A43  A$SpriteBiga$89                    SpriteBiga
     00026A44  A$SpriteBiga$90                    SpriteBiga
     00026A45  A$SpriteBiga$91                    SpriteBiga
     00026A48  A$SpriteBiga$92                    SpriteBiga
     00026A49  A$SpriteBiga$93                    SpriteBiga
     00026A4B  A$SpriteBiga$94                    SpriteBiga
     00026A4C  A$SpriteBiga$95                    SpriteBiga
     00026A4E  A$SpriteBiga$103                   SpriteBiga
     00026A4E  C$SpriteBiga.c$29$1_0$177          SpriteBiga
     00026A4E  XG$Start_SpriteBiga$0$0            SpriteBiga
     00026A4F  G$a_biga_h$0_0$0                   SpriteBiga
     00026A4F  _a_biga_h                          SpriteBiga
     00026A53  G$a_biga_hit$0_0$0                 SpriteBiga
     00026A53  _a_biga_hit                        SpriteBiga
     00026A5A  G$a_biga_down$0_0$0                SpriteBiga
     00026A5A  _a_biga_down                       SpriteBiga
     00026A5D  G$a_biga_up$0_0$0                  SpriteBiga
     00026A5D  _a_biga_up                         SpriteBiga
     00026A60  A$SpriteBiga$140                   SpriteBiga
     00026A60  C$SpriteBiga.c$31$1_0$178          SpriteBiga
     00026A60  G$Update_SpriteBiga$0$0            SpriteBiga
     00026A60  _Update_SpriteBiga                 SpriteBiga
     00026A62  A$SpriteBiga$144                   SpriteBiga
     00026A65  A$SpriteBiga$145                   SpriteBiga
     00026A66  A$SpriteBiga$146                   SpriteBiga
     00026A67  A$SpriteBiga$147                   SpriteBiga
     00026A68  A$SpriteBiga$148                   SpriteBiga
     00026A6B  A$SpriteBiga$149                   SpriteBiga
     00026A6C  A$SpriteBiga$150                   SpriteBiga
     00026A6D  A$SpriteBiga$151                   SpriteBiga
     00026A6E  A$SpriteBiga$152                   SpriteBiga
     00026A6F  A$SpriteBiga$153                   SpriteBiga
     00026A71  A$SpriteBiga$154                   SpriteBiga
     00026A72  A$SpriteBiga$155                   SpriteBiga
     00026A73  A$SpriteBiga$156                   SpriteBiga
     00026A74  A$SpriteBiga$157                   SpriteBiga
     00026A75  A$SpriteBiga$158                   SpriteBiga
     00026A77  A$SpriteBiga$159                   SpriteBiga
     00026A78  A$SpriteBiga$160                   SpriteBiga
     00026A79  A$SpriteBiga$161                   SpriteBiga
     00026A7A  A$SpriteBiga$162                   SpriteBiga
     00026A7D  A$SpriteBiga$163                   SpriteBiga
     00026A7E  A$SpriteBiga$164                   SpriteBiga
     00026A7F  A$SpriteBiga$165                   SpriteBiga
ASxxxx Linker V03.00/V05.40 + sdld,  page 172.
Hexadecimal  [32-Bits]

Area                                    Addr        Size        Decimal Bytes (Attributes)
--------------------------------        ----        ----        ------- ----- ------------
_CODE_2                             00024000    00003FF1 =       16369. bytes (REL,CON)

      Value  Global                              Global Defined In Module
      -----  --------------------------------   ------------------------
     00026A80  A$SpriteBiga$166                   SpriteBiga
     00026A81  A$SpriteBiga$167                   SpriteBiga
     00026A82  A$SpriteBiga$168                   SpriteBiga
     00026A84  A$SpriteBiga$169                   SpriteBiga
     00026A85  A$SpriteBiga$170                   SpriteBiga
     00026A86  A$SpriteBiga$174                   SpriteBiga
     00026A86  C$SpriteBiga.c$33$1_0$178          SpriteBiga
     00026A89  A$SpriteBiga$175                   SpriteBiga
     00026A8B  A$SpriteBiga$176                   SpriteBiga
     00026A8D  A$SpriteBiga$177                   SpriteBiga
     00026A8F  A$SpriteBiga$178                   SpriteBiga
     00026A90  A$SpriteBiga$179                   SpriteBiga
     00026A91  A$SpriteBiga$180                   SpriteBiga
     00026A92  A$SpriteBiga$181                   SpriteBiga
     00026A95  A$SpriteBiga$182                   SpriteBiga
     00026A96  A$SpriteBiga$183                   SpriteBiga
     00026A97  A$SpriteBiga$184                   SpriteBiga
     00026A98  A$SpriteBiga$185                   SpriteBiga
     00026A99  A$SpriteBiga$190                   SpriteBiga
     00026A9C  A$SpriteBiga$191                   SpriteBiga
     00026A9D  A$SpriteBiga$192                   SpriteBiga
     00026A9E  A$SpriteBiga$193                   SpriteBiga
     00026A9F  A$SpriteBiga$194                   SpriteBiga
     00026AA0  A$SpriteBiga$195                   SpriteBiga
     00026AA3  A$SpriteBiga$196                   SpriteBiga
     00026AA4  A$SpriteBiga$197                   SpriteBiga
     00026AA5  A$SpriteBiga$198                   SpriteBiga
     00026AA6  A$SpriteBiga$199                   SpriteBiga
     00026AA7  A$SpriteBiga$200                   SpriteBiga
     00026AA8  A$SpriteBiga$201                   SpriteBiga
     00026AAA  A$SpriteBiga$202                   SpriteBiga
     00026AAB  A$SpriteBiga$203                   SpriteBiga
     00026AAC  A$SpriteBiga$207                   SpriteBiga
     00026AAC  C$SpriteBiga.c$36$1_1$180          SpriteBiga
     00026AAF  A$SpriteBiga$208                   SpriteBiga
     00026AB1  A$SpriteBiga$209                   SpriteBiga
     00026AB3  A$SpriteBiga$210                   SpriteBiga
     00026AB6  A$SpriteBiga$211                   SpriteBiga
     00026AB7  A$SpriteBiga$212                   SpriteBiga
     00026AB8  A$SpriteBiga$213                   SpriteBiga
     00026AB9  A$SpriteBiga$214                   SpriteBiga
     00026ABB  A$SpriteBiga$215                   SpriteBiga
     00026ABC  A$SpriteBiga$216                   SpriteBiga
     00026ABD  A$SpriteBiga$217                   SpriteBiga
     00026ABE  A$SpriteBiga$218                   SpriteBiga
     00026AC0  A$SpriteBiga$219                   SpriteBiga
     00026AC1  A$SpriteBiga$220                   SpriteBiga
     00026AC3  A$SpriteBiga$225                   SpriteBiga
     00026AC3  C$SpriteBiga.c$37$1_1$180          SpriteBiga
     00026AC6  A$SpriteBiga$226                   SpriteBiga
     00026AC7  A$SpriteBiga$227                   SpriteBiga
ASxxxx Linker V03.00/V05.40 + sdld,  page 173.
Hexadecimal  [32-Bits]

Area                                    Addr        Size        Decimal Bytes (Attributes)
--------------------------------        ----        ----        ------- ----- ------------
_CODE_2                             00024000    00003FF1 =       16369. bytes (REL,CON)

      Value  Global                              Global Defined In Module
      -----  --------------------------------   ------------------------
     00026AC8  A$SpriteBiga$228                   SpriteBiga
     00026AC9  A$SpriteBiga$229                   SpriteBiga
     00026ACA  A$SpriteBiga$230                   SpriteBiga
     00026ACC  A$SpriteBiga$231                   SpriteBiga
     00026ACE  A$SpriteBiga$232                   SpriteBiga
     00026AD0  A$SpriteBiga$233                   SpriteBiga
     00026AD2  A$SpriteBiga$234                   SpriteBiga
     00026AD3  A$SpriteBiga$235                   SpriteBiga
     00026AD5  A$SpriteBiga$237                   SpriteBiga
     00026AD7  A$SpriteBiga$238                   SpriteBiga
     00026AD9  A$SpriteBiga$239                   SpriteBiga
     00026ADA  A$SpriteBiga$241                   SpriteBiga
     00026ADC  A$SpriteBiga$242                   SpriteBiga
     00026ADF  A$SpriteBiga$243                   SpriteBiga
     00026AE0  A$SpriteBiga$244                   SpriteBiga
     00026AE1  A$SpriteBiga$245                   SpriteBiga
     00026AE2  A$SpriteBiga$246                   SpriteBiga
     00026AE3  A$SpriteBiga$247                   SpriteBiga
     00026AE4  A$SpriteBiga$248                   SpriteBiga
     00026AE6  A$SpriteBiga$249                   SpriteBiga
     00026AE7  A$SpriteBiga$250                   SpriteBiga
     00026AE8  A$SpriteBiga$255                   SpriteBiga
     00026AEB  A$SpriteBiga$256                   SpriteBiga
     00026AEC  A$SpriteBiga$257                   SpriteBiga
     00026AED  A$SpriteBiga$258                   SpriteBiga
     00026AEE  A$SpriteBiga$259                   SpriteBiga
     00026AF1  A$SpriteBiga$260                   SpriteBiga
     00026AF2  A$SpriteBiga$261                   SpriteBiga
     00026AF3  A$SpriteBiga$262                   SpriteBiga
     00026AF4  A$SpriteBiga$263                   SpriteBiga
     00026AF6  A$SpriteBiga$264                   SpriteBiga
     00026AF7  A$SpriteBiga$265                   SpriteBiga
     00026AF8  A$SpriteBiga$266                   SpriteBiga
     00026AF9  A$SpriteBiga$267                   SpriteBiga
     00026AFB  A$SpriteBiga$268                   SpriteBiga
     00026AFC  A$SpriteBiga$269                   SpriteBiga
     00026AFD  A$SpriteBiga$270                   SpriteBiga
     00026AFE  A$SpriteBiga$271                   SpriteBiga
     00026AFF  A$SpriteBiga$272                   SpriteBiga
     00026B00  A$SpriteBiga$273                   SpriteBiga
     00026B01  A$SpriteBiga$274                   SpriteBiga
     00026B02  A$SpriteBiga$275                   SpriteBiga
     00026B03  A$SpriteBiga$276                   SpriteBiga
     00026B04  A$SpriteBiga$277                   SpriteBiga
     00026B05  A$SpriteBiga$278                   SpriteBiga
     00026B06  A$SpriteBiga$279                   SpriteBiga
     00026B07  A$SpriteBiga$280                   SpriteBiga
     00026B08  A$SpriteBiga$281                   SpriteBiga
     00026B09  A$SpriteBiga$282                   SpriteBiga
     00026B0A  A$SpriteBiga$283                   SpriteBiga
     00026B0B  A$SpriteBiga$284                   SpriteBiga
ASxxxx Linker V03.00/V05.40 + sdld,  page 174.
Hexadecimal  [32-Bits]

Area                                    Addr        Size        Decimal Bytes (Attributes)
--------------------------------        ----        ----        ------- ----- ------------
_CODE_2                             00024000    00003FF1 =       16369. bytes (REL,CON)

      Value  Global                              Global Defined In Module
      -----  --------------------------------   ------------------------
     00026B0C  A$SpriteBiga$285                   SpriteBiga
     00026B0D  A$SpriteBiga$286                   SpriteBiga
     00026B0E  A$SpriteBiga$287                   SpriteBiga
     00026B0F  A$SpriteBiga$288                   SpriteBiga
     00026B10  A$SpriteBiga$289                   SpriteBiga
     00026B11  A$SpriteBiga$293                   SpriteBiga
     00026B11  C$SpriteBiga.c$41$1_2$183          SpriteBiga
     00026B13  A$SpriteBiga$294                   SpriteBiga
     00026B15  A$SpriteBiga$298                   SpriteBiga
     00026B15  C$SpriteBiga.c$42$1_2$183          SpriteBiga
     00026B16  A$SpriteBiga$299                   SpriteBiga
     00026B18  A$SpriteBiga$300                   SpriteBiga
     00026B19  A$SpriteBiga$301                   SpriteBiga
     00026B1A  A$SpriteBiga$302                   SpriteBiga
     00026B1B  A$SpriteBiga$303                   SpriteBiga
     00026B1C  A$SpriteBiga$304                   SpriteBiga
     00026B1E  A$SpriteBiga$305                   SpriteBiga
     00026B20  A$SpriteBiga$309                   SpriteBiga
     00026B20  C$SpriteBiga.c$43$2_2$184          SpriteBiga
     00026B22  A$SpriteBiga$310                   SpriteBiga
     00026B23  A$SpriteBiga$311                   SpriteBiga
     00026B24  A$SpriteBiga$312                   SpriteBiga
     00026B25  A$SpriteBiga$313                   SpriteBiga
     00026B28  A$SpriteBiga$314                   SpriteBiga
     00026B29  A$SpriteBiga$315                   SpriteBiga
     00026B2A  A$SpriteBiga$316                   SpriteBiga
     00026B2B  A$SpriteBiga$317                   SpriteBiga
     00026B2C  A$SpriteBiga$318                   SpriteBiga
     00026B2D  A$SpriteBiga$319                   SpriteBiga
     00026B2F  A$SpriteBiga$320                   SpriteBiga
     00026B30  A$SpriteBiga$321                   SpriteBiga
     00026B31  A$SpriteBiga$322                   SpriteBiga
     00026B32  A$SpriteBiga$323                   SpriteBiga
     00026B33  A$SpriteBiga$324                   SpriteBiga
     00026B34  A$SpriteBiga$325                   SpriteBiga
     00026B35  A$SpriteBiga$326                   SpriteBiga
     00026B36  A$SpriteBiga$327                   SpriteBiga
     00026B37  A$SpriteBiga$328                   SpriteBiga
     00026B38  A$SpriteBiga$329                   SpriteBiga
     00026B39  A$SpriteBiga$330                   SpriteBiga
     00026B3A  A$SpriteBiga$331                   SpriteBiga
     00026B3B  A$SpriteBiga$332                   SpriteBiga
     00026B3C  A$SpriteBiga$336                   SpriteBiga
     00026B3C  C$SpriteBiga.c$44$2_2$184          SpriteBiga
     00026B3E  A$SpriteBiga$341                   SpriteBiga
     00026B3E  C$SpriteBiga.c$46$1_2$183          SpriteBiga
     00026B3F  A$SpriteBiga$342                   SpriteBiga
     00026B41  A$SpriteBiga$343                   SpriteBiga
     00026B43  A$SpriteBiga$344                   SpriteBiga
     00026B44  A$SpriteBiga$345                   SpriteBiga
     00026B46  A$SpriteBiga$346                   SpriteBiga
ASxxxx Linker V03.00/V05.40 + sdld,  page 175.
Hexadecimal  [32-Bits]

Area                                    Addr        Size        Decimal Bytes (Attributes)
--------------------------------        ----        ----        ------- ----- ------------
_CODE_2                             00024000    00003FF1 =       16369. bytes (REL,CON)

      Value  Global                              Global Defined In Module
      -----  --------------------------------   ------------------------
     00026B47  A$SpriteBiga$347                   SpriteBiga
     00026B49  A$SpriteBiga$348                   SpriteBiga
     00026B4B  A$SpriteBiga$349                   SpriteBiga
     00026B4D  A$SpriteBiga$350                   SpriteBiga
     00026B4F  A$SpriteBiga$351                   SpriteBiga
     00026B50  A$SpriteBiga$352                   SpriteBiga
     00026B52  A$SpriteBiga$354                   SpriteBiga
     00026B54  A$SpriteBiga$355                   SpriteBiga
     00026B56  A$SpriteBiga$356                   SpriteBiga
     00026B57  A$SpriteBiga$358                   SpriteBiga
     00026B59  A$SpriteBiga$362                   SpriteBiga
     00026B59  C$SpriteBiga.c$47$2_2$185          SpriteBiga
     00026B5C  A$SpriteBiga$363                   SpriteBiga
     00026B5D  A$SpriteBiga$364                   SpriteBiga
     00026B5E  A$SpriteBiga$365                   SpriteBiga
     00026B60  A$SpriteBiga$366                   SpriteBiga
     00026B61  A$SpriteBiga$367                   SpriteBiga
     00026B63  A$SpriteBiga$368                   SpriteBiga
     00026B64  A$SpriteBiga$370                   SpriteBiga
     00026B67  A$SpriteBiga$371                   SpriteBiga
     00026B68  A$SpriteBiga$372                   SpriteBiga
     00026B69  A$SpriteBiga$373                   SpriteBiga
     00026B6A  A$SpriteBiga$374                   SpriteBiga
     00026B6D  A$SpriteBiga$375                   SpriteBiga
     00026B6E  A$SpriteBiga$376                   SpriteBiga
     00026B6F  A$SpriteBiga$377                   SpriteBiga
     00026B70  A$SpriteBiga$381                   SpriteBiga
     00026B72  A$SpriteBiga$382                   SpriteBiga
     00026B73  A$SpriteBiga$383                   SpriteBiga
     00026B74  A$SpriteBiga$384                   SpriteBiga
     00026B76  A$SpriteBiga$385                   SpriteBiga
     00026B77  A$SpriteBiga$386                   SpriteBiga
     00026B78  A$SpriteBiga$387                   SpriteBiga
     00026B79  A$SpriteBiga$388                   SpriteBiga
     00026B7A  A$SpriteBiga$389                   SpriteBiga
     00026B7B  A$SpriteBiga$390                   SpriteBiga
     00026B7C  A$SpriteBiga$394                   SpriteBiga
     00026B7C  C$SpriteBiga.c$48$2_2$185          SpriteBiga
     00026B7E  A$SpriteBiga$395                   SpriteBiga
     00026B80  A$SpriteBiga$400                   SpriteBiga
     00026B80  C$SpriteBiga.c$50$1_2$183          SpriteBiga
     00026B82  A$SpriteBiga$401                   SpriteBiga
     00026B83  A$SpriteBiga$402                   SpriteBiga
     00026B84  A$SpriteBiga$403                   SpriteBiga
     00026B86  A$SpriteBiga$407                   SpriteBiga
     00026B89  A$SpriteBiga$408                   SpriteBiga
     00026B8A  A$SpriteBiga$409                   SpriteBiga
     00026B8B  A$SpriteBiga$410                   SpriteBiga
     00026B8C  A$SpriteBiga$411                   SpriteBiga
     00026B8F  A$SpriteBiga$412                   SpriteBiga
     00026B90  A$SpriteBiga$413                   SpriteBiga
ASxxxx Linker V03.00/V05.40 + sdld,  page 176.
Hexadecimal  [32-Bits]

Area                                    Addr        Size        Decimal Bytes (Attributes)
--------------------------------        ----        ----        ------- ----- ------------
_CODE_2                             00024000    00003FF1 =       16369. bytes (REL,CON)

      Value  Global                              Global Defined In Module
      -----  --------------------------------   ------------------------
     00026B91  A$SpriteBiga$414                   SpriteBiga
     00026B92  A$SpriteBiga$415                   SpriteBiga
     00026B94  A$SpriteBiga$416                   SpriteBiga
     00026B95  A$SpriteBiga$417                   SpriteBiga
     00026B96  A$SpriteBiga$418                   SpriteBiga
     00026B97  A$SpriteBiga$419                   SpriteBiga
     00026B99  A$SpriteBiga$420                   SpriteBiga
     00026B9A  A$SpriteBiga$421                   SpriteBiga
     00026B9B  A$SpriteBiga$422                   SpriteBiga
     00026B9C  A$SpriteBiga$423                   SpriteBiga
     00026B9D  A$SpriteBiga$424                   SpriteBiga
     00026B9E  A$SpriteBiga$425                   SpriteBiga
     00026B9F  A$SpriteBiga$426                   SpriteBiga
     00026BA0  A$SpriteBiga$427                   SpriteBiga
     00026BA1  A$SpriteBiga$428                   SpriteBiga
     00026BA2  A$SpriteBiga$432                   SpriteBiga
     00026BA2  C$SpriteBiga.c$52$2_2$186          SpriteBiga
     00026BA3  A$SpriteBiga$433                   SpriteBiga
     00026BA4  A$SpriteBiga$434                   SpriteBiga
     00026BA5  A$SpriteBiga$435                   SpriteBiga
     00026BA6  A$SpriteBiga$436                   SpriteBiga
     00026BA7  A$SpriteBiga$437                   SpriteBiga
     00026BA8  A$SpriteBiga$438                   SpriteBiga
     00026BA9  A$SpriteBiga$439                   SpriteBiga
     00026BAB  A$SpriteBiga$440                   SpriteBiga
     00026BAC  A$SpriteBiga$441                   SpriteBiga
     00026BAD  A$SpriteBiga$442                   SpriteBiga
     00026BAE  A$SpriteBiga$443                   SpriteBiga
     00026BAF  A$SpriteBiga$444                   SpriteBiga
     00026BB0  A$SpriteBiga$445                   SpriteBiga
     00026BB1  A$SpriteBiga$446                   SpriteBiga
     00026BB2  A$SpriteBiga$447                   SpriteBiga
     00026BB3  A$SpriteBiga$448                   SpriteBiga
     00026BB5  A$SpriteBiga$453                   SpriteBiga
     00026BB5  C$SpriteBiga.c$53$2_2$186          SpriteBiga
     00026BB6  A$SpriteBiga$454                   SpriteBiga
     00026BB7  A$SpriteBiga$455                   SpriteBiga
     00026BBA  A$SpriteBiga$456                   SpriteBiga
     00026BBB  A$SpriteBiga$457                   SpriteBiga
     00026BBC  A$SpriteBiga$458                   SpriteBiga
     00026BBD  A$SpriteBiga$459                   SpriteBiga
     00026BBE  A$SpriteBiga$460                   SpriteBiga
     00026BBF  A$SpriteBiga$461                   SpriteBiga
     00026BC1  A$SpriteBiga$462                   SpriteBiga
     00026BC2  A$SpriteBiga$463                   SpriteBiga
     00026BC3  A$SpriteBiga$464                   SpriteBiga
     00026BC4  A$SpriteBiga$465                   SpriteBiga
     00026BC5  A$SpriteBiga$466                   SpriteBiga
     00026BC6  A$SpriteBiga$467                   SpriteBiga
     00026BC7  A$SpriteBiga$468                   SpriteBiga
     00026BC8  A$SpriteBiga$469                   SpriteBiga
ASxxxx Linker V03.00/V05.40 + sdld,  page 177.
Hexadecimal  [32-Bits]

Area                                    Addr        Size        Decimal Bytes (Attributes)
--------------------------------        ----        ----        ------- ----- ------------
_CODE_2                             00024000    00003FF1 =       16369. bytes (REL,CON)

      Value  Global                              Global Defined In Module
      -----  --------------------------------   ------------------------
     00026BCA  A$SpriteBiga$470                   SpriteBiga
     00026BCB  A$SpriteBiga$471                   SpriteBiga
     00026BCC  A$SpriteBiga$472                   SpriteBiga
     00026BCE  A$SpriteBiga$473                   SpriteBiga
     00026BCF  A$SpriteBiga$474                   SpriteBiga
     00026BD0  A$SpriteBiga$475                   SpriteBiga
     00026BD1  A$SpriteBiga$476                   SpriteBiga
     00026BD2  A$SpriteBiga$477                   SpriteBiga
     00026BD3  A$SpriteBiga$478                   SpriteBiga
     00026BD4  A$SpriteBiga$483                   SpriteBiga
     00026BD4  C$SpriteBiga.c$32$1_4$178          SpriteBiga
     00026BD7  A$SpriteBiga$484                   SpriteBiga
     00026BD8  A$SpriteBiga$485                   SpriteBiga
     00026BD9  A$SpriteBiga$486                   SpriteBiga
     00026BDA  A$SpriteBiga$490                   SpriteBiga
     00026BDA  C$SpriteBiga.c$35$1_4$178          SpriteBiga
     00026BDD  A$SpriteBiga$491                   SpriteBiga
     00026BDE  A$SpriteBiga$492                   SpriteBiga
     00026BDF  A$SpriteBiga$493                   SpriteBiga
     00026BE0  A$SpriteBiga$494                   SpriteBiga
     00026BE1  A$SpriteBiga$495                   SpriteBiga
     00026BE3  A$SpriteBiga$496                   SpriteBiga
     00026BE4  A$SpriteBiga$497                   SpriteBiga
     00026BE5  A$SpriteBiga$498                   SpriteBiga
     00026BE6  A$SpriteBiga$499                   SpriteBiga
     00026BE7  A$SpriteBiga$503                   SpriteBiga
     00026BEA  A$SpriteBiga$504                   SpriteBiga
     00026BEB  A$SpriteBiga$505                   SpriteBiga
     00026BEC  A$SpriteBiga$506                   SpriteBiga
     00026BED  A$SpriteBiga$510                   SpriteBiga
     00026BF0  A$SpriteBiga$511                   SpriteBiga
     00026BF1  A$SpriteBiga$512                   SpriteBiga
     00026BF2  A$SpriteBiga$513                   SpriteBiga
     00026BF3  A$SpriteBiga$514                   SpriteBiga
     00026BF5  A$SpriteBiga$515                   SpriteBiga
     00026BF6  A$SpriteBiga$516                   SpriteBiga
     00026BF7  A$SpriteBiga$517                   SpriteBiga
     00026BF8  A$SpriteBiga$518                   SpriteBiga
     00026BFA  A$SpriteBiga$519                   SpriteBiga
     00026BFB  A$SpriteBiga$520                   SpriteBiga
     00026BFC  A$SpriteBiga$521                   SpriteBiga
     00026BFD  A$SpriteBiga$522                   SpriteBiga
     00026BFE  A$SpriteBiga$523                   SpriteBiga
     00026BFF  A$SpriteBiga$524                   SpriteBiga
     00026C00  A$SpriteBiga$525                   SpriteBiga
     00026C01  A$SpriteBiga$526                   SpriteBiga
     00026C02  A$SpriteBiga$527                   SpriteBiga
     00026C03  A$SpriteBiga$528                   SpriteBiga
     00026C04  A$SpriteBiga$529                   SpriteBiga
     00026C05  A$SpriteBiga$530                   SpriteBiga
     00026C06  A$SpriteBiga$531                   SpriteBiga
ASxxxx Linker V03.00/V05.40 + sdld,  page 178.
Hexadecimal  [32-Bits]

Area                                    Addr        Size        Decimal Bytes (Attributes)
--------------------------------        ----        ----        ------- ----- ------------
_CODE_2                             00024000    00003FF1 =       16369. bytes (REL,CON)

      Value  Global                              Global Defined In Module
      -----  --------------------------------   ------------------------
     00026C07  A$SpriteBiga$532                   SpriteBiga
     00026C08  A$SpriteBiga$533                   SpriteBiga
     00026C09  A$SpriteBiga$534                   SpriteBiga
     00026C0A  A$SpriteBiga$535                   SpriteBiga
     00026C0B  A$SpriteBiga$536                   SpriteBiga
     00026C0C  A$SpriteBiga$537                   SpriteBiga
     00026C0D  A$SpriteBiga$538                   SpriteBiga
     00026C0E  A$SpriteBiga$539                   SpriteBiga
     00026C0F  A$SpriteBiga$540                   SpriteBiga
     00026C10  A$SpriteBiga$544                   SpriteBiga
     00026C10  C$SpriteBiga.c$57$1_3$189          SpriteBiga
     00026C12  A$SpriteBiga$545                   SpriteBiga
     00026C14  A$SpriteBiga$549                   SpriteBiga
     00026C14  C$SpriteBiga.c$58$1_3$189          SpriteBiga
     00026C15  A$SpriteBiga$550                   SpriteBiga
     00026C17  A$SpriteBiga$551                   SpriteBiga
     00026C18  A$SpriteBiga$552                   SpriteBiga
     00026C19  A$SpriteBiga$553                   SpriteBiga
     00026C1A  A$SpriteBiga$554                   SpriteBiga
     00026C1B  A$SpriteBiga$555                   SpriteBiga
     00026C1D  A$SpriteBiga$556                   SpriteBiga
     00026C1F  A$SpriteBiga$560                   SpriteBiga
     00026C1F  C$SpriteBiga.c$59$2_3$190          SpriteBiga
     00026C21  A$SpriteBiga$561                   SpriteBiga
     00026C22  A$SpriteBiga$562                   SpriteBiga
     00026C23  A$SpriteBiga$563                   SpriteBiga
     00026C24  A$SpriteBiga$564                   SpriteBiga
     00026C27  A$SpriteBiga$565                   SpriteBiga
     00026C28  A$SpriteBiga$566                   SpriteBiga
     00026C29  A$SpriteBiga$567                   SpriteBiga
     00026C2A  A$SpriteBiga$568                   SpriteBiga
     00026C2B  A$SpriteBiga$569                   SpriteBiga
     00026C2C  A$SpriteBiga$570                   SpriteBiga
     00026C2E  A$SpriteBiga$571                   SpriteBiga
     00026C2F  A$SpriteBiga$572                   SpriteBiga
     00026C30  A$SpriteBiga$573                   SpriteBiga
     00026C31  A$SpriteBiga$574                   SpriteBiga
     00026C32  A$SpriteBiga$575                   SpriteBiga
     00026C33  A$SpriteBiga$576                   SpriteBiga
     00026C34  A$SpriteBiga$577                   SpriteBiga
     00026C35  A$SpriteBiga$578                   SpriteBiga
     00026C36  A$SpriteBiga$579                   SpriteBiga
     00026C37  A$SpriteBiga$580                   SpriteBiga
     00026C38  A$SpriteBiga$581                   SpriteBiga
     00026C39  A$SpriteBiga$582                   SpriteBiga
     00026C3A  A$SpriteBiga$583                   SpriteBiga
     00026C3B  A$SpriteBiga$587                   SpriteBiga
     00026C3B  C$SpriteBiga.c$60$2_3$190          SpriteBiga
     00026C3D  A$SpriteBiga$592                   SpriteBiga
     00026C3D  C$SpriteBiga.c$62$1_3$189          SpriteBiga
     00026C3E  A$SpriteBiga$593                   SpriteBiga
ASxxxx Linker V03.00/V05.40 + sdld,  page 179.
Hexadecimal  [32-Bits]

Area                                    Addr        Size        Decimal Bytes (Attributes)
--------------------------------        ----        ----        ------- ----- ------------
_CODE_2                             00024000    00003FF1 =       16369. bytes (REL,CON)

      Value  Global                              Global Defined In Module
      -----  --------------------------------   ------------------------
     00026C40  A$SpriteBiga$594                   SpriteBiga
     00026C41  A$SpriteBiga$595                   SpriteBiga
     00026C42  A$SpriteBiga$596                   SpriteBiga
     00026C43  A$SpriteBiga$597                   SpriteBiga
     00026C44  A$SpriteBiga$598                   SpriteBiga
     00026C46  A$SpriteBiga$599                   SpriteBiga
     00026C48  A$SpriteBiga$603                   SpriteBiga
     00026C48  C$SpriteBiga.c$63$2_3$191          SpriteBiga
     00026C4B  A$SpriteBiga$604                   SpriteBiga
     00026C4C  A$SpriteBiga$605                   SpriteBiga
     00026C4D  A$SpriteBiga$606                   SpriteBiga
     00026C4F  A$SpriteBiga$607                   SpriteBiga
     00026C50  A$SpriteBiga$608                   SpriteBiga
     00026C52  A$SpriteBiga$609                   SpriteBiga
     00026C53  A$SpriteBiga$611                   SpriteBiga
     00026C56  A$SpriteBiga$612                   SpriteBiga
     00026C57  A$SpriteBiga$613                   SpriteBiga
     00026C58  A$SpriteBiga$614                   SpriteBiga
     00026C59  A$SpriteBiga$615                   SpriteBiga
     00026C5C  A$SpriteBiga$616                   SpriteBiga
     00026C5D  A$SpriteBiga$617                   SpriteBiga
     00026C5E  A$SpriteBiga$618                   SpriteBiga
     00026C5F  A$SpriteBiga$622                   SpriteBiga
     00026C61  A$SpriteBiga$623                   SpriteBiga
     00026C62  A$SpriteBiga$624                   SpriteBiga
     00026C63  A$SpriteBiga$625                   SpriteBiga
     00026C65  A$SpriteBiga$626                   SpriteBiga
     00026C66  A$SpriteBiga$627                   SpriteBiga
     00026C67  A$SpriteBiga$628                   SpriteBiga
     00026C68  A$SpriteBiga$629                   SpriteBiga
     00026C69  A$SpriteBiga$630                   SpriteBiga
     00026C6A  A$SpriteBiga$631                   SpriteBiga
     00026C6B  A$SpriteBiga$635                   SpriteBiga
     00026C6B  C$SpriteBiga.c$64$2_3$191          SpriteBiga
     00026C6D  A$SpriteBiga$636                   SpriteBiga
     00026C6F  A$SpriteBiga$641                   SpriteBiga
     00026C6F  C$SpriteBiga.c$67$1_3$189          SpriteBiga
     00026C71  A$SpriteBiga$642                   SpriteBiga
     00026C72  A$SpriteBiga$643                   SpriteBiga
     00026C73  A$SpriteBiga$644                   SpriteBiga
     00026C75  A$SpriteBiga$648                   SpriteBiga
     00026C75  C$SpriteBiga.c$40$1_4$178          SpriteBiga
     00026C78  A$SpriteBiga$649                   SpriteBiga
     00026C79  A$SpriteBiga$650                   SpriteBiga
     00026C7A  A$SpriteBiga$651                   SpriteBiga
     00026C7B  A$SpriteBiga$655                   SpriteBiga
     00026C7B  C$SpriteBiga.c$56$1_4$178          SpriteBiga
     00026C7E  A$SpriteBiga$656                   SpriteBiga
     00026C7F  A$SpriteBiga$657                   SpriteBiga
     00026C80  A$SpriteBiga$658                   SpriteBiga
     00026C81  A$SpriteBiga$659                   SpriteBiga
ASxxxx Linker V03.00/V05.40 + sdld,  page 180.
Hexadecimal  [32-Bits]

Area                                    Addr        Size        Decimal Bytes (Attributes)
--------------------------------        ----        ----        ------- ----- ------------
_CODE_2                             00024000    00003FF1 =       16369. bytes (REL,CON)

      Value  Global                              Global Defined In Module
      -----  --------------------------------   ------------------------
     00026C83  A$SpriteBiga$660                   SpriteBiga
     00026C84  A$SpriteBiga$661                   SpriteBiga
     00026C85  A$SpriteBiga$662                   SpriteBiga
     00026C86  A$SpriteBiga$663                   SpriteBiga
     00026C88  A$SpriteBiga$664                   SpriteBiga
     00026C89  A$SpriteBiga$665                   SpriteBiga
     00026C8A  A$SpriteBiga$666                   SpriteBiga
     00026C8B  A$SpriteBiga$667                   SpriteBiga
     00026C8C  A$SpriteBiga$668                   SpriteBiga
     00026C8D  A$SpriteBiga$669                   SpriteBiga
     00026C8E  A$SpriteBiga$670                   SpriteBiga
     00026C8F  A$SpriteBiga$671                   SpriteBiga
     00026C90  A$SpriteBiga$672                   SpriteBiga
     00026C91  A$SpriteBiga$676                   SpriteBiga
     00026C91  C$SpriteBiga.c$68$2_3$192          SpriteBiga
     00026C93  A$SpriteBiga$677                   SpriteBiga
     00026C94  A$SpriteBiga$678                   SpriteBiga
     00026C95  A$SpriteBiga$679                   SpriteBiga
     00026C96  A$SpriteBiga$680                   SpriteBiga
     00026C97  A$SpriteBiga$681                   SpriteBiga
     00026C99  A$SpriteBiga$682                   SpriteBiga
     00026C9A  A$SpriteBiga$683                   SpriteBiga
     00026C9C  A$SpriteBiga$684                   SpriteBiga
     00026C9D  A$SpriteBiga$685                   SpriteBiga
     00026C9E  A$SpriteBiga$686                   SpriteBiga
     00026C9F  A$SpriteBiga$687                   SpriteBiga
     00026CA0  A$SpriteBiga$688                   SpriteBiga
     00026CA1  A$SpriteBiga$689                   SpriteBiga
     00026CA2  A$SpriteBiga$690                   SpriteBiga
     00026CA4  A$SpriteBiga$695                   SpriteBiga
     00026CA4  C$SpriteBiga.c$69$2_3$192          SpriteBiga
     00026CA6  A$SpriteBiga$696                   SpriteBiga
     00026CA7  A$SpriteBiga$697                   SpriteBiga
     00026CA8  A$SpriteBiga$698                   SpriteBiga
     00026CA9  A$SpriteBiga$699                   SpriteBiga
     00026CAA  A$SpriteBiga$700                   SpriteBiga
     00026CAB  A$SpriteBiga$701                   SpriteBiga
     00026CAD  A$SpriteBiga$702                   SpriteBiga
     00026CAE  A$SpriteBiga$703                   SpriteBiga
     00026CB0  A$SpriteBiga$704                   SpriteBiga
     00026CB1  A$SpriteBiga$705                   SpriteBiga
     00026CB2  A$SpriteBiga$706                   SpriteBiga
     00026CB3  A$SpriteBiga$707                   SpriteBiga
     00026CB4  A$SpriteBiga$708                   SpriteBiga
     00026CB5  A$SpriteBiga$709                   SpriteBiga
     00026CB6  A$SpriteBiga$714                   SpriteBiga
     00026CB6  C$SpriteBiga.c$71$1_3$189          SpriteBiga
     00026CB9  A$SpriteBiga$715                   SpriteBiga
     00026CBA  A$SpriteBiga$716                   SpriteBiga
     00026CBB  A$SpriteBiga$717                   SpriteBiga
     00026CBD  A$SpriteBiga$718                   SpriteBiga
ASxxxx Linker V03.00/V05.40 + sdld,  page 181.
Hexadecimal  [32-Bits]

Area                                    Addr        Size        Decimal Bytes (Attributes)
--------------------------------        ----        ----        ------- ----- ------------
_CODE_2                             00024000    00003FF1 =       16369. bytes (REL,CON)

      Value  Global                              Global Defined In Module
      -----  --------------------------------   ------------------------
     00026CBE  A$SpriteBiga$719                   SpriteBiga
     00026CC0  A$SpriteBiga$720                   SpriteBiga
     00026CC1  A$SpriteBiga$722                   SpriteBiga
     00026CC4  A$SpriteBiga$723                   SpriteBiga
     00026CC5  A$SpriteBiga$724                   SpriteBiga
     00026CC6  A$SpriteBiga$725                   SpriteBiga
     00026CC7  A$SpriteBiga$726                   SpriteBiga
     00026CC9  A$SpriteBiga$727                   SpriteBiga
     00026CCB  A$SpriteBiga$728                   SpriteBiga
     00026CCD  A$SpriteBiga$729                   SpriteBiga
     00026CCF  A$SpriteBiga$730                   SpriteBiga
     00026CD1  A$SpriteBiga$731                   SpriteBiga
     00026CD3  A$SpriteBiga$732                   SpriteBiga
     00026CD5  A$SpriteBiga$733                   SpriteBiga
     00026CD7  A$SpriteBiga$734                   SpriteBiga
     00026CD9  A$SpriteBiga$735                   SpriteBiga
     00026CDB  A$SpriteBiga$736                   SpriteBiga
     00026CDD  A$SpriteBiga$737                   SpriteBiga
     00026CDF  A$SpriteBiga$738                   SpriteBiga
     00026CE0  A$SpriteBiga$739                   SpriteBiga
     00026CE1  A$SpriteBiga$743                   SpriteBiga
     00026CE1  C$SpriteBiga.c$72$1_3$189          SpriteBiga
     00026CE4  A$SpriteBiga$744                   SpriteBiga
     00026CE5  A$SpriteBiga$745                   SpriteBiga
     00026CE6  A$SpriteBiga$746                   SpriteBiga
     00026CE8  A$SpriteBiga$747                   SpriteBiga
     00026CE9  A$SpriteBiga$748                   SpriteBiga
     00026CEB  A$SpriteBiga$749                   SpriteBiga
     00026CEC  A$SpriteBiga$751                   SpriteBiga
     00026CEF  A$SpriteBiga$752                   SpriteBiga
     00026CF0  A$SpriteBiga$753                   SpriteBiga
     00026CF1  A$SpriteBiga$754                   SpriteBiga
     00026CF2  A$SpriteBiga$755                   SpriteBiga
     00026CF5  A$SpriteBiga$756                   SpriteBiga
     00026CF6  A$SpriteBiga$757                   SpriteBiga
     00026CF7  A$SpriteBiga$758                   SpriteBiga
     00026CF8  A$SpriteBiga$762                   SpriteBiga
     00026CF8  C$SpriteBiga.c$74$1_4$195          SpriteBiga
     00026CFB  A$SpriteBiga$763                   SpriteBiga
     00026CFC  A$SpriteBiga$764                   SpriteBiga
     00026CFD  A$SpriteBiga$765                   SpriteBiga
     00026CFE  A$SpriteBiga$766                   SpriteBiga
     00026D01  A$SpriteBiga$767                   SpriteBiga
     00026D02  A$SpriteBiga$768                   SpriteBiga
     00026D03  A$SpriteBiga$769                   SpriteBiga
     00026D04  A$SpriteBiga$770                   SpriteBiga
     00026D05  A$SpriteBiga$771                   SpriteBiga
     00026D06  A$SpriteBiga$772                   SpriteBiga
     00026D07  A$SpriteBiga$773                   SpriteBiga
     00026D08  A$SpriteBiga$774                   SpriteBiga
     00026D09  A$SpriteBiga$775                   SpriteBiga
ASxxxx Linker V03.00/V05.40 + sdld,  page 182.
Hexadecimal  [32-Bits]

Area                                    Addr        Size        Decimal Bytes (Attributes)
--------------------------------        ----        ----        ------- ----- ------------
_CODE_2                             00024000    00003FF1 =       16369. bytes (REL,CON)

      Value  Global                              Global Defined In Module
      -----  --------------------------------   ------------------------
     00026D0A  A$SpriteBiga$776                   SpriteBiga
     00026D0B  A$SpriteBiga$777                   SpriteBiga
     00026D0C  A$SpriteBiga$778                   SpriteBiga
     00026D0D  A$SpriteBiga$779                   SpriteBiga
     00026D0E  A$SpriteBiga$780                   SpriteBiga
     00026D0F  A$SpriteBiga$784                   SpriteBiga
     00026D0F  C$SpriteBiga.c$75$1_4$195          SpriteBiga
     00026D10  A$SpriteBiga$785                   SpriteBiga
     00026D12  A$SpriteBiga$786                   SpriteBiga
     00026D13  A$SpriteBiga$787                   SpriteBiga
     00026D14  A$SpriteBiga$788                   SpriteBiga
     00026D17  A$SpriteBiga$789                   SpriteBiga
     00026D1A  A$SpriteBiga$790                   SpriteBiga
     00026D1B  A$SpriteBiga$791                   SpriteBiga
     00026D1C  A$SpriteBiga$792                   SpriteBiga
     00026D1D  A$SpriteBiga$793                   SpriteBiga
     00026D20  A$SpriteBiga$794                   SpriteBiga
     00026D21  A$SpriteBiga$798                   SpriteBiga
     00026D21  C$SpriteBiga.c$76$1_4$195          SpriteBiga
     00026D22  A$SpriteBiga$799                   SpriteBiga
     00026D24  A$SpriteBiga$800                   SpriteBiga
     00026D26  A$SpriteBiga$801                   SpriteBiga
     00026D27  A$SpriteBiga$802                   SpriteBiga
     00026D29  A$SpriteBiga$803                   SpriteBiga
     00026D2A  A$SpriteBiga$804                   SpriteBiga
     00026D2C  A$SpriteBiga$805                   SpriteBiga
     00026D2E  A$SpriteBiga$806                   SpriteBiga
     00026D30  A$SpriteBiga$807                   SpriteBiga
     00026D32  A$SpriteBiga$808                   SpriteBiga
     00026D33  A$SpriteBiga$809                   SpriteBiga
     00026D35  A$SpriteBiga$811                   SpriteBiga
     00026D37  A$SpriteBiga$812                   SpriteBiga
     00026D39  A$SpriteBiga$813                   SpriteBiga
     00026D3A  A$SpriteBiga$815                   SpriteBiga
     00026D3C  A$SpriteBiga$819                   SpriteBiga
     00026D3C  C$SpriteBiga.c$77$2_4$196          SpriteBiga
     00026D3F  A$SpriteBiga$820                   SpriteBiga
     00026D40  A$SpriteBiga$821                   SpriteBiga
     00026D41  A$SpriteBiga$822                   SpriteBiga
     00026D42  A$SpriteBiga$823                   SpriteBiga
     00026D45  A$SpriteBiga$824                   SpriteBiga
     00026D46  A$SpriteBiga$825                   SpriteBiga
     00026D48  A$SpriteBiga$830                   SpriteBiga
     00026D48  C$SpriteBiga.c$79$1_4$195          SpriteBiga
     00026D4B  A$SpriteBiga$831                   SpriteBiga
     00026D4C  A$SpriteBiga$832                   SpriteBiga
     00026D4D  A$SpriteBiga$833                   SpriteBiga
     00026D4E  A$SpriteBiga$834                   SpriteBiga
     00026D51  A$SpriteBiga$835                   SpriteBiga
     00026D52  A$SpriteBiga$836                   SpriteBiga
     00026D53  A$SpriteBiga$837                   SpriteBiga
ASxxxx Linker V03.00/V05.40 + sdld,  page 183.
Hexadecimal  [32-Bits]

Area                                    Addr        Size        Decimal Bytes (Attributes)
--------------------------------        ----        ----        ------- ----- ------------
_CODE_2                             00024000    00003FF1 =       16369. bytes (REL,CON)

      Value  Global                              Global Defined In Module
      -----  --------------------------------   ------------------------
     00026D54  A$SpriteBiga$838                   SpriteBiga
     00026D55  A$SpriteBiga$839                   SpriteBiga
     00026D56  A$SpriteBiga$840                   SpriteBiga
     00026D58  A$SpriteBiga$841                   SpriteBiga
     00026D5B  A$SpriteBiga$842                   SpriteBiga
     00026D5C  A$SpriteBiga$843                   SpriteBiga
     00026D5D  A$SpriteBiga$844                   SpriteBiga
     00026D5E  A$SpriteBiga$845                   SpriteBiga
     00026D5F  A$SpriteBiga$846                   SpriteBiga
     00026D61  A$SpriteBiga$850                   SpriteBiga
     00026D61  C$SpriteBiga.c$80$2_4$197          SpriteBiga
     00026D64  A$SpriteBiga$851                   SpriteBiga
     00026D65  A$SpriteBiga$852                   SpriteBiga
     00026D67  A$SpriteBiga$853                   SpriteBiga
     00026D68  A$SpriteBiga$854                   SpriteBiga
     00026D69  A$SpriteBiga$855                   SpriteBiga
     00026D6B  A$SpriteBiga$856                   SpriteBiga
     00026D6D  A$SpriteBiga$857                   SpriteBiga
     00026D6F  A$SpriteBiga$858                   SpriteBiga
     00026D71  A$SpriteBiga$859                   SpriteBiga
     00026D72  A$SpriteBiga$860                   SpriteBiga
     00026D74  A$SpriteBiga$862                   SpriteBiga
     00026D76  A$SpriteBiga$863                   SpriteBiga
     00026D78  A$SpriteBiga$864                   SpriteBiga
     00026D79  A$SpriteBiga$866                   SpriteBiga
     00026D7B  A$SpriteBiga$870                   SpriteBiga
     00026D7B  C$SpriteBiga.c$81$3_4$198          SpriteBiga
     00026D7D  A$SpriteBiga$871                   SpriteBiga
     00026D7E  A$SpriteBiga$872                   SpriteBiga
     00026D7F  A$SpriteBiga$873                   SpriteBiga
     00026D82  A$SpriteBiga$874                   SpriteBiga
     00026D85  A$SpriteBiga$875                   SpriteBiga
     00026D86  A$SpriteBiga$876                   SpriteBiga
     00026D87  A$SpriteBiga$877                   SpriteBiga
     00026D88  A$SpriteBiga$878                   SpriteBiga
     00026D8B  A$SpriteBiga$879                   SpriteBiga
     00026D8D  A$SpriteBiga$884                   SpriteBiga
     00026D8D  C$SpriteBiga.c$82$2_4$197          SpriteBiga
     00026D90  A$SpriteBiga$885                   SpriteBiga
     00026D92  A$SpriteBiga$886                   SpriteBiga
     00026D94  A$SpriteBiga$887                   SpriteBiga
     00026D96  A$SpriteBiga$891                   SpriteBiga
     00026D96  C$SpriteBiga.c$83$3_4$199          SpriteBiga
     00026D98  A$SpriteBiga$892                   SpriteBiga
     00026D99  A$SpriteBiga$893                   SpriteBiga
     00026D9A  A$SpriteBiga$894                   SpriteBiga
     00026D9D  A$SpriteBiga$895                   SpriteBiga
     00026DA0  A$SpriteBiga$896                   SpriteBiga
     00026DA1  A$SpriteBiga$897                   SpriteBiga
     00026DA2  A$SpriteBiga$898                   SpriteBiga
     00026DA3  A$SpriteBiga$899                   SpriteBiga
ASxxxx Linker V03.00/V05.40 + sdld,  page 184.
Hexadecimal  [32-Bits]

Area                                    Addr        Size        Decimal Bytes (Attributes)
--------------------------------        ----        ----        ------- ----- ------------
_CODE_2                             00024000    00003FF1 =       16369. bytes (REL,CON)

      Value  Global                              Global Defined In Module
      -----  --------------------------------   ------------------------
     00026DA6  A$SpriteBiga$904                   SpriteBiga
     00026DA8  A$SpriteBiga$909                   SpriteBiga
     00026DA8  C$SpriteBiga.c$86$1_4$178          SpriteBiga
     00026DA8  XG$Update_SpriteBiga$0$0           SpriteBiga
     00026DA9  A$SpriteBiga$926                   SpriteBiga
     00026DA9  C$SpriteBiga.c$88$1_4$201          SpriteBiga
     00026DA9  C$SpriteBiga.c$89$1_4$201          SpriteBiga
     00026DA9  G$Destroy_SpriteBiga$0$0           SpriteBiga
     00026DA9  XG$Destroy_SpriteBiga$0$0          SpriteBiga
     00026DA9  _Destroy_SpriteBiga                SpriteBiga
     00026DAA  A$SpriteCompass$63                 SpriteCompass
     00026DAA  C$SpriteCompass.c$22$0_0$177       SpriteCompass
     00026DAA  C$SpriteCompass.c$23$1_0$177       SpriteCompass
     00026DAA  G$Start_SpriteCompass$0$0          SpriteCompass
     00026DAA  _Start_SpriteCompass               SpriteCompass
     00026DAD  A$SpriteCompass$64                 SpriteCompass
     00026DAE  A$SpriteCompass$65                 SpriteCompass
     00026DAF  A$SpriteCompass$66                 SpriteCompass
     00026DB0  A$SpriteCompass$67                 SpriteCompass
     00026DB3  A$SpriteCompass$68                 SpriteCompass
     00026DB4  A$SpriteCompass$69                 SpriteCompass
     00026DB6  A$SpriteCompass$70                 SpriteCompass
     00026DB7  A$SpriteCompass$71                 SpriteCompass
     00026DB9  A$SpriteCompass$75                 SpriteCompass
     00026DB9  C$SpriteCompass.c$24$1_0$177       SpriteCompass
     00026DBC  A$SpriteCompass$76                 SpriteCompass
     00026DBD  A$SpriteCompass$77                 SpriteCompass
     00026DBE  A$SpriteCompass$78                 SpriteCompass
     00026DBF  A$SpriteCompass$79                 SpriteCompass
     00026DC2  A$SpriteCompass$80                 SpriteCompass
     00026DC3  A$SpriteCompass$81                 SpriteCompass
     00026DC5  A$SpriteCompass$82                 SpriteCompass
     00026DC6  A$SpriteCompass$83                 SpriteCompass
     00026DC8  A$SpriteCompass$91                 SpriteCompass
     00026DC8  C$SpriteCompass.c$25$1_0$177       SpriteCompass
     00026DC8  XG$Start_SpriteCompass$0$0         SpriteCompass
     00026DC9  G$a_compass_h$0_0$0                SpriteCompass
     00026DC9  _a_compass_h                       SpriteCompass
     00026DCB  G$a_compass_33$0_0$0               SpriteCompass
     00026DCB  _a_compass_33                      SpriteCompass
     00026DCD  G$a_compass_66$0_0$0               SpriteCompass
     00026DCD  _a_compass_66                      SpriteCompass
     00026DCF  G$a_compass_v$0_0$0                SpriteCompass
     00026DCF  _a_compass_v                       SpriteCompass
     00026DD1  A$SpriteCompass$119                SpriteCompass
     00026DD1  C$SpriteCompass.c$27$1_0$178       SpriteCompass
     00026DD1  G$Update_SpriteCompass$0$0         SpriteCompass
     00026DD1  _Update_SpriteCompass              SpriteCompass
     00026DD2  A$SpriteCompass$120                SpriteCompass
     00026DD3  A$SpriteCompass$124                SpriteCompass
     00026DD3  C$SpriteCompass.c$29$1_0$178       SpriteCompass
ASxxxx Linker V03.00/V05.40 + sdld,  page 185.
Hexadecimal  [32-Bits]

Area                                    Addr        Size        Decimal Bytes (Attributes)
--------------------------------        ----        ----        ------- ----- ------------
_CODE_2                             00024000    00003FF1 =       16369. bytes (REL,CON)

      Value  Global                              Global Defined In Module
      -----  --------------------------------   ------------------------
     00026DD6  A$SpriteCompass$125                SpriteCompass
     00026DD7  A$SpriteCompass$126                SpriteCompass
     00026DD8  A$SpriteCompass$127                SpriteCompass
     00026DD9  A$SpriteCompass$128                SpriteCompass
     00026DDC  A$SpriteCompass$129                SpriteCompass
     00026DDD  A$SpriteCompass$130                SpriteCompass
     00026DDE  A$SpriteCompass$131                SpriteCompass
     00026DDF  A$SpriteCompass$132                SpriteCompass
     00026DE0  A$SpriteCompass$133                SpriteCompass
     00026DE3  A$SpriteCompass$134                SpriteCompass
     00026DE4  A$SpriteCompass$135                SpriteCompass
     00026DE5  A$SpriteCompass$136                SpriteCompass
     00026DE6  A$SpriteCompass$137                SpriteCompass
     00026DE9  A$SpriteCompass$138                SpriteCompass
     00026DEA  A$SpriteCompass$139                SpriteCompass
     00026DEB  A$SpriteCompass$140                SpriteCompass
     00026DEC  A$SpriteCompass$141                SpriteCompass
     00026DED  A$SpriteCompass$142                SpriteCompass
     00026DEE  A$SpriteCompass$143                SpriteCompass
     00026DEF  A$SpriteCompass$144                SpriteCompass
     00026DF0  A$SpriteCompass$145                SpriteCompass
     00026DF1  A$SpriteCompass$146                SpriteCompass
     00026DF2  A$SpriteCompass$150                SpriteCompass
     00026DF2  C$SpriteCompass.c$30$1_0$178       SpriteCompass
     00026DF5  A$SpriteCompass$151                SpriteCompass
     00026DF6  A$SpriteCompass$152                SpriteCompass
     00026DF7  A$SpriteCompass$153                SpriteCompass
     00026DF8  A$SpriteCompass$154                SpriteCompass
     00026DFB  A$SpriteCompass$155                SpriteCompass
     00026DFC  A$SpriteCompass$156                SpriteCompass
     00026DFD  A$SpriteCompass$157                SpriteCompass
     00026DFE  A$SpriteCompass$158                SpriteCompass
     00026DFF  A$SpriteCompass$159                SpriteCompass
     00026E02  A$SpriteCompass$160                SpriteCompass
     00026E03  A$SpriteCompass$161                SpriteCompass
     00026E04  A$SpriteCompass$162                SpriteCompass
     00026E05  A$SpriteCompass$163                SpriteCompass
     00026E08  A$SpriteCompass$164                SpriteCompass
     00026E09  A$SpriteCompass$165                SpriteCompass
     00026E0A  A$SpriteCompass$166                SpriteCompass
     00026E0B  A$SpriteCompass$167                SpriteCompass
     00026E0C  A$SpriteCompass$168                SpriteCompass
     00026E0D  A$SpriteCompass$169                SpriteCompass
     00026E0E  A$SpriteCompass$170                SpriteCompass
     00026E0F  A$SpriteCompass$171                SpriteCompass
     00026E10  A$SpriteCompass$172                SpriteCompass
     00026E11  A$SpriteCompass$176                SpriteCompass
     00026E11  C$SpriteCompass.c$33$2_0$179       SpriteCompass
     00026E14  A$SpriteCompass$177                SpriteCompass
     00026E15  A$SpriteCompass$181                SpriteCompass
     00026E15  C$SpriteCompass.c$35$1_1$179       SpriteCompass
ASxxxx Linker V03.00/V05.40 + sdld,  page 186.
Hexadecimal  [32-Bits]

Area                                    Addr        Size        Decimal Bytes (Attributes)
--------------------------------        ----        ----        ------- ----- ------------
_CODE_2                             00024000    00003FF1 =       16369. bytes (REL,CON)

      Value  Global                              Global Defined In Module
      -----  --------------------------------   ------------------------
     00026E17  A$SpriteCompass$182                SpriteCompass
     00026E19  A$SpriteCompass$183                SpriteCompass
     00026E1A  A$SpriteCompass$184                SpriteCompass
     00026E1B  A$SpriteCompass$185                SpriteCompass
     00026E1C  A$SpriteCompass$190                SpriteCompass
     00026E1C  C$SpriteCompass.c$36$1_1$178       SpriteCompass
     00026E1D  A$SpriteCompass$191                SpriteCompass
     00026E1F  A$SpriteCompass$192                SpriteCompass
     00026E20  A$SpriteCompass$193                SpriteCompass
     00026E21  A$SpriteCompass$194                SpriteCompass
     00026E23  A$SpriteCompass$195                SpriteCompass
     00026E25  A$SpriteCompass$196                SpriteCompass
     00026E27  A$SpriteCompass$197                SpriteCompass
     00026E29  A$SpriteCompass$198                SpriteCompass
     00026E2A  A$SpriteCompass$199                SpriteCompass
     00026E2C  A$SpriteCompass$201                SpriteCompass
     00026E2E  A$SpriteCompass$202                SpriteCompass
     00026E30  A$SpriteCompass$203                SpriteCompass
     00026E31  A$SpriteCompass$205                SpriteCompass
     00026E33  A$SpriteCompass$206                SpriteCompass
     00026E34  A$SpriteCompass$207                SpriteCompass
     00026E35  A$SpriteCompass$208                SpriteCompass
     00026E37  A$SpriteCompass$209                SpriteCompass
     00026E39  A$SpriteCompass$210                SpriteCompass
     00026E3B  A$SpriteCompass$211                SpriteCompass
     00026E3D  A$SpriteCompass$215                SpriteCompass
     00026E3D  C$SpriteCompass.c$37$2_1$182       SpriteCompass
     00026E3F  A$SpriteCompass$216                SpriteCompass
     00026E40  A$SpriteCompass$217                SpriteCompass
     00026E41  A$SpriteCompass$218                SpriteCompass
     00026E44  A$SpriteCompass$219                SpriteCompass
     00026E47  A$SpriteCompass$220                SpriteCompass
     00026E48  A$SpriteCompass$221                SpriteCompass
     00026E49  A$SpriteCompass$222                SpriteCompass
     00026E4A  A$SpriteCompass$223                SpriteCompass
     00026E4D  A$SpriteCompass$224                SpriteCompass
     00026E4F  A$SpriteCompass$229                SpriteCompass
     00026E4F  C$SpriteCompass.c$38$1_1$179       SpriteCompass
     00026E50  A$SpriteCompass$230                SpriteCompass
     00026E51  A$SpriteCompass$231                SpriteCompass
     00026E53  A$SpriteCompass$232                SpriteCompass
     00026E54  A$SpriteCompass$233                SpriteCompass
     00026E56  A$SpriteCompass$234                SpriteCompass
     00026E58  A$SpriteCompass$235                SpriteCompass
     00026E5A  A$SpriteCompass$239                SpriteCompass
     00026E5A  C$SpriteCompass.c$39$2_1$183       SpriteCompass
     00026E5C  A$SpriteCompass$240                SpriteCompass
     00026E5D  A$SpriteCompass$241                SpriteCompass
     00026E5E  A$SpriteCompass$242                SpriteCompass
     00026E61  A$SpriteCompass$243                SpriteCompass
     00026E64  A$SpriteCompass$244                SpriteCompass
ASxxxx Linker V03.00/V05.40 + sdld,  page 187.
Hexadecimal  [32-Bits]

Area                                    Addr        Size        Decimal Bytes (Attributes)
--------------------------------        ----        ----        ------- ----- ------------
_CODE_2                             00024000    00003FF1 =       16369. bytes (REL,CON)

      Value  Global                              Global Defined In Module
      -----  --------------------------------   ------------------------
     00026E65  A$SpriteCompass$245                SpriteCompass
     00026E66  A$SpriteCompass$246                SpriteCompass
     00026E67  A$SpriteCompass$247                SpriteCompass
     00026E6A  A$SpriteCompass$248                SpriteCompass
     00026E6C  A$SpriteCompass$253                SpriteCompass
     00026E6C  C$SpriteCompass.c$40$1_1$179       SpriteCompass
     00026E6D  A$SpriteCompass$254                SpriteCompass
     00026E6F  A$SpriteCompass$255                SpriteCompass
     00026E70  A$SpriteCompass$256                SpriteCompass
     00026E71  A$SpriteCompass$257                SpriteCompass
     00026E73  A$SpriteCompass$258                SpriteCompass
     00026E75  A$SpriteCompass$259                SpriteCompass
     00026E77  A$SpriteCompass$260                SpriteCompass
     00026E79  A$SpriteCompass$261                SpriteCompass
     00026E7A  A$SpriteCompass$262                SpriteCompass
     00026E7C  A$SpriteCompass$264                SpriteCompass
     00026E7E  A$SpriteCompass$265                SpriteCompass
     00026E80  A$SpriteCompass$266                SpriteCompass
     00026E81  A$SpriteCompass$268                SpriteCompass
     00026E83  A$SpriteCompass$269                SpriteCompass
     00026E84  A$SpriteCompass$270                SpriteCompass
     00026E86  A$SpriteCompass$271                SpriteCompass
     00026E88  A$SpriteCompass$272                SpriteCompass
     00026E8A  A$SpriteCompass$276                SpriteCompass
     00026E8A  C$SpriteCompass.c$41$2_1$184       SpriteCompass
     00026E8C  A$SpriteCompass$277                SpriteCompass
     00026E8D  A$SpriteCompass$278                SpriteCompass
     00026E8E  A$SpriteCompass$279                SpriteCompass
     00026E91  A$SpriteCompass$280                SpriteCompass
     00026E94  A$SpriteCompass$281                SpriteCompass
     00026E95  A$SpriteCompass$282                SpriteCompass
     00026E96  A$SpriteCompass$283                SpriteCompass
     00026E97  A$SpriteCompass$284                SpriteCompass
     00026E9A  A$SpriteCompass$285                SpriteCompass
     00026E9C  A$SpriteCompass$290                SpriteCompass
     00026E9C  C$SpriteCompass.c$42$1_1$179       SpriteCompass
     00026E9D  A$SpriteCompass$291                SpriteCompass
     00026E9F  A$SpriteCompass$292                SpriteCompass
     00026EA0  A$SpriteCompass$293                SpriteCompass
     00026EA1  A$SpriteCompass$294                SpriteCompass
     00026EA3  A$SpriteCompass$295                SpriteCompass
     00026EA5  A$SpriteCompass$296                SpriteCompass
     00026EA7  A$SpriteCompass$297                SpriteCompass
     00026EA9  A$SpriteCompass$298                SpriteCompass
     00026EAA  A$SpriteCompass$299                SpriteCompass
     00026EAC  A$SpriteCompass$301                SpriteCompass
     00026EAE  A$SpriteCompass$302                SpriteCompass
     00026EB0  A$SpriteCompass$303                SpriteCompass
     00026EB1  A$SpriteCompass$305                SpriteCompass
     00026EB3  A$SpriteCompass$309                SpriteCompass
     00026EB3  C$SpriteCompass.c$43$2_1$185       SpriteCompass
ASxxxx Linker V03.00/V05.40 + sdld,  page 188.
Hexadecimal  [32-Bits]

Area                                    Addr        Size        Decimal Bytes (Attributes)
--------------------------------        ----        ----        ------- ----- ------------
_CODE_2                             00024000    00003FF1 =       16369. bytes (REL,CON)

      Value  Global                              Global Defined In Module
      -----  --------------------------------   ------------------------
     00026EB5  A$SpriteCompass$310                SpriteCompass
     00026EB6  A$SpriteCompass$311                SpriteCompass
     00026EB7  A$SpriteCompass$312                SpriteCompass
     00026EBA  A$SpriteCompass$313                SpriteCompass
     00026EBD  A$SpriteCompass$314                SpriteCompass
     00026EBE  A$SpriteCompass$315                SpriteCompass
     00026EBF  A$SpriteCompass$316                SpriteCompass
     00026EC0  A$SpriteCompass$317                SpriteCompass
     00026EC3  A$SpriteCompass$322                SpriteCompass
     00026EC3  C$SpriteCompass.c$45$1_1$179       SpriteCompass
     00026EC6  A$SpriteCompass$323                SpriteCompass
     00026EC7  A$SpriteCompass$324                SpriteCompass
     00026EC8  A$SpriteCompass$325                SpriteCompass
     00026EC9  A$SpriteCompass$326                SpriteCompass
     00026ECA  A$SpriteCompass$327                SpriteCompass
     00026ECC  A$SpriteCompass$328                SpriteCompass
     00026ECE  A$SpriteCompass$329                SpriteCompass
     00026ED0  A$SpriteCompass$330                SpriteCompass
     00026ED2  A$SpriteCompass$331                SpriteCompass
     00026ED3  A$SpriteCompass$332                SpriteCompass
     00026ED5  A$SpriteCompass$334                SpriteCompass
     00026ED7  A$SpriteCompass$335                SpriteCompass
     00026ED9  A$SpriteCompass$336                SpriteCompass
     00026EDA  A$SpriteCompass$338                SpriteCompass
     00026EDC  A$SpriteCompass$339                SpriteCompass
     00026EDF  A$SpriteCompass$340                SpriteCompass
     00026EE0  A$SpriteCompass$341                SpriteCompass
     00026EE1  A$SpriteCompass$342                SpriteCompass
     00026EE2  A$SpriteCompass$343                SpriteCompass
     00026EE3  A$SpriteCompass$344                SpriteCompass
     00026EE5  A$SpriteCompass$345                SpriteCompass
     00026EE7  A$SpriteCompass$346                SpriteCompass
     00026EE9  A$SpriteCompass$347                SpriteCompass
     00026EEB  A$SpriteCompass$348                SpriteCompass
     00026EEC  A$SpriteCompass$349                SpriteCompass
     00026EEE  A$SpriteCompass$351                SpriteCompass
     00026EF0  A$SpriteCompass$352                SpriteCompass
     00026EF2  A$SpriteCompass$353                SpriteCompass
     00026EF3  A$SpriteCompass$355                SpriteCompass
     00026EF5  A$SpriteCompass$359                SpriteCompass
     00026EF5  C$SpriteCompass.c$46$2_1$186       SpriteCompass
     00026EF8  A$SpriteCompass$360                SpriteCompass
     00026EF9  A$SpriteCompass$361                SpriteCompass
     00026EFA  A$SpriteCompass$362                SpriteCompass
     00026EFB  A$SpriteCompass$363                SpriteCompass
     00026EFE  A$SpriteCompass$364                SpriteCompass
     00026EFF  A$SpriteCompass$365                SpriteCompass
     00026F01  A$SpriteCompass$370                SpriteCompass
     00026F01  C$SpriteCompass.c$48$1_1$179       SpriteCompass
     00026F04  A$SpriteCompass$371                SpriteCompass
     00026F05  A$SpriteCompass$372                SpriteCompass
ASxxxx Linker V03.00/V05.40 + sdld,  page 189.
Hexadecimal  [32-Bits]

Area                                    Addr        Size        Decimal Bytes (Attributes)
--------------------------------        ----        ----        ------- ----- ------------
_CODE_2                             00024000    00003FF1 =       16369. bytes (REL,CON)

      Value  Global                              Global Defined In Module
      -----  --------------------------------   ------------------------
     00026F06  A$SpriteCompass$373                SpriteCompass
     00026F07  A$SpriteCompass$374                SpriteCompass
     00026F08  A$SpriteCompass$375                SpriteCompass
     00026F0A  A$SpriteCompass$376                SpriteCompass
     00026F0C  A$SpriteCompass$377                SpriteCompass
     00026F0E  A$SpriteCompass$378                SpriteCompass
     00026F10  A$SpriteCompass$379                SpriteCompass
     00026F11  A$SpriteCompass$380                SpriteCompass
     00026F13  A$SpriteCompass$382                SpriteCompass
     00026F15  A$SpriteCompass$383                SpriteCompass
     00026F17  A$SpriteCompass$384                SpriteCompass
     00026F18  A$SpriteCompass$386                SpriteCompass
     00026F1A  A$SpriteCompass$387                SpriteCompass
     00026F1D  A$SpriteCompass$388                SpriteCompass
     00026F1F  A$SpriteCompass$389                SpriteCompass
     00026F21  A$SpriteCompass$393                SpriteCompass
     00026F21  C$SpriteCompass.c$49$2_1$187       SpriteCompass
     00026F24  A$SpriteCompass$394                SpriteCompass
     00026F25  A$SpriteCompass$395                SpriteCompass
     00026F26  A$SpriteCompass$396                SpriteCompass
     00026F27  A$SpriteCompass$397                SpriteCompass
     00026F2A  A$SpriteCompass$398                SpriteCompass
     00026F2B  A$SpriteCompass$399                SpriteCompass
     00026F2D  A$SpriteCompass$404                SpriteCompass
     00026F2D  C$SpriteCompass.c$51$1_1$179       SpriteCompass
     00026F30  A$SpriteCompass$405                SpriteCompass
     00026F32  A$SpriteCompass$406                SpriteCompass
     00026F34  A$SpriteCompass$407                SpriteCompass
     00026F37  A$SpriteCompass$408                SpriteCompass
     00026F38  A$SpriteCompass$409                SpriteCompass
     00026F39  A$SpriteCompass$410                SpriteCompass
     00026F3A  A$SpriteCompass$411                SpriteCompass
     00026F3B  A$SpriteCompass$412                SpriteCompass
     00026F3D  A$SpriteCompass$413                SpriteCompass
     00026F3F  A$SpriteCompass$414                SpriteCompass
     00026F41  A$SpriteCompass$415                SpriteCompass
     00026F43  A$SpriteCompass$416                SpriteCompass
     00026F44  A$SpriteCompass$417                SpriteCompass
     00026F46  A$SpriteCompass$419                SpriteCompass
     00026F48  A$SpriteCompass$420                SpriteCompass
     00026F4A  A$SpriteCompass$421                SpriteCompass
     00026F4B  A$SpriteCompass$423                SpriteCompass
     00026F4D  A$SpriteCompass$427                SpriteCompass
     00026F4D  C$SpriteCompass.c$52$2_1$188       SpriteCompass
     00026F50  A$SpriteCompass$428                SpriteCompass
     00026F51  A$SpriteCompass$429                SpriteCompass
     00026F52  A$SpriteCompass$430                SpriteCompass
     00026F53  A$SpriteCompass$431                SpriteCompass
     00026F56  A$SpriteCompass$432                SpriteCompass
     00026F57  A$SpriteCompass$433                SpriteCompass
     00026F59  A$SpriteCompass$438                SpriteCompass
ASxxxx Linker V03.00/V05.40 + sdld,  page 190.
Hexadecimal  [32-Bits]

Area                                    Addr        Size        Decimal Bytes (Attributes)
--------------------------------        ----        ----        ------- ----- ------------
_CODE_2                             00024000    00003FF1 =       16369. bytes (REL,CON)

      Value  Global                              Global Defined In Module
      -----  --------------------------------   ------------------------
     00026F59  C$SpriteCompass.c$54$1_1$179       SpriteCompass
     00026F5C  A$SpriteCompass$439                SpriteCompass
     00026F5E  A$SpriteCompass$440                SpriteCompass
     00026F60  A$SpriteCompass$441                SpriteCompass
     00026F63  A$SpriteCompass$442                SpriteCompass
     00026F65  A$SpriteCompass$443                SpriteCompass
     00026F67  A$SpriteCompass$447                SpriteCompass
     00026F67  C$SpriteCompass.c$55$2_1$189       SpriteCompass
     00026F6A  A$SpriteCompass$448                SpriteCompass
     00026F6B  A$SpriteCompass$449                SpriteCompass
     00026F6C  A$SpriteCompass$450                SpriteCompass
     00026F6D  A$SpriteCompass$451                SpriteCompass
     00026F70  A$SpriteCompass$452                SpriteCompass
     00026F71  A$SpriteCompass$453                SpriteCompass
     00026F73  A$SpriteCompass$458                SpriteCompass
     00026F74  A$SpriteCompass$459                SpriteCompass
     00026F75  A$SpriteCompass$464                SpriteCompass
     00026F75  C$SpriteCompass.c$57$1_1$178       SpriteCompass
     00026F75  XG$Update_SpriteCompass$0$0        SpriteCompass
     00026F76  A$SpriteCompass$481                SpriteCompass
     00026F76  C$SpriteCompass.c$59$1_1$191       SpriteCompass
     00026F76  C$SpriteCompass.c$60$1_1$191       SpriteCompass
     00026F76  G$Destroy_SpriteCompass$0$0        SpriteCompass
     00026F76  XG$Destroy_SpriteCompass$0$0       SpriteCompass
     00026F76  _Destroy_SpriteCompass             SpriteCompass
     00026F77  A$SpriteHorse$154                  SpriteHorse
     00026F77  C$SpriteHorse.c$51$0_0$190         SpriteHorse
     00026F77  C$SpriteHorse.c$52$1_0$190         SpriteHorse
     00026F77  G$Start_SpriteHorse$0$0            SpriteHorse
     00026F77  _Start_SpriteHorse                 SpriteHorse
     00026F79  A$SpriteHorse$155                  SpriteHorse
     00026F7A  A$SpriteHorse$156                  SpriteHorse
     00026F7B  A$SpriteHorse$157                  SpriteHorse
     00026F7E  A$SpriteHorse$158                  SpriteHorse
     00026F81  A$SpriteHorse$159                  SpriteHorse
     00026F82  A$SpriteHorse$160                  SpriteHorse
     00026F83  A$SpriteHorse$161                  SpriteHorse
     00026F84  A$SpriteHorse$162                  SpriteHorse
     00026F87  A$SpriteHorse$166                  SpriteHorse
     00026F87  C$SpriteHorse.c$53$1_0$190         SpriteHorse
     00026F8A  A$SpriteHorse$167                  SpriteHorse
     00026F8D  A$SpriteHorse$171                  SpriteHorse
     00026F8D  C$SpriteHorse.c$54$1_0$190         SpriteHorse
     00026F90  A$SpriteHorse$172                  SpriteHorse
     00026F91  A$SpriteHorse$173                  SpriteHorse
     00026F92  A$SpriteHorse$174                  SpriteHorse
     00026F93  A$SpriteHorse$175                  SpriteHorse
     00026F96  A$SpriteHorse$176                  SpriteHorse
     00026F97  A$SpriteHorse$177                  SpriteHorse
     00026F99  A$SpriteHorse$178                  SpriteHorse
     00026F9A  A$SpriteHorse$179                  SpriteHorse
ASxxxx Linker V03.00/V05.40 + sdld,  page 191.
Hexadecimal  [32-Bits]

Area                                    Addr        Size        Decimal Bytes (Attributes)
--------------------------------        ----        ----        ------- ----- ------------
_CODE_2                             00024000    00003FF1 =       16369. bytes (REL,CON)

      Value  Global                              Global Defined In Module
      -----  --------------------------------   ------------------------
     00026F9C  A$SpriteHorse$183                  SpriteHorse
     00026F9C  C$SpriteHorse.c$55$1_0$190         SpriteHorse
     00026F9F  A$SpriteHorse$184                  SpriteHorse
     00026FA0  A$SpriteHorse$185                  SpriteHorse
     00026FA1  A$SpriteHorse$186                  SpriteHorse
     00026FA2  A$SpriteHorse$187                  SpriteHorse
     00026FA5  A$SpriteHorse$188                  SpriteHorse
     00026FA6  A$SpriteHorse$189                  SpriteHorse
     00026FA8  A$SpriteHorse$190                  SpriteHorse
     00026FA9  A$SpriteHorse$191                  SpriteHorse
     00026FAB  A$SpriteHorse$199                  SpriteHorse
     00026FAB  C$SpriteHorse.c$56$1_0$190         SpriteHorse
     00026FAB  XG$Start_SpriteHorse$0$0           SpriteHorse
     00026FAC  G$a_horse_h$0_0$0                  SpriteHorse
     00026FAC  _a_horse_h                         SpriteHorse
     00026FB5  G$a_horse_hit$0_0$0                SpriteHorse
     00026FB5  _a_horse_hit                       SpriteHorse
     00026FC5  G$a_horse_h_idle$0_0$0             SpriteHorse
     00026FC5  _a_horse_h_idle                    SpriteHorse
     00026FC7  A$SpriteHorse$244                  SpriteHorse
     00026FC7  C$SpriteHorse.c$58$1_0$191         SpriteHorse
     00026FC7  G$Update_SpriteHorse$0$0           SpriteHorse
     00026FC7  _Update_SpriteHorse                SpriteHorse
     00026FC9  A$SpriteHorse$248                  SpriteHorse
     00026FC9  C$SpriteHorse.c$64$2_3$191         SpriteHorse
     00026FCC  A$SpriteHorse$249                  SpriteHorse
     00026FCD  A$SpriteHorse$253                  SpriteHorse
     00026FCD  C$SpriteHorse.c$60$1_0$191         SpriteHorse
     00026FD0  A$SpriteHorse$254                  SpriteHorse
     00026FD1  A$SpriteHorse$255                  SpriteHorse
     00026FD2  A$SpriteHorse$256                  SpriteHorse
     00026FD3  A$SpriteHorse$257                  SpriteHorse
     00026FD4  A$SpriteHorse$258                  SpriteHorse
     00026FD6  A$SpriteHorse$259                  SpriteHorse
     00026FD8  A$SpriteHorse$260                  SpriteHorse
     00026FDA  A$SpriteHorse$261                  SpriteHorse
     00026FDC  A$SpriteHorse$262                  SpriteHorse
     00026FDD  A$SpriteHorse$263                  SpriteHorse
     00026FDF  A$SpriteHorse$265                  SpriteHorse
     00026FE1  A$SpriteHorse$266                  SpriteHorse
     00026FE3  A$SpriteHorse$267                  SpriteHorse
     00026FE4  A$SpriteHorse$269                  SpriteHorse
     00026FE6  A$SpriteHorse$273                  SpriteHorse
     00026FE6  C$SpriteHorse.c$61$2_0$192         SpriteHorse
     00026FE9  A$SpriteHorse$274                  SpriteHorse
     00026FEC  A$SpriteHorse$275                  SpriteHorse
     00026FED  A$SpriteHorse$276                  SpriteHorse
     00026FEF  A$SpriteHorse$277                  SpriteHorse
     00026FF2  A$SpriteHorse$278                  SpriteHorse
     00026FF5  A$SpriteHorse$279                  SpriteHorse
     00026FF6  A$SpriteHorse$280                  SpriteHorse
ASxxxx Linker V03.00/V05.40 + sdld,  page 192.
Hexadecimal  [32-Bits]

Area                                    Addr        Size        Decimal Bytes (Attributes)
--------------------------------        ----        ----        ------- ----- ------------
_CODE_2                             00024000    00003FF1 =       16369. bytes (REL,CON)

      Value  Global                              Global Defined In Module
      -----  --------------------------------   ------------------------
     00026FF8  A$SpriteHorse$284                  SpriteHorse
     00026FF8  C$SpriteHorse.c$62$3_0$193         SpriteHorse
     00026FFB  A$SpriteHorse$285                  SpriteHorse
     00026FFD  A$SpriteHorse$289                  SpriteHorse
     00026FFD  C$SpriteHorse.c$63$3_0$193         SpriteHorse
     00027000  A$SpriteHorse$290                  SpriteHorse
     00027003  A$SpriteHorse$294                  SpriteHorse
     00027003  C$SpriteHorse.c$64$3_0$193         SpriteHorse
     00027006  A$SpriteHorse$295                  SpriteHorse
     00027007  A$SpriteHorse$296                  SpriteHorse
     00027009  A$SpriteHorse$301                  SpriteHorse
     00027009  C$SpriteHorse.c$66$3_0$194         SpriteHorse
     0002700C  A$SpriteHorse$302                  SpriteHorse
     0002700E  A$SpriteHorse$303                  SpriteHorse
     00027010  A$SpriteHorse$308                  SpriteHorse
     00027010  C$SpriteHorse.c$69$2_0$195         SpriteHorse
     00027013  A$SpriteHorse$309                  SpriteHorse
     00027014  A$SpriteHorse$314                  SpriteHorse
     00027014  C$SpriteHorse.c$71$1_0$191         SpriteHorse
     00027017  A$SpriteHorse$315                  SpriteHorse
     00027018  A$SpriteHorse$316                  SpriteHorse
     00027019  A$SpriteHorse$317                  SpriteHorse
     0002701A  A$SpriteHorse$318                  SpriteHorse
     0002701B  A$SpriteHorse$319                  SpriteHorse
     0002701D  A$SpriteHorse$320                  SpriteHorse
     0002701F  A$SpriteHorse$321                  SpriteHorse
     00027021  A$SpriteHorse$322                  SpriteHorse
     00027023  A$SpriteHorse$323                  SpriteHorse
     00027024  A$SpriteHorse$324                  SpriteHorse
     00027026  A$SpriteHorse$326                  SpriteHorse
     00027028  A$SpriteHorse$327                  SpriteHorse
     0002702A  A$SpriteHorse$328                  SpriteHorse
     0002702B  A$SpriteHorse$330                  SpriteHorse
     0002702D  A$SpriteHorse$334                  SpriteHorse
     0002702D  C$SpriteHorse.c$72$2_3$191         SpriteHorse
     00027030  A$SpriteHorse$335                  SpriteHorse
     00027031  A$SpriteHorse$336                  SpriteHorse
     00027034  A$SpriteHorse$337                  SpriteHorse
     00027037  A$SpriteHorse$338                  SpriteHorse
     0002703A  A$SpriteHorse$339                  SpriteHorse
     0002703B  A$SpriteHorse$340                  SpriteHorse
     0002703C  A$SpriteHorse$341                  SpriteHorse
     0002703D  A$SpriteHorse$342                  SpriteHorse
     0002703E  A$SpriteHorse$343                  SpriteHorse
     0002703F  A$SpriteHorse$344                  SpriteHorse
     00027040  A$SpriteHorse$345                  SpriteHorse
     00027042  A$SpriteHorse$350                  SpriteHorse
     00027042  C$SpriteHorse.c$74$2_0$197         SpriteHorse
     00027045  A$SpriteHorse$351                  SpriteHorse
     00027046  A$SpriteHorse$352                  SpriteHorse
     00027047  A$SpriteHorse$353                  SpriteHorse
ASxxxx Linker V03.00/V05.40 + sdld,  page 193.
Hexadecimal  [32-Bits]

Area                                    Addr        Size        Decimal Bytes (Attributes)
--------------------------------        ----        ----        ------- ----- ------------
_CODE_2                             00024000    00003FF1 =       16369. bytes (REL,CON)

      Value  Global                              Global Defined In Module
      -----  --------------------------------   ------------------------
     00027048  A$SpriteHorse$354                  SpriteHorse
     00027049  A$SpriteHorse$355                  SpriteHorse
     0002704B  A$SpriteHorse$356                  SpriteHorse
     0002704D  A$SpriteHorse$357                  SpriteHorse
     0002704F  A$SpriteHorse$358                  SpriteHorse
     00027051  A$SpriteHorse$359                  SpriteHorse
     00027052  A$SpriteHorse$360                  SpriteHorse
     00027054  A$SpriteHorse$362                  SpriteHorse
     00027056  A$SpriteHorse$363                  SpriteHorse
     00027058  A$SpriteHorse$364                  SpriteHorse
     00027059  A$SpriteHorse$366                  SpriteHorse
     0002705B  A$SpriteHorse$370                  SpriteHorse
     0002705B  C$SpriteHorse.c$75$3_0$198         SpriteHorse
     0002705E  A$SpriteHorse$374                  SpriteHorse
     0002705E  C$SpriteHorse.c$76$3_0$198         SpriteHorse
     0002705F  A$SpriteHorse$375                  SpriteHorse
     00027061  A$SpriteHorse$379                  SpriteHorse
     00027061  C$SpriteHorse.c$77$4_0$199         SpriteHorse
     00027064  A$SpriteHorse$380                  SpriteHorse
     00027065  A$SpriteHorse$381                  SpriteHorse
     00027066  A$SpriteHorse$382                  SpriteHorse
     00027067  A$SpriteHorse$383                  SpriteHorse
     00027068  A$SpriteHorse$384                  SpriteHorse
     0002706B  A$SpriteHorse$385                  SpriteHorse
     0002706C  A$SpriteHorse$386                  SpriteHorse
     0002706D  A$SpriteHorse$387                  SpriteHorse
     0002706E  A$SpriteHorse$388                  SpriteHorse
     0002706F  A$SpriteHorse$389                  SpriteHorse
     00027070  A$SpriteHorse$390                  SpriteHorse
     00027071  A$SpriteHorse$394                  SpriteHorse
     00027071  C$SpriteHorse.c$78$4_0$199         SpriteHorse
     00027074  A$SpriteHorse$395                  SpriteHorse
     00027075  A$SpriteHorse$400                  SpriteHorse
     00027075  C$SpriteHorse.c$82$1_0$191         SpriteHorse
     00027078  A$SpriteHorse$401                  SpriteHorse
     0002707A  A$SpriteHorse$402                  SpriteHorse
     0002707C  A$SpriteHorse$406                  SpriteHorse
     0002707C  C$SpriteHorse.c$83$2_0$200         SpriteHorse
     0002707D  A$SpriteHorse$407                  SpriteHorse
     0002707E  A$SpriteHorse$408                  SpriteHorse
     0002707F  A$SpriteHorse$409                  SpriteHorse
     00027080  A$SpriteHorse$414                  SpriteHorse
     00027080  C$SpriteHorse.c$85$1_0$191         SpriteHorse
     00027083  A$SpriteHorse$415                  SpriteHorse
     00027085  A$SpriteHorse$416                  SpriteHorse
     00027086  A$SpriteHorse$417                  SpriteHorse
     00027087  A$SpriteHorse$418                  SpriteHorse
     00027089  A$SpriteHorse$419                  SpriteHorse
     0002708A  A$SpriteHorse$420                  SpriteHorse
     0002708C  A$SpriteHorse$421                  SpriteHorse
     0002708D  A$SpriteHorse$422                  SpriteHorse
ASxxxx Linker V03.00/V05.40 + sdld,  page 194.
Hexadecimal  [32-Bits]

Area                                    Addr        Size        Decimal Bytes (Attributes)
--------------------------------        ----        ----        ------- ----- ------------
_CODE_2                             00024000    00003FF1 =       16369. bytes (REL,CON)

      Value  Global                              Global Defined In Module
      -----  --------------------------------   ------------------------
     0002708F  A$SpriteHorse$423                  SpriteHorse
     00027091  A$SpriteHorse$424                  SpriteHorse
     00027093  A$SpriteHorse$425                  SpriteHorse
     00027095  A$SpriteHorse$426                  SpriteHorse
     00027096  A$SpriteHorse$427                  SpriteHorse
     00027098  A$SpriteHorse$429                  SpriteHorse
     0002709A  A$SpriteHorse$430                  SpriteHorse
     0002709C  A$SpriteHorse$431                  SpriteHorse
     0002709D  A$SpriteHorse$433                  SpriteHorse
     0002709F  A$SpriteHorse$437                  SpriteHorse
     0002709F  C$SpriteHorse.c$86$2_0$201         SpriteHorse
     000270A2  A$SpriteHorse$438                  SpriteHorse
     000270A4  A$SpriteHorse$439                  SpriteHorse
     000270A5  A$SpriteHorse$440                  SpriteHorse
     000270A7  A$SpriteHorse$445                  SpriteHorse
     000270A7  C$SpriteHorse.c$89$2_0$202         SpriteHorse
     000270AA  A$SpriteHorse$449                  SpriteHorse
     000270AA  C$SpriteHorse.c$90$1_1$202         SpriteHorse
     000270AD  A$SpriteHorse$450                  SpriteHorse
     000270AE  A$SpriteHorse$451                  SpriteHorse
     000270AF  A$SpriteHorse$452                  SpriteHorse
     000270B0  A$SpriteHorse$453                  SpriteHorse
     000270B3  A$SpriteHorse$454                  SpriteHorse
     000270B4  A$SpriteHorse$455                  SpriteHorse
     000270B5  A$SpriteHorse$456                  SpriteHorse
     000270B6  A$SpriteHorse$457                  SpriteHorse
     000270B7  A$SpriteHorse$458                  SpriteHorse
     000270B9  A$SpriteHorse$462                  SpriteHorse
     000270B9  C$SpriteHorse.c$91$2_1$203         SpriteHorse
     000270BA  A$SpriteHorse$463                  SpriteHorse
     000270BB  A$SpriteHorse$464                  SpriteHorse
     000270BC  A$SpriteHorse$465                  SpriteHorse
     000270BD  A$SpriteHorse$466                  SpriteHorse
     000270BE  A$SpriteHorse$467                  SpriteHorse
     000270BF  A$SpriteHorse$468                  SpriteHorse
     000270C0  A$SpriteHorse$469                  SpriteHorse
     000270C1  A$SpriteHorse$470                  SpriteHorse
     000270C3  A$SpriteHorse$475                  SpriteHorse
     000270C3  C$SpriteHorse.c$92$1_1$202         SpriteHorse
     000270C6  A$SpriteHorse$476                  SpriteHorse
     000270C7  A$SpriteHorse$477                  SpriteHorse
     000270C8  A$SpriteHorse$478                  SpriteHorse
     000270C9  A$SpriteHorse$479                  SpriteHorse
     000270CA  A$SpriteHorse$480                  SpriteHorse
     000270CB  A$SpriteHorse$481                  SpriteHorse
     000270CD  A$SpriteHorse$485                  SpriteHorse
     000270CD  C$SpriteHorse.c$93$2_1$204         SpriteHorse
     000270D0  A$SpriteHorse$486                  SpriteHorse
     000270D1  A$SpriteHorse$487                  SpriteHorse
     000270D2  A$SpriteHorse$488                  SpriteHorse
     000270D3  A$SpriteHorse$489                  SpriteHorse
ASxxxx Linker V03.00/V05.40 + sdld,  page 195.
Hexadecimal  [32-Bits]

Area                                    Addr        Size        Decimal Bytes (Attributes)
--------------------------------        ----        ----        ------- ----- ------------
_CODE_2                             00024000    00003FF1 =       16369. bytes (REL,CON)

      Value  Global                              Global Defined In Module
      -----  --------------------------------   ------------------------
     000270D4  A$SpriteHorse$490                  SpriteHorse
     000270D5  A$SpriteHorse$491                  SpriteHorse
     000270D6  A$SpriteHorse$496                  SpriteHorse
     000270D6  C$SpriteHorse.c$95$1_1$202         SpriteHorse
     000270D7  A$SpriteHorse$497                  SpriteHorse
     000270D9  A$SpriteHorse$498                  SpriteHorse
     000270DB  A$SpriteHorse$499                  SpriteHorse
     000270DC  A$SpriteHorse$500                  SpriteHorse
     000270DE  A$SpriteHorse$501                  SpriteHorse
     000270DF  A$SpriteHorse$502                  SpriteHorse
     000270E1  A$SpriteHorse$503                  SpriteHorse
     000270E3  A$SpriteHorse$504                  SpriteHorse
     000270E5  A$SpriteHorse$505                  SpriteHorse
     000270E7  A$SpriteHorse$506                  SpriteHorse
     000270E8  A$SpriteHorse$507                  SpriteHorse
     000270EA  A$SpriteHorse$509                  SpriteHorse
     000270EC  A$SpriteHorse$510                  SpriteHorse
     000270EE  A$SpriteHorse$511                  SpriteHorse
     000270EF  A$SpriteHorse$513                  SpriteHorse
     000270F1  A$SpriteHorse$517                  SpriteHorse
     000270F1  C$SpriteHorse.c$96$2_1$205         SpriteHorse
     000270F3  A$SpriteHorse$518                  SpriteHorse
     000270F5  A$SpriteHorse$519                  SpriteHorse
     000270F7  A$SpriteHorse$520                  SpriteHorse
     000270F9  A$SpriteHorse$521                  SpriteHorse
     000270FB  A$SpriteHorse$522                  SpriteHorse
     000270FD  A$SpriteHorse$523                  SpriteHorse
     000270FF  A$SpriteHorse$524                  SpriteHorse
     00027101  A$SpriteHorse$525                  SpriteHorse
     00027104  A$SpriteHorse$526                  SpriteHorse
     00027105  A$SpriteHorse$527                  SpriteHorse
     00027107  A$SpriteHorse$532                  SpriteHorse
     00027107  C$SpriteHorse.c$98$2_1$206         SpriteHorse
     0002710A  A$SpriteHorse$533                  SpriteHorse
     0002710C  A$SpriteHorse$538                  SpriteHorse
     0002710C  C$SpriteHorse.c$102$2_3$191        SpriteHorse
     0002710F  A$SpriteHorse$539                  SpriteHorse
     00027110  A$SpriteHorse$540                  SpriteHorse
     00027113  A$SpriteHorse$541                  SpriteHorse
     00027114  A$SpriteHorse$542                  SpriteHorse
     00027115  A$SpriteHorse$543                  SpriteHorse
     00027117  A$SpriteHorse$544                  SpriteHorse
     00027118  A$SpriteHorse$545                  SpriteHorse
     00027119  A$SpriteHorse$546                  SpriteHorse
     0002711B  A$SpriteHorse$547                  SpriteHorse
     0002711C  A$SpriteHorse$548                  SpriteHorse
     0002711D  A$SpriteHorse$549                  SpriteHorse
     0002711F  A$SpriteHorse$550                  SpriteHorse
     00027121  A$SpriteHorse$551                  SpriteHorse
     00027122  A$SpriteHorse$552                  SpriteHorse
     00027124  A$SpriteHorse$554                  SpriteHorse
ASxxxx Linker V03.00/V05.40 + sdld,  page 196.
Hexadecimal  [32-Bits]

Area                                    Addr        Size        Decimal Bytes (Attributes)
--------------------------------        ----        ----        ------- ----- ------------
_CODE_2                             00024000    00003FF1 =       16369. bytes (REL,CON)

      Value  Global                              Global Defined In Module
      -----  --------------------------------   ------------------------
     00027126  A$SpriteHorse$555                  SpriteHorse
     00027128  A$SpriteHorse$556                  SpriteHorse
     00027129  A$SpriteHorse$557                  SpriteHorse
     0002712A  A$SpriteHorse$558                  SpriteHorse
     0002712C  A$SpriteHorse$560                  SpriteHorse
     0002712F  A$SpriteHorse$561                  SpriteHorse
     00027131  A$SpriteHorse$566                  SpriteHorse
     00027131  C$SpriteHorse.c$107$2_3$191        SpriteHorse
     00027134  A$SpriteHorse$567                  SpriteHorse
     00027135  A$SpriteHorse$568                  SpriteHorse
     00027136  A$SpriteHorse$572                  SpriteHorse
     00027136  C$SpriteHorse.c$104$1_1$202        SpriteHorse
     00027137  A$SpriteHorse$573                  SpriteHorse
     00027139  A$SpriteHorse$577                  SpriteHorse
     00027139  C$SpriteHorse.c$105$2_1$208        SpriteHorse
     0002713C  A$SpriteHorse$578                  SpriteHorse
     0002713E  A$SpriteHorse$582                  SpriteHorse
     0002713E  C$SpriteHorse.c$106$2_1$208        SpriteHorse
     00027141  A$SpriteHorse$583                  SpriteHorse
     00027142  A$SpriteHorse$587                  SpriteHorse
     00027142  C$SpriteHorse.c$107$2_1$208        SpriteHorse
     00027145  A$SpriteHorse$588                  SpriteHorse
     00027146  A$SpriteHorse$592                  SpriteHorse
     00027146  C$SpriteHorse.c$108$2_1$208        SpriteHorse
     00027147  A$SpriteHorse$593                  SpriteHorse
     00027149  A$SpriteHorse$594                  SpriteHorse
     0002714B  A$SpriteHorse$595                  SpriteHorse
     0002714E  A$SpriteHorse$596                  SpriteHorse
     00027151  A$SpriteHorse$597                  SpriteHorse
     00027152  A$SpriteHorse$598                  SpriteHorse
     00027154  A$SpriteHorse$599                  SpriteHorse
     00027155  A$SpriteHorse$600                  SpriteHorse
     00027156  A$SpriteHorse$601                  SpriteHorse
     00027158  A$SpriteHorse$602                  SpriteHorse
     0002715A  A$SpriteHorse$603                  SpriteHorse
     0002715C  A$SpriteHorse$604                  SpriteHorse
     0002715E  A$SpriteHorse$605                  SpriteHorse
     0002715F  A$SpriteHorse$606                  SpriteHorse
     00027161  A$SpriteHorse$608                  SpriteHorse
     00027163  A$SpriteHorse$609                  SpriteHorse
     00027165  A$SpriteHorse$610                  SpriteHorse
     00027166  A$SpriteHorse$612                  SpriteHorse
     00027168  A$SpriteHorse$613                  SpriteHorse
     0002716B  A$SpriteHorse$614                  SpriteHorse
     0002716D  A$SpriteHorse$615                  SpriteHorse
     0002716F  A$SpriteHorse$616                  SpriteHorse
     00027171  A$SpriteHorse$618                  SpriteHorse
     00027174  A$SpriteHorse$619                  SpriteHorse
     00027175  A$SpriteHorse$620                  SpriteHorse
     00027177  A$SpriteHorse$621                  SpriteHorse
     00027179  A$SpriteHorse$622                  SpriteHorse
ASxxxx Linker V03.00/V05.40 + sdld,  page 197.
Hexadecimal  [32-Bits]

Area                                    Addr        Size        Decimal Bytes (Attributes)
--------------------------------        ----        ----        ------- ----- ------------
_CODE_2                             00024000    00003FF1 =       16369. bytes (REL,CON)

      Value  Global                              Global Defined In Module
      -----  --------------------------------   ------------------------
     0002717B  A$SpriteHorse$623                  SpriteHorse
     0002717C  A$SpriteHorse$624                  SpriteHorse
     0002717E  A$SpriteHorse$625                  SpriteHorse
     0002717F  A$SpriteHorse$626                  SpriteHorse
     00027180  A$SpriteHorse$627                  SpriteHorse
     00027182  A$SpriteHorse$628                  SpriteHorse
     00027184  A$SpriteHorse$629                  SpriteHorse
     00027186  A$SpriteHorse$630                  SpriteHorse
     00027188  A$SpriteHorse$631                  SpriteHorse
     00027189  A$SpriteHorse$632                  SpriteHorse
     0002718B  A$SpriteHorse$634                  SpriteHorse
     0002718D  A$SpriteHorse$635                  SpriteHorse
     0002718F  A$SpriteHorse$636                  SpriteHorse
     00027190  A$SpriteHorse$638                  SpriteHorse
     00027192  A$SpriteHorse$643                  SpriteHorse
     00027192  C$SpriteHorse.c$109$3_1$209        SpriteHorse
     00027195  A$SpriteHorse$644                  SpriteHorse
     00027197  A$SpriteHorse$648                  SpriteHorse
     00027197  C$SpriteHorse.c$110$3_1$209        SpriteHorse
     0002719A  A$SpriteHorse$649                  SpriteHorse
     0002719B  A$SpriteHorse$650                  SpriteHorse
     0002719D  A$SpriteHorse$651                  SpriteHorse
     0002719E  A$SpriteHorse$652                  SpriteHorse
     000271A0  A$SpriteHorse$657                  SpriteHorse
     000271A0  C$SpriteHorse.c$112$1_1$202        SpriteHorse
     000271A1  A$SpriteHorse$658                  SpriteHorse
     000271A2  A$SpriteHorse$659                  SpriteHorse
     000271A4  A$SpriteHorse$663                  SpriteHorse
     000271A4  C$SpriteHorse.c$113$2_1$210        SpriteHorse
     000271A7  A$SpriteHorse$664                  SpriteHorse
     000271A9  A$SpriteHorse$668                  SpriteHorse
     000271A9  C$SpriteHorse.c$114$2_1$210        SpriteHorse
     000271AC  A$SpriteHorse$669                  SpriteHorse
     000271AD  A$SpriteHorse$673                  SpriteHorse
     000271AD  C$SpriteHorse.c$115$2_1$210        SpriteHorse
     000271B0  A$SpriteHorse$674                  SpriteHorse
     000271B1  A$SpriteHorse$678                  SpriteHorse
     000271B1  C$SpriteHorse.c$116$2_1$210        SpriteHorse
     000271B2  A$SpriteHorse$679                  SpriteHorse
     000271B4  A$SpriteHorse$680                  SpriteHorse
     000271B5  A$SpriteHorse$681                  SpriteHorse
     000271B6  A$SpriteHorse$682                  SpriteHorse
     000271B8  A$SpriteHorse$683                  SpriteHorse
     000271BA  A$SpriteHorse$684                  SpriteHorse
     000271BC  A$SpriteHorse$685                  SpriteHorse
     000271BE  A$SpriteHorse$686                  SpriteHorse
     000271BF  A$SpriteHorse$687                  SpriteHorse
     000271C1  A$SpriteHorse$689                  SpriteHorse
     000271C3  A$SpriteHorse$690                  SpriteHorse
     000271C5  A$SpriteHorse$691                  SpriteHorse
     000271C6  A$SpriteHorse$693                  SpriteHorse
ASxxxx Linker V03.00/V05.40 + sdld,  page 198.
Hexadecimal  [32-Bits]

Area                                    Addr        Size        Decimal Bytes (Attributes)
--------------------------------        ----        ----        ------- ----- ------------
_CODE_2                             00024000    00003FF1 =       16369. bytes (REL,CON)

      Value  Global                              Global Defined In Module
      -----  --------------------------------   ------------------------
     000271C8  A$SpriteHorse$697                  SpriteHorse
     000271C8  C$SpriteHorse.c$117$3_1$211        SpriteHorse
     000271CB  A$SpriteHorse$698                  SpriteHorse
     000271CD  A$SpriteHorse$702                  SpriteHorse
     000271CD  C$SpriteHorse.c$118$3_1$211        SpriteHorse
     000271D0  A$SpriteHorse$703                  SpriteHorse
     000271D1  A$SpriteHorse$704                  SpriteHorse
     000271D3  A$SpriteHorse$705                  SpriteHorse
     000271D4  A$SpriteHorse$706                  SpriteHorse
     000271D6  A$SpriteHorse$711                  SpriteHorse
     000271D6  C$SpriteHorse.c$121$2_1$212        SpriteHorse
     000271D9  A$SpriteHorse$712                  SpriteHorse
     000271DB  A$SpriteHorse$717                  SpriteHorse
     000271DB  C$SpriteHorse.c$123$1_1$202        SpriteHorse
     000271DD  A$SpriteHorse$718                  SpriteHorse
     000271DF  A$SpriteHorse$719                  SpriteHorse
     000271E1  A$SpriteHorse$720                  SpriteHorse
     000271E3  A$SpriteHorse$724                  SpriteHorse
     000271E3  C$SpriteHorse.c$124$2_1$213        SpriteHorse
     000271E6  A$SpriteHorse$725                  SpriteHorse
     000271E8  A$SpriteHorse$729                  SpriteHorse
     000271E8  C$SpriteHorse.c$125$2_1$213        SpriteHorse
     000271EB  A$SpriteHorse$730                  SpriteHorse
     000271ED  A$SpriteHorse$735                  SpriteHorse
     000271ED  C$SpriteHorse.c$127$1_1$202        SpriteHorse
     000271EF  A$SpriteHorse$736                  SpriteHorse
     000271F1  A$SpriteHorse$737                  SpriteHorse
     000271F3  A$SpriteHorse$738                  SpriteHorse
     000271F5  A$SpriteHorse$742                  SpriteHorse
     000271F5  C$SpriteHorse.c$128$2_1$214        SpriteHorse
     000271F8  A$SpriteHorse$743                  SpriteHorse
     000271FA  A$SpriteHorse$747                  SpriteHorse
     000271FA  C$SpriteHorse.c$129$2_1$214        SpriteHorse
     000271FD  A$SpriteHorse$748                  SpriteHorse
     000271FF  A$SpriteHorse$753                  SpriteHorse
     000271FF  C$SpriteHorse.c$131$1_1$202        SpriteHorse
     00027202  A$SpriteHorse$754                  SpriteHorse
     00027203  A$SpriteHorse$755                  SpriteHorse
     00027206  A$SpriteHorse$756                  SpriteHorse
     00027207  A$SpriteHorse$757                  SpriteHorse
     00027208  A$SpriteHorse$758                  SpriteHorse
     00027209  A$SpriteHorse$759                  SpriteHorse
     0002720B  A$SpriteHorse$760                  SpriteHorse
     0002720C  A$SpriteHorse$761                  SpriteHorse
     0002720D  A$SpriteHorse$762                  SpriteHorse
     00027210  A$SpriteHorse$766                  SpriteHorse
     00027210  C$SpriteHorse.c$132$1_2$215        SpriteHorse
     00027213  A$SpriteHorse$767                  SpriteHorse
     00027215  A$SpriteHorse$771                  SpriteHorse
     00027215  C$SpriteHorse.c$133$1_2$215        SpriteHorse
     00027216  A$SpriteHorse$772                  SpriteHorse
ASxxxx Linker V03.00/V05.40 + sdld,  page 199.
Hexadecimal  [32-Bits]

Area                                    Addr        Size        Decimal Bytes (Attributes)
--------------------------------        ----        ----        ------- ----- ------------
_CODE_2                             00024000    00003FF1 =       16369. bytes (REL,CON)

      Value  Global                              Global Defined In Module
      -----  --------------------------------   ------------------------
     00027218  A$SpriteHorse$773                  SpriteHorse
     00027219  A$SpriteHorse$774                  SpriteHorse
     0002721A  A$SpriteHorse$775                  SpriteHorse
     0002721D  A$SpriteHorse$779                  SpriteHorse
     0002721D  C$SpriteHorse.c$136$1_2$215        SpriteHorse
     00027220  A$SpriteHorse$783                  SpriteHorse
     00027220  C$SpriteHorse.c$137$1_2$215        SpriteHorse
     00027221  A$SpriteHorse$784                  SpriteHorse
     00027224  A$SpriteHorse$788                  SpriteHorse
     00027224  C$SpriteHorse.c$138$2_2$216        SpriteHorse
     00027227  A$SpriteHorse$789                  SpriteHorse
     0002722A  A$SpriteHorse$793                  SpriteHorse
     0002722A  C$SpriteHorse.c$145$2_3$191        SpriteHorse
     0002722D  A$SpriteHorse$794                  SpriteHorse
     0002722E  A$SpriteHorse$795                  SpriteHorse
     0002722F  A$SpriteHorse$796                  SpriteHorse
     00027231  A$SpriteHorse$797                  SpriteHorse
     00027232  A$SpriteHorse$798                  SpriteHorse
     00027233  A$SpriteHorse$799                  SpriteHorse
     00027235  A$SpriteHorse$800                  SpriteHorse
     00027236  A$SpriteHorse$801                  SpriteHorse
     00027237  A$SpriteHorse$802                  SpriteHorse
     00027239  A$SpriteHorse$803                  SpriteHorse
     0002723B  A$SpriteHorse$804                  SpriteHorse
     0002723D  A$SpriteHorse$805                  SpriteHorse
     0002723F  A$SpriteHorse$806                  SpriteHorse
     00027240  A$SpriteHorse$807                  SpriteHorse
     00027242  A$SpriteHorse$809                  SpriteHorse
     00027244  A$SpriteHorse$810                  SpriteHorse
     00027246  A$SpriteHorse$811                  SpriteHorse
     00027247  A$SpriteHorse$813                  SpriteHorse
     00027249  A$SpriteHorse$814                  SpriteHorse
     0002724A  A$SpriteHorse$815                  SpriteHorse
     0002724C  A$SpriteHorse$816                  SpriteHorse
     0002724E  A$SpriteHorse$817                  SpriteHorse
     0002724F  A$SpriteHorse$818                  SpriteHorse
     00027251  A$SpriteHorse$822                  SpriteHorse
     00027251  C$SpriteHorse.c$146$3_2$217        SpriteHorse
     00027254  A$SpriteHorse$823                  SpriteHorse
     00027256  A$SpriteHorse$824                  SpriteHorse
     00027259  A$SpriteHorse$829                  SpriteHorse
     00027259  C$SpriteHorse.c$147$2_2$216        SpriteHorse
     0002725A  A$SpriteHorse$830                  SpriteHorse
     0002725C  A$SpriteHorse$831                  SpriteHorse
     0002725F  A$SpriteHorse$832                  SpriteHorse
     00027261  A$SpriteHorse$833                  SpriteHorse
     00027263  A$SpriteHorse$834                  SpriteHorse
     00027265  A$SpriteHorse$838                  SpriteHorse
     00027265  C$SpriteHorse.c$148$3_2$218        SpriteHorse
     00027268  A$SpriteHorse$839                  SpriteHorse
     0002726A  A$SpriteHorse$840                  SpriteHorse
ASxxxx Linker V03.00/V05.40 + sdld,  page 200.
Hexadecimal  [32-Bits]

Area                                    Addr        Size        Decimal Bytes (Attributes)
--------------------------------        ----        ----        ------- ----- ------------
_CODE_2                             00024000    00003FF1 =       16369. bytes (REL,CON)

      Value  Global                              Global Defined In Module
      -----  --------------------------------   ------------------------
     0002726D  A$SpriteHorse$845                  SpriteHorse
     0002726D  C$SpriteHorse.c$149$2_2$216        SpriteHorse
     00027270  A$SpriteHorse$846                  SpriteHorse
     00027271  A$SpriteHorse$847                  SpriteHorse
     00027273  A$SpriteHorse$848                  SpriteHorse
     00027274  A$SpriteHorse$849                  SpriteHorse
     00027275  A$SpriteHorse$850                  SpriteHorse
     00027277  A$SpriteHorse$851                  SpriteHorse
     00027279  A$SpriteHorse$852                  SpriteHorse
     0002727B  A$SpriteHorse$853                  SpriteHorse
     0002727D  A$SpriteHorse$854                  SpriteHorse
     0002727E  A$SpriteHorse$855                  SpriteHorse
     00027280  A$SpriteHorse$857                  SpriteHorse
     00027282  A$SpriteHorse$858                  SpriteHorse
     00027284  A$SpriteHorse$859                  SpriteHorse
     00027285  A$SpriteHorse$861                  SpriteHorse
     00027287  A$SpriteHorse$862                  SpriteHorse
     0002728A  A$SpriteHorse$863                  SpriteHorse
     0002728C  A$SpriteHorse$864                  SpriteHorse
     0002728E  A$SpriteHorse$865                  SpriteHorse
     00027290  A$SpriteHorse$869                  SpriteHorse
     00027290  C$SpriteHorse.c$150$3_2$219        SpriteHorse
     00027293  A$SpriteHorse$870                  SpriteHorse
     00027295  A$SpriteHorse$871                  SpriteHorse
     00027298  A$SpriteHorse$876                  SpriteHorse
     00027298  C$SpriteHorse.c$151$2_2$216        SpriteHorse
     0002729B  A$SpriteHorse$877                  SpriteHorse
     0002729C  A$SpriteHorse$878                  SpriteHorse
     0002729E  A$SpriteHorse$879                  SpriteHorse
     0002729F  A$SpriteHorse$880                  SpriteHorse
     000272A0  A$SpriteHorse$881                  SpriteHorse
     000272A2  A$SpriteHorse$882                  SpriteHorse
     000272A4  A$SpriteHorse$883                  SpriteHorse
     000272A6  A$SpriteHorse$884                  SpriteHorse
     000272A8  A$SpriteHorse$885                  SpriteHorse
     000272A9  A$SpriteHorse$886                  SpriteHorse
     000272AB  A$SpriteHorse$888                  SpriteHorse
     000272AD  A$SpriteHorse$889                  SpriteHorse
     000272AF  A$SpriteHorse$890                  SpriteHorse
     000272B0  A$SpriteHorse$892                  SpriteHorse
     000272B2  A$SpriteHorse$896                  SpriteHorse
     000272B2  C$SpriteHorse.c$152$3_2$220        SpriteHorse
     000272B5  A$SpriteHorse$897                  SpriteHorse
     000272B7  A$SpriteHorse$898                  SpriteHorse
     000272BA  A$SpriteHorse$903                  SpriteHorse
     000272BA  C$SpriteHorse.c$153$2_2$216        SpriteHorse
     000272BB  A$SpriteHorse$904                  SpriteHorse
     000272BC  A$SpriteHorse$905                  SpriteHorse
     000272BE  A$SpriteHorse$906                  SpriteHorse
     000272C1  A$SpriteHorse$907                  SpriteHorse
     000272C2  A$SpriteHorse$908                  SpriteHorse
ASxxxx Linker V03.00/V05.40 + sdld,  page 201.
Hexadecimal  [32-Bits]

Area                                    Addr        Size        Decimal Bytes (Attributes)
--------------------------------        ----        ----        ------- ----- ------------
_CODE_2                             00024000    00003FF1 =       16369. bytes (REL,CON)

      Value  Global                              Global Defined In Module
      -----  --------------------------------   ------------------------
     000272C4  A$SpriteHorse$909                  SpriteHorse
     000272C5  A$SpriteHorse$910                  SpriteHorse
     000272C6  A$SpriteHorse$911                  SpriteHorse
     000272C8  A$SpriteHorse$912                  SpriteHorse
     000272CA  A$SpriteHorse$913                  SpriteHorse
     000272CC  A$SpriteHorse$914                  SpriteHorse
     000272CE  A$SpriteHorse$915                  SpriteHorse
     000272CF  A$SpriteHorse$916                  SpriteHorse
     000272D1  A$SpriteHorse$918                  SpriteHorse
     000272D3  A$SpriteHorse$919                  SpriteHorse
     000272D5  A$SpriteHorse$920                  SpriteHorse
     000272D6  A$SpriteHorse$922                  SpriteHorse
     000272D8  A$SpriteHorse$926                  SpriteHorse
     000272D8  C$SpriteHorse.c$154$3_2$221        SpriteHorse
     000272DB  A$SpriteHorse$927                  SpriteHorse
     000272DD  A$SpriteHorse$928                  SpriteHorse
     000272DF  A$SpriteHorse$933                  SpriteHorse
     000272DF  C$SpriteHorse.c$155$2_2$216        SpriteHorse
     000272E2  A$SpriteHorse$934                  SpriteHorse
     000272E3  A$SpriteHorse$935                  SpriteHorse
     000272E5  A$SpriteHorse$936                  SpriteHorse
     000272E7  A$SpriteHorse$937                  SpriteHorse
     000272E9  A$SpriteHorse$938                  SpriteHorse
     000272EA  A$SpriteHorse$939                  SpriteHorse
     000272EC  A$SpriteHorse$940                  SpriteHorse
     000272ED  A$SpriteHorse$941                  SpriteHorse
     000272EE  A$SpriteHorse$942                  SpriteHorse
     000272F0  A$SpriteHorse$943                  SpriteHorse
     000272F2  A$SpriteHorse$944                  SpriteHorse
     000272F4  A$SpriteHorse$945                  SpriteHorse
     000272F6  A$SpriteHorse$946                  SpriteHorse
     000272F7  A$SpriteHorse$947                  SpriteHorse
     000272F9  A$SpriteHorse$949                  SpriteHorse
     000272FB  A$SpriteHorse$950                  SpriteHorse
     000272FD  A$SpriteHorse$951                  SpriteHorse
     000272FE  A$SpriteHorse$953                  SpriteHorse
     00027300  A$SpriteHorse$957                  SpriteHorse
     00027300  C$SpriteHorse.c$156$3_2$222        SpriteHorse
     00027303  A$SpriteHorse$958                  SpriteHorse
     00027305  A$SpriteHorse$959                  SpriteHorse
     00027307  A$SpriteHorse$964                  SpriteHorse
     00027307  C$SpriteHorse.c$157$2_2$216        SpriteHorse
     0002730A  A$SpriteHorse$965                  SpriteHorse
     0002730B  A$SpriteHorse$966                  SpriteHorse
     0002730D  A$SpriteHorse$967                  SpriteHorse
     0002730F  A$SpriteHorse$968                  SpriteHorse
     00027311  A$SpriteHorse$969                  SpriteHorse
     00027312  A$SpriteHorse$970                  SpriteHorse
     00027314  A$SpriteHorse$971                  SpriteHorse
     00027315  A$SpriteHorse$972                  SpriteHorse
     00027316  A$SpriteHorse$973                  SpriteHorse
ASxxxx Linker V03.00/V05.40 + sdld,  page 202.
Hexadecimal  [32-Bits]

Area                                    Addr        Size        Decimal Bytes (Attributes)
--------------------------------        ----        ----        ------- ----- ------------
_CODE_2                             00024000    00003FF1 =       16369. bytes (REL,CON)

      Value  Global                              Global Defined In Module
      -----  --------------------------------   ------------------------
     00027318  A$SpriteHorse$974                  SpriteHorse
     0002731A  A$SpriteHorse$975                  SpriteHorse
     0002731C  A$SpriteHorse$976                  SpriteHorse
     0002731E  A$SpriteHorse$977                  SpriteHorse
     0002731F  A$SpriteHorse$978                  SpriteHorse
     00027321  A$SpriteHorse$980                  SpriteHorse
     00027323  A$SpriteHorse$981                  SpriteHorse
     00027325  A$SpriteHorse$982                  SpriteHorse
     00027326  A$SpriteHorse$984                  SpriteHorse
     00027328  A$SpriteHorse$988                  SpriteHorse
     00027328  C$SpriteHorse.c$158$3_2$223        SpriteHorse
     0002732B  A$SpriteHorse$989                  SpriteHorse
     0002732D  A$SpriteHorse$990                  SpriteHorse
     0002732F  A$SpriteHorse$995                  SpriteHorse
     0002732F  C$SpriteHorse.c$159$2_2$216        SpriteHorse
     00027332  A$SpriteHorse$996                  SpriteHorse
     00027334  A$SpriteHorse$997                  SpriteHorse
     00027336  A$SpriteHorse$998                  SpriteHorse
     00027338  A$SpriteHorse$1002                 SpriteHorse
     00027338  C$SpriteHorse.c$160$3_2$224        SpriteHorse
     0002733B  A$SpriteHorse$1003                 SpriteHorse
     0002733D  A$SpriteHorse$1008                 SpriteHorse
     0002733D  C$SpriteHorse.c$108$2_3$191        SpriteHorse
     00027340  A$SpriteHorse$1009                 SpriteHorse
     00027341  A$SpriteHorse$1010                 SpriteHorse
     00027343  A$SpriteHorse$1011                 SpriteHorse
     00027344  A$SpriteHorse$1012                 SpriteHorse
     00027345  A$SpriteHorse$1013                 SpriteHorse
     00027347  A$SpriteHorse$1014                 SpriteHorse
     00027349  A$SpriteHorse$1015                 SpriteHorse
     0002734B  A$SpriteHorse$1016                 SpriteHorse
     0002734D  A$SpriteHorse$1017                 SpriteHorse
     0002734E  A$SpriteHorse$1018                 SpriteHorse
     00027350  A$SpriteHorse$1020                 SpriteHorse
     00027352  A$SpriteHorse$1021                 SpriteHorse
     00027354  A$SpriteHorse$1022                 SpriteHorse
     00027355  A$SpriteHorse$1024                 SpriteHorse
     00027357  A$SpriteHorse$1025                 SpriteHorse
     00027358  A$SpriteHorse$1026                 SpriteHorse
     00027359  A$SpriteHorse$1030                 SpriteHorse
     00027359  C$SpriteHorse.c$163$2_3$191        SpriteHorse
     0002735C  A$SpriteHorse$1031                 SpriteHorse
     0002735D  A$SpriteHorse$1032                 SpriteHorse
     0002735F  A$SpriteHorse$1033                 SpriteHorse
     00027360  A$SpriteHorse$1034                 SpriteHorse
     00027362  A$SpriteHorse$1035                 SpriteHorse
     00027364  A$SpriteHorse$1036                 SpriteHorse
     00027365  A$SpriteHorse$1037                 SpriteHorse
     00027367  A$SpriteHorse$1038                 SpriteHorse
     00027369  A$SpriteHorse$1042                 SpriteHorse
     00027369  C$SpriteHorse.c$164$3_2$225        SpriteHorse
ASxxxx Linker V03.00/V05.40 + sdld,  page 203.
Hexadecimal  [32-Bits]

Area                                    Addr        Size        Decimal Bytes (Attributes)
--------------------------------        ----        ----        ------- ----- ------------
_CODE_2                             00024000    00003FF1 =       16369. bytes (REL,CON)

      Value  Global                              Global Defined In Module
      -----  --------------------------------   ------------------------
     0002736C  A$SpriteHorse$1043                 SpriteHorse
     0002736E  A$SpriteHorse$1044                 SpriteHorse
     00027371  A$SpriteHorse$1049                 SpriteHorse
     00027371  C$SpriteHorse.c$165$2_2$216        SpriteHorse
     00027372  A$SpriteHorse$1050                 SpriteHorse
     00027373  A$SpriteHorse$1051                 SpriteHorse
     00027375  A$SpriteHorse$1052                 SpriteHorse
     00027378  A$SpriteHorse$1053                 SpriteHorse
     0002737A  A$SpriteHorse$1054                 SpriteHorse
     0002737C  A$SpriteHorse$1055                 SpriteHorse
     0002737E  A$SpriteHorse$1059                 SpriteHorse
     0002737E  C$SpriteHorse.c$166$3_2$226        SpriteHorse
     00027381  A$SpriteHorse$1060                 SpriteHorse
     00027383  A$SpriteHorse$1061                 SpriteHorse
     00027386  A$SpriteHorse$1066                 SpriteHorse
     00027386  C$SpriteHorse.c$167$2_2$216        SpriteHorse
     00027389  A$SpriteHorse$1067                 SpriteHorse
     0002738A  A$SpriteHorse$1068                 SpriteHorse
     0002738C  A$SpriteHorse$1069                 SpriteHorse
     0002738D  A$SpriteHorse$1070                 SpriteHorse
     0002738E  A$SpriteHorse$1071                 SpriteHorse
     00027390  A$SpriteHorse$1072                 SpriteHorse
     00027392  A$SpriteHorse$1073                 SpriteHorse
     00027394  A$SpriteHorse$1074                 SpriteHorse
     00027396  A$SpriteHorse$1075                 SpriteHorse
     00027397  A$SpriteHorse$1076                 SpriteHorse
     00027399  A$SpriteHorse$1078                 SpriteHorse
     0002739B  A$SpriteHorse$1079                 SpriteHorse
     0002739D  A$SpriteHorse$1080                 SpriteHorse
     0002739E  A$SpriteHorse$1082                 SpriteHorse
     000273A0  A$SpriteHorse$1083                 SpriteHorse
     000273A3  A$SpriteHorse$1084                 SpriteHorse
     000273A5  A$SpriteHorse$1085                 SpriteHorse
     000273A7  A$SpriteHorse$1086                 SpriteHorse
     000273A9  A$SpriteHorse$1090                 SpriteHorse
     000273A9  C$SpriteHorse.c$168$3_2$227        SpriteHorse
     000273AC  A$SpriteHorse$1091                 SpriteHorse
     000273AE  A$SpriteHorse$1092                 SpriteHorse
     000273B1  A$SpriteHorse$1097                 SpriteHorse
     000273B1  C$SpriteHorse.c$169$2_2$216        SpriteHorse
     000273B4  A$SpriteHorse$1098                 SpriteHorse
     000273B5  A$SpriteHorse$1099                 SpriteHorse
     000273B7  A$SpriteHorse$1100                 SpriteHorse
     000273B8  A$SpriteHorse$1101                 SpriteHorse
     000273B9  A$SpriteHorse$1102                 SpriteHorse
     000273BB  A$SpriteHorse$1103                 SpriteHorse
     000273BD  A$SpriteHorse$1104                 SpriteHorse
     000273BF  A$SpriteHorse$1105                 SpriteHorse
     000273C1  A$SpriteHorse$1106                 SpriteHorse
     000273C2  A$SpriteHorse$1107                 SpriteHorse
     000273C4  A$SpriteHorse$1109                 SpriteHorse
ASxxxx Linker V03.00/V05.40 + sdld,  page 204.
Hexadecimal  [32-Bits]

Area                                    Addr        Size        Decimal Bytes (Attributes)
--------------------------------        ----        ----        ------- ----- ------------
_CODE_2                             00024000    00003FF1 =       16369. bytes (REL,CON)

      Value  Global                              Global Defined In Module
      -----  --------------------------------   ------------------------
     000273C6  A$SpriteHorse$1110                 SpriteHorse
     000273C8  A$SpriteHorse$1111                 SpriteHorse
     000273C9  A$SpriteHorse$1113                 SpriteHorse
     000273CB  A$SpriteHorse$1117                 SpriteHorse
     000273CB  C$SpriteHorse.c$170$3_2$228        SpriteHorse
     000273CE  A$SpriteHorse$1118                 SpriteHorse
     000273D0  A$SpriteHorse$1119                 SpriteHorse
     000273D3  A$SpriteHorse$1124                 SpriteHorse
     000273D3  C$SpriteHorse.c$171$2_2$216        SpriteHorse
     000273D4  A$SpriteHorse$1125                 SpriteHorse
     000273D5  A$SpriteHorse$1126                 SpriteHorse
     000273D7  A$SpriteHorse$1127                 SpriteHorse
     000273DA  A$SpriteHorse$1128                 SpriteHorse
     000273DB  A$SpriteHorse$1129                 SpriteHorse
     000273DD  A$SpriteHorse$1130                 SpriteHorse
     000273DE  A$SpriteHorse$1131                 SpriteHorse
     000273DF  A$SpriteHorse$1132                 SpriteHorse
     000273E1  A$SpriteHorse$1133                 SpriteHorse
     000273E3  A$SpriteHorse$1134                 SpriteHorse
     000273E5  A$SpriteHorse$1135                 SpriteHorse
     000273E7  A$SpriteHorse$1136                 SpriteHorse
     000273E8  A$SpriteHorse$1137                 SpriteHorse
     000273EA  A$SpriteHorse$1139                 SpriteHorse
     000273EC  A$SpriteHorse$1140                 SpriteHorse
     000273EE  A$SpriteHorse$1141                 SpriteHorse
     000273EF  A$SpriteHorse$1143                 SpriteHorse
     000273F1  A$SpriteHorse$1147                 SpriteHorse
     000273F1  C$SpriteHorse.c$172$3_2$229        SpriteHorse
     000273F4  A$SpriteHorse$1148                 SpriteHorse
     000273F6  A$SpriteHorse$1149                 SpriteHorse
     000273F8  A$SpriteHorse$1154                 SpriteHorse
     000273F8  C$SpriteHorse.c$173$2_2$216        SpriteHorse
     000273FB  A$SpriteHorse$1155                 SpriteHorse
     000273FC  A$SpriteHorse$1156                 SpriteHorse
     000273FE  A$SpriteHorse$1157                 SpriteHorse
     00027400  A$SpriteHorse$1158                 SpriteHorse
     00027402  A$SpriteHorse$1159                 SpriteHorse
     00027403  A$SpriteHorse$1160                 SpriteHorse
     00027405  A$SpriteHorse$1161                 SpriteHorse
     00027406  A$SpriteHorse$1162                 SpriteHorse
     00027407  A$SpriteHorse$1163                 SpriteHorse
     00027409  A$SpriteHorse$1164                 SpriteHorse
     0002740B  A$SpriteHorse$1165                 SpriteHorse
     0002740D  A$SpriteHorse$1166                 SpriteHorse
     0002740F  A$SpriteHorse$1167                 SpriteHorse
     00027410  A$SpriteHorse$1168                 SpriteHorse
     00027412  A$SpriteHorse$1170                 SpriteHorse
     00027414  A$SpriteHorse$1171                 SpriteHorse
     00027416  A$SpriteHorse$1172                 SpriteHorse
     00027417  A$SpriteHorse$1174                 SpriteHorse
     00027419  A$SpriteHorse$1178                 SpriteHorse
ASxxxx Linker V03.00/V05.40 + sdld,  page 205.
Hexadecimal  [32-Bits]

Area                                    Addr        Size        Decimal Bytes (Attributes)
--------------------------------        ----        ----        ------- ----- ------------
_CODE_2                             00024000    00003FF1 =       16369. bytes (REL,CON)

      Value  Global                              Global Defined In Module
      -----  --------------------------------   ------------------------
     00027419  C$SpriteHorse.c$174$3_2$230        SpriteHorse
     0002741C  A$SpriteHorse$1179                 SpriteHorse
     0002741E  A$SpriteHorse$1180                 SpriteHorse
     00027420  A$SpriteHorse$1185                 SpriteHorse
     00027420  C$SpriteHorse.c$175$2_2$216        SpriteHorse
     00027423  A$SpriteHorse$1186                 SpriteHorse
     00027424  A$SpriteHorse$1187                 SpriteHorse
     00027426  A$SpriteHorse$1188                 SpriteHorse
     00027428  A$SpriteHorse$1189                 SpriteHorse
     0002742A  A$SpriteHorse$1190                 SpriteHorse
     0002742B  A$SpriteHorse$1191                 SpriteHorse
     0002742D  A$SpriteHorse$1192                 SpriteHorse
     0002742E  A$SpriteHorse$1193                 SpriteHorse
     0002742F  A$SpriteHorse$1194                 SpriteHorse
     00027431  A$SpriteHorse$1195                 SpriteHorse
     00027433  A$SpriteHorse$1196                 SpriteHorse
     00027435  A$SpriteHorse$1197                 SpriteHorse
     00027437  A$SpriteHorse$1198                 SpriteHorse
     00027438  A$SpriteHorse$1199                 SpriteHorse
     0002743A  A$SpriteHorse$1201                 SpriteHorse
     0002743C  A$SpriteHorse$1202                 SpriteHorse
     0002743E  A$SpriteHorse$1203                 SpriteHorse
     0002743F  A$SpriteHorse$1205                 SpriteHorse
     00027441  A$SpriteHorse$1209                 SpriteHorse
     00027441  C$SpriteHorse.c$176$3_2$231        SpriteHorse
     00027444  A$SpriteHorse$1210                 SpriteHorse
     00027446  A$SpriteHorse$1211                 SpriteHorse
     00027448  A$SpriteHorse$1216                 SpriteHorse
     00027448  C$SpriteHorse.c$177$2_2$216        SpriteHorse
     0002744B  A$SpriteHorse$1217                 SpriteHorse
     0002744D  A$SpriteHorse$1218                 SpriteHorse
     0002744F  A$SpriteHorse$1219                 SpriteHorse
     00027451  A$SpriteHorse$1223                 SpriteHorse
     00027451  C$SpriteHorse.c$178$3_2$232        SpriteHorse
     00027454  A$SpriteHorse$1224                 SpriteHorse
     00027456  A$SpriteHorse$1229                 SpriteHorse
     00027456  C$SpriteHorse.c$181$2_3$233        SpriteHorse
     00027459  A$SpriteHorse$1230                 SpriteHorse
     0002745A  A$SpriteHorse$1231                 SpriteHorse
     0002745D  A$SpriteHorse$1232                 SpriteHorse
     0002745E  A$SpriteHorse$1233                 SpriteHorse
     00027460  A$SpriteHorse$1235                 SpriteHorse
     00027461  A$SpriteHorse$1237                 SpriteHorse
     00027462  A$SpriteHorse$1238                 SpriteHorse
     00027464  A$SpriteHorse$1239                 SpriteHorse
     00027467  A$SpriteHorse$1240                 SpriteHorse
     00027468  A$SpriteHorse$1241                 SpriteHorse
     0002746B  A$SpriteHorse$1242                 SpriteHorse
     0002746C  A$SpriteHorse$1243                 SpriteHorse
     0002746D  A$SpriteHorse$1244                 SpriteHorse
     0002746F  A$SpriteHorse$1246                 SpriteHorse
ASxxxx Linker V03.00/V05.40 + sdld,  page 206.
Hexadecimal  [32-Bits]

Area                                    Addr        Size        Decimal Bytes (Attributes)
--------------------------------        ----        ----        ------- ----- ------------
_CODE_2                             00024000    00003FF1 =       16369. bytes (REL,CON)

      Value  Global                              Global Defined In Module
      -----  --------------------------------   ------------------------
     00027471  A$SpriteHorse$1248                 SpriteHorse
     00027472  A$SpriteHorse$1249                 SpriteHorse
     00027474  A$SpriteHorse$1250                 SpriteHorse
     00027475  A$SpriteHorse$1251                 SpriteHorse
     00027476  A$SpriteHorse$1252                 SpriteHorse
     00027477  A$SpriteHorse$1253                 SpriteHorse
     0002747A  A$SpriteHorse$1254                 SpriteHorse
     0002747B  A$SpriteHorse$1255                 SpriteHorse
     0002747C  A$SpriteHorse$1256                 SpriteHorse
     0002747D  A$SpriteHorse$1257                 SpriteHorse
     00027480  A$SpriteHorse$1258                 SpriteHorse
     00027482  A$SpriteHorse$1259                 SpriteHorse
     00027483  A$SpriteHorse$1260                 SpriteHorse
     00027484  A$SpriteHorse$1264                 SpriteHorse
     00027484  C$SpriteHorse.c$182$2_3$233        SpriteHorse
     00027485  A$SpriteHorse$1265                 SpriteHorse
     00027486  A$SpriteHorse$1266                 SpriteHorse
     00027487  A$SpriteHorse$1267                 SpriteHorse
     00027489  A$SpriteHorse$1271                 SpriteHorse
     00027489  C$SpriteHorse.c$184$3_3$234        SpriteHorse
     0002748A  A$SpriteHorse$1272                 SpriteHorse
     0002748B  A$SpriteHorse$1273                 SpriteHorse
     0002748E  A$SpriteHorse$1277                 SpriteHorse
     0002748E  C$SpriteHorse.c$185$3_4$235        SpriteHorse
     0002748F  A$SpriteHorse$1278                 SpriteHorse
     00027492  A$SpriteHorse$1279                 SpriteHorse
     00027493  A$SpriteHorse$1280                 SpriteHorse
     00027494  A$SpriteHorse$1284                 SpriteHorse
     00027494  C$SpriteHorse.c$186$3_4$235        SpriteHorse
     00027495  A$SpriteHorse$1285                 SpriteHorse
     00027498  A$SpriteHorse$1286                 SpriteHorse
     00027499  A$SpriteHorse$1287                 SpriteHorse
     0002749A  A$SpriteHorse$1291                 SpriteHorse
     0002749A  C$SpriteHorse.c$187$3_4$235        SpriteHorse
     0002749D  A$SpriteHorse$1292                 SpriteHorse
     0002749F  A$SpriteHorse$1293                 SpriteHorse
     000274A1  A$SpriteHorse$1294                 SpriteHorse
     000274A3  A$SpriteHorse$1298                 SpriteHorse
     000274A3  C$SpriteHorse.c$188$4_4$236        SpriteHorse
     000274A6  A$SpriteHorse$1299                 SpriteHorse
     000274A7  A$SpriteHorse$1300                 SpriteHorse
     000274A9  A$SpriteHorse$1302                 SpriteHorse
     000274AB  A$SpriteHorse$1304                 SpriteHorse
     000274AC  A$SpriteHorse$1305                 SpriteHorse
     000274AE  A$SpriteHorse$1306                 SpriteHorse
     000274AF  A$SpriteHorse$1307                 SpriteHorse
     000274B0  A$SpriteHorse$1308                 SpriteHorse
     000274B1  A$SpriteHorse$1309                 SpriteHorse
     000274B2  A$SpriteHorse$1310                 SpriteHorse
     000274B5  A$SpriteHorse$1311                 SpriteHorse
     000274B6  A$SpriteHorse$1312                 SpriteHorse
ASxxxx Linker V03.00/V05.40 + sdld,  page 207.
Hexadecimal  [32-Bits]

Area                                    Addr        Size        Decimal Bytes (Attributes)
--------------------------------        ----        ----        ------- ----- ------------
_CODE_2                             00024000    00003FF1 =       16369. bytes (REL,CON)

      Value  Global                              Global Defined In Module
      -----  --------------------------------   ------------------------
     000274B7  A$SpriteHorse$1313                 SpriteHorse
     000274B8  A$SpriteHorse$1314                 SpriteHorse
     000274BB  A$SpriteHorse$1315                 SpriteHorse
     000274BE  A$SpriteHorse$1320                 SpriteHorse
     000274BE  C$SpriteHorse.c$190$4_4$237        SpriteHorse
     000274C1  A$SpriteHorse$1321                 SpriteHorse
     000274C2  A$SpriteHorse$1322                 SpriteHorse
     000274C3  A$SpriteHorse$1323                 SpriteHorse
     000274C4  A$SpriteHorse$1324                 SpriteHorse
     000274C6  A$SpriteHorse$1326                 SpriteHorse
     000274C7  A$SpriteHorse$1328                 SpriteHorse
     000274C8  A$SpriteHorse$1329                 SpriteHorse
     000274CA  A$SpriteHorse$1330                 SpriteHorse
     000274CB  A$SpriteHorse$1331                 SpriteHorse
     000274CC  A$SpriteHorse$1332                 SpriteHorse
     000274CD  A$SpriteHorse$1333                 SpriteHorse
     000274D0  A$SpriteHorse$1334                 SpriteHorse
     000274D1  A$SpriteHorse$1335                 SpriteHorse
     000274D2  A$SpriteHorse$1336                 SpriteHorse
     000274D3  A$SpriteHorse$1337                 SpriteHorse
     000274D6  A$SpriteHorse$1338                 SpriteHorse
     000274D9  A$SpriteHorse$1343                 SpriteHorse
     000274DC  A$SpriteHorse$1344                 SpriteHorse
     000274DE  A$SpriteHorse$1345                 SpriteHorse
     000274DF  A$SpriteHorse$1346                 SpriteHorse
     000274E2  A$SpriteHorse$1347                 SpriteHorse
     000274E4  A$SpriteHorse$1348                 SpriteHorse
     000274E5  A$SpriteHorse$1349                 SpriteHorse
     000274E6  A$SpriteHorse$1350                 SpriteHorse
     000274E7  A$SpriteHorse$1351                 SpriteHorse
     000274EA  A$SpriteHorse$1352                 SpriteHorse
     000274EB  A$SpriteHorse$1353                 SpriteHorse
     000274EC  A$SpriteHorse$1354                 SpriteHorse
     000274ED  A$SpriteHorse$1355                 SpriteHorse
     000274EF  A$SpriteHorse$1356                 SpriteHorse
     000274F0  A$SpriteHorse$1357                 SpriteHorse
     000274F1  A$SpriteHorse$1358                 SpriteHorse
     000274F2  A$SpriteHorse$1359                 SpriteHorse
     000274F4  A$SpriteHorse$1360                 SpriteHorse
     000274F5  A$SpriteHorse$1361                 SpriteHorse
     000274F6  A$SpriteHorse$1362                 SpriteHorse
     000274F7  A$SpriteHorse$1363                 SpriteHorse
     000274F8  A$SpriteHorse$1364                 SpriteHorse
     000274F9  A$SpriteHorse$1365                 SpriteHorse
     000274FB  A$SpriteHorse$1366                 SpriteHorse
     000274FC  A$SpriteHorse$1367                 SpriteHorse
     000274FD  A$SpriteHorse$1368                 SpriteHorse
     000274FE  A$SpriteHorse$1369                 SpriteHorse
     000274FF  A$SpriteHorse$1370                 SpriteHorse
     00027500  A$SpriteHorse$1371                 SpriteHorse
     00027501  A$SpriteHorse$1372                 SpriteHorse
ASxxxx Linker V03.00/V05.40 + sdld,  page 208.
Hexadecimal  [32-Bits]

Area                                    Addr        Size        Decimal Bytes (Attributes)
--------------------------------        ----        ----        ------- ----- ------------
_CODE_2                             00024000    00003FF1 =       16369. bytes (REL,CON)

      Value  Global                              Global Defined In Module
      -----  --------------------------------   ------------------------
     00027502  A$SpriteHorse$1373                 SpriteHorse
     00027505  A$SpriteHorse$1374                 SpriteHorse
     00027506  A$SpriteHorse$1375                 SpriteHorse
     00027507  A$SpriteHorse$1376                 SpriteHorse
     00027508  A$SpriteHorse$1377                 SpriteHorse
     0002750A  A$SpriteHorse$1378                 SpriteHorse
     0002750B  A$SpriteHorse$1379                 SpriteHorse
     0002750C  A$SpriteHorse$1380                 SpriteHorse
     0002750D  A$SpriteHorse$1381                 SpriteHorse
     0002750F  A$SpriteHorse$1382                 SpriteHorse
     00027510  A$SpriteHorse$1383                 SpriteHorse
     00027511  A$SpriteHorse$1384                 SpriteHorse
     00027512  A$SpriteHorse$1385                 SpriteHorse
     00027513  A$SpriteHorse$1386                 SpriteHorse
     00027515  A$SpriteHorse$1387                 SpriteHorse
     00027516  A$SpriteHorse$1388                 SpriteHorse
     00027517  A$SpriteHorse$1389                 SpriteHorse
     00027518  A$SpriteHorse$1390                 SpriteHorse
     0002751A  A$SpriteHorse$1391                 SpriteHorse
     0002751B  A$SpriteHorse$1392                 SpriteHorse
     0002751D  A$SpriteHorse$1393                 SpriteHorse
     0002751E  A$SpriteHorse$1394                 SpriteHorse
     00027520  A$SpriteHorse$1395                 SpriteHorse
     00027521  A$SpriteHorse$1396                 SpriteHorse
     00027523  A$SpriteHorse$1397                 SpriteHorse
     00027524  A$SpriteHorse$1398                 SpriteHorse
     00027526  A$SpriteHorse$1399                 SpriteHorse
     00027527  A$SpriteHorse$1400                 SpriteHorse
     00027529  A$SpriteHorse$1401                 SpriteHorse
     0002752A  A$SpriteHorse$1402                 SpriteHorse
     0002752B  A$SpriteHorse$1403                 SpriteHorse
     0002752E  A$SpriteHorse$1404                 SpriteHorse
     0002752F  A$SpriteHorse$1405                 SpriteHorse
     00027530  A$SpriteHorse$1406                 SpriteHorse
     00027531  A$SpriteHorse$1407                 SpriteHorse
     00027533  A$SpriteHorse$1408                 SpriteHorse
     00027534  A$SpriteHorse$1409                 SpriteHorse
     00027535  A$SpriteHorse$1410                 SpriteHorse
     00027536  A$SpriteHorse$1411                 SpriteHorse
     00027538  A$SpriteHorse$1412                 SpriteHorse
     00027539  A$SpriteHorse$1413                 SpriteHorse
     0002753A  A$SpriteHorse$1414                 SpriteHorse
     0002753B  A$SpriteHorse$1415                 SpriteHorse
     0002753C  A$SpriteHorse$1416                 SpriteHorse
     0002753D  A$SpriteHorse$1417                 SpriteHorse
     0002753E  A$SpriteHorse$1418                 SpriteHorse
     0002753F  A$SpriteHorse$1419                 SpriteHorse
     00027540  A$SpriteHorse$1420                 SpriteHorse
     00027541  A$SpriteHorse$1421                 SpriteHorse
     00027542  A$SpriteHorse$1422                 SpriteHorse
     00027543  A$SpriteHorse$1423                 SpriteHorse
ASxxxx Linker V03.00/V05.40 + sdld,  page 209.
Hexadecimal  [32-Bits]

Area                                    Addr        Size        Decimal Bytes (Attributes)
--------------------------------        ----        ----        ------- ----- ------------
_CODE_2                             00024000    00003FF1 =       16369. bytes (REL,CON)

      Value  Global                              Global Defined In Module
      -----  --------------------------------   ------------------------
     00027544  A$SpriteHorse$1424                 SpriteHorse
     00027545  A$SpriteHorse$1425                 SpriteHorse
     00027548  A$SpriteHorse$1426                 SpriteHorse
     00027549  A$SpriteHorse$1427                 SpriteHorse
     0002754A  A$SpriteHorse$1428                 SpriteHorse
     0002754B  A$SpriteHorse$1429                 SpriteHorse
     0002754D  A$SpriteHorse$1430                 SpriteHorse
     0002754F  A$SpriteHorse$1431                 SpriteHorse
     00027551  A$SpriteHorse$1432                 SpriteHorse
     00027553  A$SpriteHorse$1433                 SpriteHorse
     00027555  A$SpriteHorse$1434                 SpriteHorse
     00027557  A$SpriteHorse$1435                 SpriteHorse
     00027559  A$SpriteHorse$1436                 SpriteHorse
     0002755A  A$SpriteHorse$1437                 SpriteHorse
     0002755B  A$SpriteHorse$1438                 SpriteHorse
     0002755C  A$SpriteHorse$1439                 SpriteHorse
     0002755F  A$SpriteHorse$1440                 SpriteHorse
     00027560  A$SpriteHorse$1444                 SpriteHorse
     00027560  C$SpriteHorse.c$195$3_3$238        SpriteHorse
     00027562  A$SpriteHorse$1445                 SpriteHorse
     00027563  A$SpriteHorse$1446                 SpriteHorse
     00027566  A$SpriteHorse$1447                 SpriteHorse
     00027568  A$SpriteHorse$1448                 SpriteHorse
     0002756B  A$SpriteHorse$1449                 SpriteHorse
     0002756C  A$SpriteHorse$1450                 SpriteHorse
     0002756D  A$SpriteHorse$1451                 SpriteHorse
     0002756E  A$SpriteHorse$1452                 SpriteHorse
     0002756F  A$SpriteHorse$1454                 SpriteHorse
     00027572  A$SpriteHorse$1455                 SpriteHorse
     00027575  A$SpriteHorse$1456                 SpriteHorse
     00027578  A$SpriteHorse$1457                 SpriteHorse
     0002757B  A$SpriteHorse$1458                 SpriteHorse
     0002757E  A$SpriteHorse$1459                 SpriteHorse
     00027581  A$SpriteHorse$1460                 SpriteHorse
     00027584  A$SpriteHorse$1461                 SpriteHorse
     00027587  A$SpriteHorse$1462                 SpriteHorse
     0002758A  A$SpriteHorse$1463                 SpriteHorse
     0002758D  A$SpriteHorse$1464                 SpriteHorse
     00027590  A$SpriteHorse$1465                 SpriteHorse
     00027593  A$SpriteHorse$1466                 SpriteHorse
     00027596  A$SpriteHorse$1467                 SpriteHorse
     00027599  A$SpriteHorse$1475                 SpriteHorse
     00027599  C$SpriteHorse.c$197$4_3$239        SpriteHorse
     00027599  C$SpriteHorse.c$198$4_3$239        SpriteHorse
     0002759C  A$SpriteHorse$1476                 SpriteHorse
     0002759D  A$SpriteHorse$1477                 SpriteHorse
     0002759E  A$SpriteHorse$1478                 SpriteHorse
     0002759F  A$SpriteHorse$1479                 SpriteHorse
     000275A0  A$SpriteHorse$1483                 SpriteHorse
     000275A3  A$SpriteHorse$1484                 SpriteHorse
     000275A4  A$SpriteHorse$1485                 SpriteHorse
ASxxxx Linker V03.00/V05.40 + sdld,  page 210.
Hexadecimal  [32-Bits]

Area                                    Addr        Size        Decimal Bytes (Attributes)
--------------------------------        ----        ----        ------- ----- ------------
_CODE_2                             00024000    00003FF1 =       16369. bytes (REL,CON)

      Value  Global                              Global Defined In Module
      -----  --------------------------------   ------------------------
     000275A5  A$SpriteHorse$1486                 SpriteHorse
     000275A6  A$SpriteHorse$1490                 SpriteHorse
     000275A6  C$SpriteHorse.c$199$2_3$191        SpriteHorse
     000275A9  A$SpriteHorse$1491                 SpriteHorse
     000275AA  A$SpriteHorse$1492                 SpriteHorse
     000275AB  A$SpriteHorse$1493                 SpriteHorse
     000275AD  A$SpriteHorse$1494                 SpriteHorse
     000275AF  A$SpriteHorse$1495                 SpriteHorse
     000275B1  A$SpriteHorse$1496                 SpriteHorse
     000275B4  A$SpriteHorse$1501                 SpriteHorse
     000275B4  C$SpriteHorse.c$200$5_3$240        SpriteHorse
     000275B7  A$SpriteHorse$1502                 SpriteHorse
     000275B8  A$SpriteHorse$1503                 SpriteHorse
     000275B9  A$SpriteHorse$1504                 SpriteHorse
     000275BC  A$SpriteHorse$1508                 SpriteHorse
     000275BC  C$SpriteHorse.c$201$6_3$241        SpriteHorse
     000275BE  A$SpriteHorse$1512                 SpriteHorse
     000275C1  A$SpriteHorse$1513                 SpriteHorse
     000275C2  A$SpriteHorse$1514                 SpriteHorse
     000275C3  A$SpriteHorse$1515                 SpriteHorse
     000275C4  A$SpriteHorse$1516                 SpriteHorse
     000275C7  A$SpriteHorse$1517                 SpriteHorse
     000275C8  A$SpriteHorse$1518                 SpriteHorse
     000275C9  A$SpriteHorse$1519                 SpriteHorse
     000275CA  A$SpriteHorse$1520                 SpriteHorse
     000275CC  A$SpriteHorse$1521                 SpriteHorse
     000275CD  A$SpriteHorse$1522                 SpriteHorse
     000275CE  A$SpriteHorse$1523                 SpriteHorse
     000275CF  A$SpriteHorse$1524                 SpriteHorse
     000275D1  A$SpriteHorse$1525                 SpriteHorse
     000275D2  A$SpriteHorse$1529                 SpriteHorse
     000275D2  C$SpriteHorse.c$202$6_3$241        SpriteHorse
     000275D5  A$SpriteHorse$1530                 SpriteHorse
     000275D6  A$SpriteHorse$1531                 SpriteHorse
     000275D7  A$SpriteHorse$1532                 SpriteHorse
     000275D8  A$SpriteHorse$1533                 SpriteHorse
     000275D9  A$SpriteHorse$1534                 SpriteHorse
     000275DB  A$SpriteHorse$1535                 SpriteHorse
     000275DD  A$SpriteHorse$1536                 SpriteHorse
     000275DF  A$SpriteHorse$1537                 SpriteHorse
     000275E1  A$SpriteHorse$1538                 SpriteHorse
     000275E2  A$SpriteHorse$1539                 SpriteHorse
     000275E4  A$SpriteHorse$1541                 SpriteHorse
     000275E6  A$SpriteHorse$1542                 SpriteHorse
     000275E8  A$SpriteHorse$1543                 SpriteHorse
     000275E9  A$SpriteHorse$1545                 SpriteHorse
     000275EB  A$SpriteHorse$1549                 SpriteHorse
     000275EB  C$SpriteHorse.c$203$7_3$242        SpriteHorse
     000275EC  A$SpriteHorse$1550                 SpriteHorse
     000275ED  A$SpriteHorse$1551                 SpriteHorse
     000275EE  A$SpriteHorse$1552                 SpriteHorse
ASxxxx Linker V03.00/V05.40 + sdld,  page 211.
Hexadecimal  [32-Bits]

Area                                    Addr        Size        Decimal Bytes (Attributes)
--------------------------------        ----        ----        ------- ----- ------------
_CODE_2                             00024000    00003FF1 =       16369. bytes (REL,CON)

      Value  Global                              Global Defined In Module
      -----  --------------------------------   ------------------------
     000275EF  A$SpriteHorse$1553                 SpriteHorse
     000275F0  A$SpriteHorse$1554                 SpriteHorse
     000275F1  A$SpriteHorse$1555                 SpriteHorse
     000275F3  A$SpriteHorse$1556                 SpriteHorse
     000275F4  A$SpriteHorse$1557                 SpriteHorse
     000275F5  A$SpriteHorse$1558                 SpriteHorse
     000275F7  A$SpriteHorse$1559                 SpriteHorse
     000275F8  A$SpriteHorse$1560                 SpriteHorse
     000275FA  A$SpriteHorse$1561                 SpriteHorse
     000275FB  A$SpriteHorse$1562                 SpriteHorse
     000275FC  A$SpriteHorse$1563                 SpriteHorse
     000275FD  A$SpriteHorse$1564                 SpriteHorse
     000275FE  A$SpriteHorse$1565                 SpriteHorse
     000275FF  A$SpriteHorse$1568                 SpriteHorse
     00027600  A$SpriteHorse$1569                 SpriteHorse
     00027601  A$SpriteHorse$1570                 SpriteHorse
     00027602  A$SpriteHorse$1571                 SpriteHorse
     00027603  A$SpriteHorse$1572                 SpriteHorse
     00027604  A$SpriteHorse$1573                 SpriteHorse
     00027605  A$SpriteHorse$1574                 SpriteHorse
     00027606  A$SpriteHorse$1575                 SpriteHorse
     00027608  A$SpriteHorse$1576                 SpriteHorse
     0002760B  A$SpriteHorse$1580                 SpriteHorse
     0002760E  A$SpriteHorse$1581                 SpriteHorse
     0002760F  A$SpriteHorse$1582                 SpriteHorse
     00027610  A$SpriteHorse$1583                 SpriteHorse
     00027611  A$SpriteHorse$1587                 SpriteHorse
     00027611  C$SpriteHorse.c$204$7_3$242        SpriteHorse
     00027614  A$SpriteHorse$1588                 SpriteHorse
     00027615  A$SpriteHorse$1589                 SpriteHorse
     00027616  A$SpriteHorse$1590                 SpriteHorse
     00027617  A$SpriteHorse$1591                 SpriteHorse
     00027618  A$SpriteHorse$1592                 SpriteHorse
     0002761A  A$SpriteHorse$1593                 SpriteHorse
     0002761B  A$SpriteHorse$1594                 SpriteHorse
     0002761C  A$SpriteHorse$1595                 SpriteHorse
     0002761D  A$SpriteHorse$1596                 SpriteHorse
     0002761E  A$SpriteHorse$1597                 SpriteHorse
     00027620  A$SpriteHorse$1598                 SpriteHorse
     00027621  A$SpriteHorse$1599                 SpriteHorse
     00027622  A$SpriteHorse$1600                 SpriteHorse
     00027623  A$SpriteHorse$1601                 SpriteHorse
     00027626  A$SpriteHorse$1602                 SpriteHorse
     00027627  A$SpriteHorse$1603                 SpriteHorse
     00027628  A$SpriteHorse$1604                 SpriteHorse
     00027629  A$SpriteHorse$1605                 SpriteHorse
     0002762A  A$SpriteHorse$1606                 SpriteHorse
     0002762B  A$SpriteHorse$1607                 SpriteHorse
     0002762D  A$SpriteHorse$1608                 SpriteHorse
     0002762E  A$SpriteHorse$1609                 SpriteHorse
     0002762F  A$SpriteHorse$1610                 SpriteHorse
ASxxxx Linker V03.00/V05.40 + sdld,  page 212.
Hexadecimal  [32-Bits]

Area                                    Addr        Size        Decimal Bytes (Attributes)
--------------------------------        ----        ----        ------- ----- ------------
_CODE_2                             00024000    00003FF1 =       16369. bytes (REL,CON)

      Value  Global                              Global Defined In Module
      -----  --------------------------------   ------------------------
     00027632  A$SpriteHorse$1611                 SpriteHorse
     00027633  A$SpriteHorse$1612                 SpriteHorse
     00027634  A$SpriteHorse$1613                 SpriteHorse
     00027635  A$SpriteHorse$1614                 SpriteHorse
     00027636  A$SpriteHorse$1615                 SpriteHorse
     00027639  A$SpriteHorse$1616                 SpriteHorse
     0002763A  A$SpriteHorse$1617                 SpriteHorse
     0002763B  A$SpriteHorse$1618                 SpriteHorse
     0002763C  A$SpriteHorse$1619                 SpriteHorse
     0002763E  A$SpriteHorse$1620                 SpriteHorse
     0002763F  A$SpriteHorse$1621                 SpriteHorse
     00027640  A$SpriteHorse$1622                 SpriteHorse
     00027641  A$SpriteHorse$1623                 SpriteHorse
     00027642  A$SpriteHorse$1624                 SpriteHorse
     00027644  A$SpriteHorse$1625                 SpriteHorse
     00027647  A$SpriteHorse$1626                 SpriteHorse
     0002764A  A$SpriteHorse$1631                 SpriteHorse
     0002764A  C$SpriteHorse.c$205$6_3$241        SpriteHorse
     0002764D  A$SpriteHorse$1632                 SpriteHorse
     0002764F  A$SpriteHorse$1633                 SpriteHorse
     00027652  A$SpriteHorse$1637                 SpriteHorse
     00027652  C$SpriteHorse.c$206$7_3$243        SpriteHorse
     00027653  A$SpriteHorse$1638                 SpriteHorse
     00027654  A$SpriteHorse$1639                 SpriteHorse
     00027655  A$SpriteHorse$1640                 SpriteHorse
     00027656  A$SpriteHorse$1641                 SpriteHorse
     00027657  A$SpriteHorse$1642                 SpriteHorse
     00027658  A$SpriteHorse$1643                 SpriteHorse
     0002765A  A$SpriteHorse$1644                 SpriteHorse
     0002765B  A$SpriteHorse$1645                 SpriteHorse
     0002765C  A$SpriteHorse$1646                 SpriteHorse
     0002765E  A$SpriteHorse$1647                 SpriteHorse
     0002765F  A$SpriteHorse$1648                 SpriteHorse
     00027661  A$SpriteHorse$1649                 SpriteHorse
     00027662  A$SpriteHorse$1650                 SpriteHorse
     00027663  A$SpriteHorse$1651                 SpriteHorse
     00027664  A$SpriteHorse$1652                 SpriteHorse
     00027665  A$SpriteHorse$1653                 SpriteHorse
     00027666  A$SpriteHorse$1656                 SpriteHorse
     00027667  A$SpriteHorse$1657                 SpriteHorse
     00027668  A$SpriteHorse$1658                 SpriteHorse
     00027669  A$SpriteHorse$1661                 SpriteHorse
     0002766A  A$SpriteHorse$1662                 SpriteHorse
     0002766B  A$SpriteHorse$1663                 SpriteHorse
     0002766C  A$SpriteHorse$1664                 SpriteHorse
     0002766E  A$SpriteHorse$1665                 SpriteHorse
     00027671  A$SpriteHorse$1669                 SpriteHorse
     00027674  A$SpriteHorse$1670                 SpriteHorse
     00027675  A$SpriteHorse$1671                 SpriteHorse
     00027676  A$SpriteHorse$1672                 SpriteHorse
     00027677  A$SpriteHorse$1676                 SpriteHorse
ASxxxx Linker V03.00/V05.40 + sdld,  page 213.
Hexadecimal  [32-Bits]

Area                                    Addr        Size        Decimal Bytes (Attributes)
--------------------------------        ----        ----        ------- ----- ------------
_CODE_2                             00024000    00003FF1 =       16369. bytes (REL,CON)

      Value  Global                              Global Defined In Module
      -----  --------------------------------   ------------------------
     00027677  C$SpriteHorse.c$207$7_3$243        SpriteHorse
     0002767A  A$SpriteHorse$1677                 SpriteHorse
     0002767B  A$SpriteHorse$1678                 SpriteHorse
     0002767C  A$SpriteHorse$1679                 SpriteHorse
     0002767D  A$SpriteHorse$1680                 SpriteHorse
     0002767E  A$SpriteHorse$1681                 SpriteHorse
     00027680  A$SpriteHorse$1682                 SpriteHorse
     00027681  A$SpriteHorse$1683                 SpriteHorse
     00027682  A$SpriteHorse$1684                 SpriteHorse
     00027683  A$SpriteHorse$1685                 SpriteHorse
     00027684  A$SpriteHorse$1686                 SpriteHorse
     00027686  A$SpriteHorse$1687                 SpriteHorse
     00027687  A$SpriteHorse$1688                 SpriteHorse
     00027688  A$SpriteHorse$1689                 SpriteHorse
     00027689  A$SpriteHorse$1690                 SpriteHorse
     0002768C  A$SpriteHorse$1691                 SpriteHorse
     0002768D  A$SpriteHorse$1692                 SpriteHorse
     0002768E  A$SpriteHorse$1693                 SpriteHorse
     0002768F  A$SpriteHorse$1694                 SpriteHorse
     00027690  A$SpriteHorse$1695                 SpriteHorse
     00027691  A$SpriteHorse$1696                 SpriteHorse
     00027693  A$SpriteHorse$1697                 SpriteHorse
     00027694  A$SpriteHorse$1698                 SpriteHorse
     00027695  A$SpriteHorse$1699                 SpriteHorse
     00027698  A$SpriteHorse$1700                 SpriteHorse
     00027699  A$SpriteHorse$1701                 SpriteHorse
     0002769A  A$SpriteHorse$1702                 SpriteHorse
     0002769B  A$SpriteHorse$1703                 SpriteHorse
     0002769C  A$SpriteHorse$1704                 SpriteHorse
     0002769F  A$SpriteHorse$1705                 SpriteHorse
     000276A0  A$SpriteHorse$1706                 SpriteHorse
     000276A1  A$SpriteHorse$1707                 SpriteHorse
     000276A2  A$SpriteHorse$1708                 SpriteHorse
     000276A4  A$SpriteHorse$1709                 SpriteHorse
     000276A5  A$SpriteHorse$1710                 SpriteHorse
     000276A6  A$SpriteHorse$1711                 SpriteHorse
     000276A7  A$SpriteHorse$1712                 SpriteHorse
     000276A8  A$SpriteHorse$1713                 SpriteHorse
     000276AA  A$SpriteHorse$1714                 SpriteHorse
     000276AD  A$SpriteHorse$1715                 SpriteHorse
     000276AF  A$SpriteHorse$1720                 SpriteHorse
     000276AF  C$SpriteHorse.c$210$5_3$244        SpriteHorse
     000276B2  A$SpriteHorse$1721                 SpriteHorse
     000276B4  A$SpriteHorse$1725                 SpriteHorse
     000276B4  C$SpriteHorse.c$211$4_3$239        SpriteHorse
     000276B6  A$SpriteHorse$1733                 SpriteHorse
     000276B6  C$SpriteHorse.c$213$4_3$239        SpriteHorse
     000276B6  C$SpriteHorse.c$214$4_3$239        SpriteHorse
     000276B9  A$SpriteHorse$1734                 SpriteHorse
     000276BA  A$SpriteHorse$1735                 SpriteHorse
     000276BB  A$SpriteHorse$1736                 SpriteHorse
ASxxxx Linker V03.00/V05.40 + sdld,  page 214.
Hexadecimal  [32-Bits]

Area                                    Addr        Size        Decimal Bytes (Attributes)
--------------------------------        ----        ----        ------- ----- ------------
_CODE_2                             00024000    00003FF1 =       16369. bytes (REL,CON)

      Value  Global                              Global Defined In Module
      -----  --------------------------------   ------------------------
     000276BC  A$SpriteHorse$1737                 SpriteHorse
     000276BE  A$SpriteHorse$1738                 SpriteHorse
     000276C0  A$SpriteHorse$1739                 SpriteHorse
     000276C3  A$SpriteHorse$1740                 SpriteHorse
     000276C4  A$SpriteHorse$1741                 SpriteHorse
     000276C5  A$SpriteHorse$1742                 SpriteHorse
     000276C6  A$SpriteHorse$1743                 SpriteHorse
     000276C7  A$SpriteHorse$1744                 SpriteHorse
     000276C8  A$SpriteHorse$1745                 SpriteHorse
     000276C9  A$SpriteHorse$1746                 SpriteHorse
     000276CA  A$SpriteHorse$1747                 SpriteHorse
     000276CC  A$SpriteHorse$1751                 SpriteHorse
     000276CC  C$SpriteHorse.c$215$5_3$245        SpriteHorse
     000276CD  A$SpriteHorse$1752                 SpriteHorse
     000276CE  A$SpriteHorse$1753                 SpriteHorse
     000276CF  A$SpriteHorse$1754                 SpriteHorse
     000276D0  A$SpriteHorse$1762                 SpriteHorse
     000276D0  C$SpriteHorse.c$218$2_3$233        SpriteHorse
     000276D0  C$SpriteHorse.c$221$2_3$233        SpriteHorse
     000276D3  A$SpriteHorse$1763                 SpriteHorse
     000276D4  A$SpriteHorse$1764                 SpriteHorse
     000276D6  A$SpriteHorse$1765                 SpriteHorse
     000276D7  A$SpriteHorse$1766                 SpriteHorse
     000276D9  A$SpriteHorse$1767                 SpriteHorse
     000276DA  A$SpriteHorse$1768                 SpriteHorse
     000276DC  A$SpriteHorse$1769                 SpriteHorse
     000276DE  A$SpriteHorse$1770                 SpriteHorse
     000276E0  A$SpriteHorse$1771                 SpriteHorse
     000276E2  A$SpriteHorse$1772                 SpriteHorse
     000276E4  A$SpriteHorse$1773                 SpriteHorse
     000276E5  A$SpriteHorse$1774                 SpriteHorse
     000276E7  A$SpriteHorse$1776                 SpriteHorse
     000276E9  A$SpriteHorse$1777                 SpriteHorse
     000276EB  A$SpriteHorse$1778                 SpriteHorse
     000276EC  A$SpriteHorse$1780                 SpriteHorse
     000276EE  A$SpriteHorse$1784                 SpriteHorse
     000276EE  C$SpriteHorse.c$222$3_3$246        SpriteHorse
     000276F0  A$SpriteHorse$1785                 SpriteHorse
     000276F1  A$SpriteHorse$1786                 SpriteHorse
     000276F2  A$SpriteHorse$1787                 SpriteHorse
     000276F5  A$SpriteHorse$1788                 SpriteHorse
     000276F8  A$SpriteHorse$1789                 SpriteHorse
     000276F9  A$SpriteHorse$1790                 SpriteHorse
     000276FA  A$SpriteHorse$1791                 SpriteHorse
     000276FB  A$SpriteHorse$1792                 SpriteHorse
     000276FE  A$SpriteHorse$1793                 SpriteHorse
     00027700  A$SpriteHorse$1798                 SpriteHorse
     00027700  C$SpriteHorse.c$224$3_3$247        SpriteHorse
     00027702  A$SpriteHorse$1799                 SpriteHorse
     00027703  A$SpriteHorse$1800                 SpriteHorse
     00027704  A$SpriteHorse$1801                 SpriteHorse
ASxxxx Linker V03.00/V05.40 + sdld,  page 215.
Hexadecimal  [32-Bits]

Area                                    Addr        Size        Decimal Bytes (Attributes)
--------------------------------        ----        ----        ------- ----- ------------
_CODE_2                             00024000    00003FF1 =       16369. bytes (REL,CON)

      Value  Global                              Global Defined In Module
      -----  --------------------------------   ------------------------
     00027707  A$SpriteHorse$1802                 SpriteHorse
     0002770A  A$SpriteHorse$1803                 SpriteHorse
     0002770B  A$SpriteHorse$1804                 SpriteHorse
     0002770C  A$SpriteHorse$1805                 SpriteHorse
     0002770D  A$SpriteHorse$1806                 SpriteHorse
     00027710  A$SpriteHorse$1811                 SpriteHorse
     00027710  C$SpriteHorse.c$226$2_3$233        SpriteHorse
     00027713  A$SpriteHorse$1812                 SpriteHorse
     00027714  A$SpriteHorse$1813                 SpriteHorse
     00027715  A$SpriteHorse$1814                 SpriteHorse
     00027717  A$SpriteHorse$1815                 SpriteHorse
     00027718  A$SpriteHorse$1816                 SpriteHorse
     0002771A  A$SpriteHorse$1817                 SpriteHorse
     0002771B  A$SpriteHorse$1819                 SpriteHorse
     0002771E  A$SpriteHorse$1820                 SpriteHorse
     0002771F  A$SpriteHorse$1821                 SpriteHorse
     00027720  A$SpriteHorse$1822                 SpriteHorse
     00027721  A$SpriteHorse$1823                 SpriteHorse
     00027723  A$SpriteHorse$1824                 SpriteHorse
     00027725  A$SpriteHorse$1825                 SpriteHorse
     00027727  A$SpriteHorse$1826                 SpriteHorse
     00027729  A$SpriteHorse$1827                 SpriteHorse
     0002772B  A$SpriteHorse$1828                 SpriteHorse
     0002772D  A$SpriteHorse$1829                 SpriteHorse
     0002772F  A$SpriteHorse$1830                 SpriteHorse
     00027731  A$SpriteHorse$1831                 SpriteHorse
     00027733  A$SpriteHorse$1832                 SpriteHorse
     00027735  A$SpriteHorse$1833                 SpriteHorse
     00027736  A$SpriteHorse$1834                 SpriteHorse
     00027737  A$SpriteHorse$1839                 SpriteHorse
     00027737  C$SpriteHorse.c$194$2_3$191        SpriteHorse
     0002773A  A$SpriteHorse$1840                 SpriteHorse
     0002773B  A$SpriteHorse$1841                 SpriteHorse
     0002773C  A$SpriteHorse$1845                 SpriteHorse
     0002773C  C$SpriteHorse.c$231$2_3$191        SpriteHorse
     0002773E  A$SpriteHorse$1846                 SpriteHorse
     0002773F  A$SpriteHorse$1847                 SpriteHorse
     00027741  A$SpriteHorse$1848                 SpriteHorse
     00027742  A$SpriteHorse$1853                 SpriteHorse
     00027742  C$SpriteHorse.c$230$1_2$215        SpriteHorse
     00027745  A$SpriteHorse$1854                 SpriteHorse
     00027746  A$SpriteHorse$1855                 SpriteHorse
     00027747  A$SpriteHorse$1856                 SpriteHorse
     00027748  A$SpriteHorse$1857                 SpriteHorse
     00027749  A$SpriteHorse$1858                 SpriteHorse
     0002774B  A$SpriteHorse$1859                 SpriteHorse
     0002774D  A$SpriteHorse$1860                 SpriteHorse
     0002774F  A$SpriteHorse$1861                 SpriteHorse
     00027751  A$SpriteHorse$1862                 SpriteHorse
     00027752  A$SpriteHorse$1863                 SpriteHorse
     00027754  A$SpriteHorse$1865                 SpriteHorse
ASxxxx Linker V03.00/V05.40 + sdld,  page 216.
Hexadecimal  [32-Bits]

Area                                    Addr        Size        Decimal Bytes (Attributes)
--------------------------------        ----        ----        ------- ----- ------------
_CODE_2                             00024000    00003FF1 =       16369. bytes (REL,CON)

      Value  Global                              Global Defined In Module
      -----  --------------------------------   ------------------------
     00027756  A$SpriteHorse$1866                 SpriteHorse
     00027758  A$SpriteHorse$1867                 SpriteHorse
     00027759  A$SpriteHorse$1869                 SpriteHorse
     0002775B  A$SpriteHorse$1873                 SpriteHorse
     0002775B  C$SpriteHorse.c$231$2_2$248        SpriteHorse
     0002775C  A$SpriteHorse$1874                 SpriteHorse
     0002775D  A$SpriteHorse$1875                 SpriteHorse
     0002775F  A$SpriteHorse$1880                 SpriteHorse
     0002775F  C$SpriteHorse.c$232$1_2$215        SpriteHorse
     00027762  A$SpriteHorse$1881                 SpriteHorse
     00027764  A$SpriteHorse$1882                 SpriteHorse
     00027766  A$SpriteHorse$1886                 SpriteHorse
     00027766  C$SpriteHorse.c$233$2_2$249        SpriteHorse
     00027768  A$SpriteHorse$1887                 SpriteHorse
     00027769  A$SpriteHorse$1892                 SpriteHorse
     0002776C  A$SpriteHorse$1893                 SpriteHorse
     0002776D  A$SpriteHorse$1896                 SpriteHorse
     0002776F  A$SpriteHorse$1899                 SpriteHorse
     00027770  A$SpriteHorse$1900                 SpriteHorse
     00027773  A$SpriteHorse$1901                 SpriteHorse
     00027774  A$SpriteHorse$1902                 SpriteHorse
     00027775  A$SpriteHorse$1903                 SpriteHorse
     00027776  A$SpriteHorse$1904                 SpriteHorse
     00027777  A$SpriteHorse$1905                 SpriteHorse
     00027779  A$SpriteHorse$1906                 SpriteHorse
     0002777A  A$SpriteHorse$1907                 SpriteHorse
     0002777B  A$SpriteHorse$1908                 SpriteHorse
     0002777C  A$SpriteHorse$1909                 SpriteHorse
     0002777D  A$SpriteHorse$1910                 SpriteHorse
     0002777F  A$SpriteHorse$1912                 SpriteHorse
     00027782  A$SpriteHorse$1913                 SpriteHorse
     00027783  A$SpriteHorse$1914                 SpriteHorse
     00027784  A$SpriteHorse$1915                 SpriteHorse
     00027785  A$SpriteHorse$1916                 SpriteHorse
     00027787  A$SpriteHorse$1920                 SpriteHorse
     00027787  C$SpriteHorse.c$240$3_3$252        SpriteHorse
     00027788  A$SpriteHorse$1921                 SpriteHorse
     0002778A  A$SpriteHorse$1922                 SpriteHorse
     0002778B  A$SpriteHorse$1923                 SpriteHorse
     0002778C  A$SpriteHorse$1924                 SpriteHorse
     0002778D  A$SpriteHorse$1925                 SpriteHorse
     00027790  A$SpriteHorse$1926                 SpriteHorse
     00027791  A$SpriteHorse$1927                 SpriteHorse
     00027792  A$SpriteHorse$1928                 SpriteHorse
     00027793  A$SpriteHorse$1929                 SpriteHorse
     00027796  A$SpriteHorse$1930                 SpriteHorse
     00027797  A$SpriteHorse$1934                 SpriteHorse
     00027797  C$SpriteHorse.c$239$2_3$251        SpriteHorse
     00027798  A$SpriteHorse$1935                 SpriteHorse
     00027799  A$SpriteHorse$1936                 SpriteHorse
     0002779B  A$SpriteHorse$1937                 SpriteHorse
ASxxxx Linker V03.00/V05.40 + sdld,  page 217.
Hexadecimal  [32-Bits]

Area                                    Addr        Size        Decimal Bytes (Attributes)
--------------------------------        ----        ----        ------- ----- ------------
_CODE_2                             00024000    00003FF1 =       16369. bytes (REL,CON)

      Value  Global                              Global Defined In Module
      -----  --------------------------------   ------------------------
     0002779C  A$SpriteHorse$1938                 SpriteHorse
     0002779F  A$SpriteHorse$1939                 SpriteHorse
     000277A0  A$SpriteHorse$1940                 SpriteHorse
     000277A1  A$SpriteHorse$1942                 SpriteHorse
     000277A3  A$SpriteHorse$1945                 SpriteHorse
     000277A4  A$SpriteHorse$1946                 SpriteHorse
     000277A7  A$SpriteHorse$1947                 SpriteHorse
     000277A8  A$SpriteHorse$1948                 SpriteHorse
     000277A9  A$SpriteHorse$1949                 SpriteHorse
     000277AA  A$SpriteHorse$1950                 SpriteHorse
     000277AB  A$SpriteHorse$1951                 SpriteHorse
     000277AD  A$SpriteHorse$1952                 SpriteHorse
     000277AE  A$SpriteHorse$1953                 SpriteHorse
     000277AF  A$SpriteHorse$1954                 SpriteHorse
     000277B0  A$SpriteHorse$1955                 SpriteHorse
     000277B1  A$SpriteHorse$1956                 SpriteHorse
     000277B3  A$SpriteHorse$1961                 SpriteHorse
     000277B5  A$SpriteHorse$1966                 SpriteHorse
     000277B5  C$SpriteHorse.c$249$2_3$191        SpriteHorse
     000277B5  XG$Update_SpriteHorse$0$0          SpriteHorse
     000277B6  A$SpriteHorse$1983                 SpriteHorse
     000277B6  C$SpriteHorse.c$251$2_3$256        SpriteHorse
     000277B6  C$SpriteHorse.c$252$2_3$256        SpriteHorse
     000277B6  G$Destroy_SpriteHorse$0$0          SpriteHorse
     000277B6  XG$Destroy_SpriteHorse$0$0         SpriteHorse
     000277B6  _Destroy_SpriteHorse               SpriteHorse
     000277B7  A$SpritePlayer$62                  SpritePlayer
     000277B7  C$SpritePlayer.c$3$0_0$2           SpritePlayer
     000277B7  C$SpritePlayer.c$4$0_0$2           SpritePlayer
     000277B7  G$Start_SpritePlayer$0$0           SpritePlayer
     000277B7  XG$Start_SpritePlayer$0$0          SpritePlayer
     000277B7  _Start_SpritePlayer                SpritePlayer
     000277B8  A$SpritePlayer$81                  SpritePlayer
     000277B8  C$SpritePlayer.c$6$0_0$4           SpritePlayer
     000277B8  C$SpritePlayer.c$7$0_0$4           SpritePlayer
     000277B8  G$Update_SpritePlayer$0$0          SpritePlayer
     000277B8  XG$Update_SpritePlayer$0$0         SpritePlayer
     000277B8  _Update_SpritePlayer               SpritePlayer
     000277B9  A$SpritePlayer$98                  SpritePlayer
     000277B9  C$SpritePlayer.c$10$0_0$6          SpritePlayer
     000277B9  C$SpritePlayer.c$9$0_0$6           SpritePlayer
     000277B9  G$Destroy_SpritePlayer$0$0         SpritePlayer
     000277B9  XG$Destroy_SpritePlayer$0$0        SpritePlayer
     000277B9  _Destroy_SpritePlayer              SpritePlayer
     000277BA  A$StateGame$192                    StateGame
     000277BA  C$StateGame.c$51$0_0$191           StateGame
     000277BA  G$Start_StateGame$0$0              StateGame
     000277BA  _Start_StateGame                   StateGame
     000277BC  A$StateGame$196                    StateGame
     000277BC  C$StateGame.c$54$1_0$191           StateGame
     000277BF  A$StateGame$197                    StateGame
ASxxxx Linker V03.00/V05.40 + sdld,  page 218.
Hexadecimal  [32-Bits]

Area                                    Addr        Size        Decimal Bytes (Attributes)
--------------------------------        ----        ----        ------- ----- ------------
_CODE_2                             00024000    00003FF1 =       16369. bytes (REL,CON)

      Value  Global                              Global Defined In Module
      -----  --------------------------------   ------------------------
     000277C0  A$StateGame$198                    StateGame
     000277C3  A$StateGame$199                    StateGame
     000277C5  A$StateGame$200                    StateGame
     000277C8  A$StateGame$201                    StateGame
     000277CB  A$StateGame$202                    StateGame
     000277CC  A$StateGame$203                    StateGame
     000277CD  A$StateGame$204                    StateGame
     000277CE  A$StateGame$208                    StateGame
     000277CE  C$StateGame.c$55$1_0$191           StateGame
     000277D1  A$StateGame$209                    StateGame
     000277D2  A$StateGame$210                    StateGame
     000277D5  A$StateGame$211                    StateGame
     000277D7  A$StateGame$212                    StateGame
     000277DA  A$StateGame$213                    StateGame
     000277DD  A$StateGame$214                    StateGame
     000277DE  A$StateGame$215                    StateGame
     000277DF  A$StateGame$216                    StateGame
     000277E0  A$StateGame$220                    StateGame
     000277E0  C$StateGame.c$56$1_0$191           StateGame
     000277E3  A$StateGame$221                    StateGame
     000277E4  A$StateGame$222                    StateGame
     000277E7  A$StateGame$223                    StateGame
     000277E9  A$StateGame$224                    StateGame
     000277EC  A$StateGame$225                    StateGame
     000277EF  A$StateGame$226                    StateGame
     000277F0  A$StateGame$227                    StateGame
     000277F1  A$StateGame$228                    StateGame
     000277F2  A$StateGame$232                    StateGame
     000277F2  C$StateGame.c$57$1_0$191           StateGame
     000277F5  A$StateGame$233                    StateGame
     000277F6  A$StateGame$234                    StateGame
     000277F9  A$StateGame$235                    StateGame
     000277FB  A$StateGame$236                    StateGame
     000277FE  A$StateGame$237                    StateGame
     00027801  A$StateGame$238                    StateGame
     00027802  A$StateGame$239                    StateGame
     00027803  A$StateGame$240                    StateGame
     00027804  A$StateGame$244                    StateGame
     00027804  C$StateGame.c$58$1_1$191           StateGame
     00027807  A$StateGame$245                    StateGame
     00027808  A$StateGame$246                    StateGame
     00027809  A$StateGame$247                    StateGame
     0002780A  A$StateGame$248                    StateGame
     0002780D  A$StateGame$249                    StateGame
     0002780E  A$StateGame$250                    StateGame
     0002780F  A$StateGame$251                    StateGame
     00027810  A$StateGame$252                    StateGame
     00027811  A$StateGame$253                    StateGame
     00027813  A$StateGame$254                    StateGame
     00027814  A$StateGame$255                    StateGame
     00027815  A$StateGame$256                    StateGame
ASxxxx Linker V03.00/V05.40 + sdld,  page 219.
Hexadecimal  [32-Bits]

Area                                    Addr        Size        Decimal Bytes (Attributes)
--------------------------------        ----        ----        ------- ----- ------------
_CODE_2                             00024000    00003FF1 =       16369. bytes (REL,CON)

      Value  Global                              Global Defined In Module
      -----  --------------------------------   ------------------------
     00027816  A$StateGame$257                    StateGame
     00027817  A$StateGame$258                    StateGame
     00027818  A$StateGame$259                    StateGame
     00027819  A$StateGame$260                    StateGame
     0002781C  A$StateGame$261                    StateGame
     0002781D  A$StateGame$262                    StateGame
     0002781E  A$StateGame$263                    StateGame
     0002781F  A$StateGame$264                    StateGame
     00027821  A$StateGame$265                    StateGame
     00027822  A$StateGame$266                    StateGame
     00027823  A$StateGame$267                    StateGame
     00027824  A$StateGame$268                    StateGame
     00027826  A$StateGame$269                    StateGame
     00027827  A$StateGame$270                    StateGame
     0002782A  A$StateGame$271                    StateGame
     0002782B  A$StateGame$272                    StateGame
     0002782C  A$StateGame$273                    StateGame
     0002782D  A$StateGame$274                    StateGame
     0002782E  A$StateGame$275                    StateGame
     00027831  A$StateGame$276                    StateGame
     00027832  A$StateGame$277                    StateGame
     00027833  A$StateGame$278                    StateGame
     00027834  A$StateGame$279                    StateGame
     00027836  A$StateGame$280                    StateGame
     00027837  A$StateGame$281                    StateGame
     00027838  A$StateGame$282                    StateGame
     00027839  A$StateGame$283                    StateGame
     0002783A  A$StateGame$284                    StateGame
     0002783C  A$StateGame$285                    StateGame
     0002783F  A$StateGame$286                    StateGame
     00027842  A$StateGame$287                    StateGame
     00027843  A$StateGame$288                    StateGame
     00027844  A$StateGame$289                    StateGame
     00027845  A$StateGame$293                    StateGame
     00027845  C$StateGame.c$59$1_1$192           StateGame
     00027848  A$StateGame$294                    StateGame
     00027849  A$StateGame$295                    StateGame
     0002784A  A$StateGame$296                    StateGame
     0002784B  A$StateGame$297                    StateGame
     0002784C  A$StateGame$298                    StateGame
     0002784E  A$StateGame$299                    StateGame
     0002784F  A$StateGame$300                    StateGame
     00027850  A$StateGame$301                    StateGame
     00027851  A$StateGame$302                    StateGame
     00027852  A$StateGame$303                    StateGame
     00027853  A$StateGame$304                    StateGame
     00027854  A$StateGame$305                    StateGame
     00027857  A$StateGame$306                    StateGame
     00027858  A$StateGame$307                    StateGame
     00027859  A$StateGame$308                    StateGame
     0002785A  A$StateGame$309                    StateGame
ASxxxx Linker V03.00/V05.40 + sdld,  page 220.
Hexadecimal  [32-Bits]

Area                                    Addr        Size        Decimal Bytes (Attributes)
--------------------------------        ----        ----        ------- ----- ------------
_CODE_2                             00024000    00003FF1 =       16369. bytes (REL,CON)

      Value  Global                              Global Defined In Module
      -----  --------------------------------   ------------------------
     0002785C  A$StateGame$310                    StateGame
     0002785D  A$StateGame$311                    StateGame
     0002785E  A$StateGame$312                    StateGame
     0002785F  A$StateGame$313                    StateGame
     00027861  A$StateGame$314                    StateGame
     00027862  A$StateGame$315                    StateGame
     00027865  A$StateGame$316                    StateGame
     00027866  A$StateGame$317                    StateGame
     00027867  A$StateGame$318                    StateGame
     00027868  A$StateGame$319                    StateGame
     00027869  A$StateGame$320                    StateGame
     0002786C  A$StateGame$321                    StateGame
     0002786D  A$StateGame$322                    StateGame
     0002786E  A$StateGame$323                    StateGame
     0002786F  A$StateGame$324                    StateGame
     00027871  A$StateGame$325                    StateGame
     00027872  A$StateGame$326                    StateGame
     00027873  A$StateGame$327                    StateGame
     00027874  A$StateGame$328                    StateGame
     00027875  A$StateGame$329                    StateGame
     00027877  A$StateGame$330                    StateGame
     0002787A  A$StateGame$334                    StateGame
     0002787A  C$StateGame.c$60$1_1$192           StateGame
     0002787D  A$StateGame$335                    StateGame
     0002787F  A$StateGame$339                    StateGame
     0002787F  C$StateGame.c$61$1_1$192           StateGame
     00027882  A$StateGame$340                    StateGame
     00027884  A$StateGame$341                    StateGame
     00027887  A$StateGame$342                    StateGame
     00027888  A$StateGame$343                    StateGame
     0002788B  A$StateGame$344                    StateGame
     0002788C  A$StateGame$345                    StateGame
     0002788D  A$StateGame$346                    StateGame
     00027890  A$StateGame$350                    StateGame
     00027890  C$StateGame.c$64$1_1$192           StateGame
     00027893  A$StateGame$351                    StateGame
     00027895  A$StateGame$352                    StateGame
     00027898  A$StateGame$353                    StateGame
     00027899  A$StateGame$354                    StateGame
     0002789C  A$StateGame$355                    StateGame
     0002789D  A$StateGame$356                    StateGame
     0002789E  A$StateGame$357                    StateGame
     000278A1  A$StateGame$358                    StateGame
     000278A4  A$StateGame$359                    StateGame
     000278A5  A$StateGame$360                    StateGame
     000278A6  A$StateGame$361                    StateGame
     000278A7  A$StateGame$362                    StateGame
     000278A8  A$StateGame$363                    StateGame
     000278A9  A$StateGame$364                    StateGame
     000278AB  A$StateGame$365                    StateGame
     000278AD  A$StateGame$366                    StateGame
ASxxxx Linker V03.00/V05.40 + sdld,  page 221.
Hexadecimal  [32-Bits]

Area                                    Addr        Size        Decimal Bytes (Attributes)
--------------------------------        ----        ----        ------- ----- ------------
_CODE_2                             00024000    00003FF1 =       16369. bytes (REL,CON)

      Value  Global                              Global Defined In Module
      -----  --------------------------------   ------------------------
     000278AF  A$StateGame$367                    StateGame
     000278B0  A$StateGame$368                    StateGame
     000278B2  A$StateGame$369                    StateGame
     000278B5  A$StateGame$370                    StateGame
     000278B7  A$StateGame$371                    StateGame
     000278B8  A$StateGame$372                    StateGame
     000278B9  A$StateGame$373                    StateGame
     000278BB  A$StateGame$374                    StateGame
     000278BC  A$StateGame$375                    StateGame
     000278BE  A$StateGame$376                    StateGame
     000278C0  A$StateGame$377                    StateGame
     000278C3  A$StateGame$378                    StateGame
     000278C6  A$StateGame$379                    StateGame
     000278C7  A$StateGame$380                    StateGame
     000278C8  A$StateGame$381                    StateGame
     000278C9  A$StateGame$382                    StateGame
     000278CB  A$StateGame$383                    StateGame
     000278CD  A$StateGame$384                    StateGame
     000278CF  A$StateGame$388                    StateGame
     000278CF  C$StateGame.c$65$1_1$192           StateGame
     000278D1  A$StateGame$389                    StateGame
     000278D4  A$StateGame$393                    StateGame
     000278D4  C$StateGame.c$66$1_1$192           StateGame
     000278D7  A$StateGame$394                    StateGame
     000278DA  A$StateGame$395                    StateGame
     000278DD  A$StateGame$396                    StateGame
     000278E0  A$StateGame$400                    StateGame
     000278E0  C$StateGame.c$67$1_1$192           StateGame
     000278E3  A$StateGame$401                    StateGame
     000278E6  A$StateGame$402                    StateGame
     000278E9  A$StateGame$403                    StateGame
     000278EC  A$StateGame$407                    StateGame
     000278EC  C$StateGame.c$68$1_1$192           StateGame
     000278EE  A$StateGame$408                    StateGame
     000278F1  A$StateGame$409                    StateGame
     000278F4  A$StateGame$413                    StateGame
     000278F6  A$StateGame$418                    StateGame
     000278F6  C$StateGame.c$69$1_1$191           StateGame
     000278F6  XG$Start_StateGame$0$0             StateGame
     000278F7  G$coll_tiles$0_0$0                 StateGame
     000278F7  _coll_tiles                        StateGame
     0002795C  G$coll_surface$0_0$0               StateGame
     0002795C  _coll_surface                      StateGame
     0002795E  A$StateGame$538                    StateGame
     0002795E  C$StateGame.c$71$1_1$193           StateGame
     0002795E  G$update_stamina$0$0               StateGame
     0002795E  _update_stamina                    StateGame
     00027960  A$StateGame$542                    StateGame
     00027960  C$StateGame.c$75$1_0$193           StateGame
     00027963  A$StateGame$543                    StateGame
     00027966  A$StateGame$544                    StateGame
ASxxxx Linker V03.00/V05.40 + sdld,  page 222.
Hexadecimal  [32-Bits]

Area                                    Addr        Size        Decimal Bytes (Attributes)
--------------------------------        ----        ----        ------- ----- ------------
_CODE_2                             00024000    00003FF1 =       16369. bytes (REL,CON)

      Value  Global                              Global Defined In Module
      -----  --------------------------------   ------------------------
     00027967  A$StateGame$545                    StateGame
     00027968  A$StateGame$546                    StateGame
     00027969  A$StateGame$550                    StateGame
     00027969  C$StateGame.c$76$1_0$193           StateGame
     0002796C  A$StateGame$551                    StateGame
     0002796D  A$StateGame$552                    StateGame
     0002796E  A$StateGame$553                    StateGame
     00027970  A$StateGame$554                    StateGame
     00027971  A$StateGame$555                    StateGame
     00027972  A$StateGame$556                    StateGame
     00027973  A$StateGame$557                    StateGame
     00027975  A$StateGame$558                    StateGame
     00027976  A$StateGame$559                    StateGame
     00027978  A$StateGame$560                    StateGame
     00027979  A$StateGame$561                    StateGame
     0002797B  A$StateGame$562                    StateGame
     0002797C  A$StateGame$563                    StateGame
     0002797E  A$StateGame$564                    StateGame
     0002797F  A$StateGame$565                    StateGame
     00027981  A$StateGame$566                    StateGame
     00027982  A$StateGame$567                    StateGame
     00027984  A$StateGame$571                    StateGame
     00027984  C$StateGame.c$77$1_0$193           StateGame
     00027987  A$StateGame$572                    StateGame
     0002798A  A$StateGame$573                    StateGame
     0002798B  A$StateGame$574                    StateGame
     0002798C  A$StateGame$578                    StateGame
     0002798C  C$StateGame.c$78$1_0$193           StateGame
     0002798F  A$StateGame$582                    StateGame
     0002798F  C$StateGame.c$79$1_0$193           StateGame
     00027991  A$StateGame$583                    StateGame
     00027992  A$StateGame$584                    StateGame
     00027993  A$StateGame$585                    StateGame
     00027995  A$StateGame$589                    StateGame
     00027995  C$StateGame.c$80$1_0$193           StateGame
     00027998  A$StateGame$591                    StateGame
     00027999  A$StateGame$592                    StateGame
     0002799A  A$StateGame$593                    StateGame
     0002799B  A$StateGame$594                    StateGame
     0002799C  A$StateGame$595                    StateGame
     0002799E  A$StateGame$596                    StateGame
     0002799F  A$StateGame$597                    StateGame
     000279A0  A$StateGame$598                    StateGame
     000279A2  A$StateGame$599                    StateGame
     000279A3  A$StateGame$600                    StateGame
     000279A4  A$StateGame$601                    StateGame
     000279A5  A$StateGame$602                    StateGame
     000279A6  A$StateGame$603                    StateGame
     000279A7  A$StateGame$604                    StateGame
     000279A8  A$StateGame$605                    StateGame
     000279A9  A$StateGame$606                    StateGame
ASxxxx Linker V03.00/V05.40 + sdld,  page 223.
Hexadecimal  [32-Bits]

Area                                    Addr        Size        Decimal Bytes (Attributes)
--------------------------------        ----        ----        ------- ----- ------------
_CODE_2                             00024000    00003FF1 =       16369. bytes (REL,CON)

      Value  Global                              Global Defined In Module
      -----  --------------------------------   ------------------------
     000279AB  A$StateGame$610                    StateGame
     000279AB  C$StateGame.c$81$4_0$196           StateGame
     000279AC  A$StateGame$611                    StateGame
     000279AE  A$StateGame$612                    StateGame
     000279B0  A$StateGame$613                    StateGame
     000279B1  A$StateGame$614                    StateGame
     000279B2  A$StateGame$615                    StateGame
     000279B3  A$StateGame$616                    StateGame
     000279B6  A$StateGame$617                    StateGame
     000279B7  A$StateGame$618                    StateGame
     000279B9  A$StateGame$619                    StateGame
     000279BA  A$StateGame$620                    StateGame
     000279BB  A$StateGame$621                    StateGame
     000279BE  A$StateGame$622                    StateGame
     000279BF  A$StateGame$625                    StateGame
     000279C2  A$StateGame$626                    StateGame
     000279C3  A$StateGame$629                    StateGame
     000279C4  A$StateGame$630                    StateGame
     000279C5  A$StateGame$631                    StateGame
     000279C6  A$StateGame$632                    StateGame
     000279C7  A$StateGame$633                    StateGame
     000279C9  A$StateGame$634                    StateGame
     000279CA  A$StateGame$635                    StateGame
     000279CC  A$StateGame$636                    StateGame
     000279CF  A$StateGame$637                    StateGame
     000279D0  A$StateGame$638                    StateGame
     000279D1  A$StateGame$642                    StateGame
     000279D1  C$StateGame.c$80$3_0$195           StateGame
     000279D2  A$StateGame$643                    StateGame
     000279D4  A$StateGame$649                    StateGame
     000279D4  C$StateGame.c$84$1_0$193           StateGame
     000279D5  A$StateGame$650                    StateGame
     000279D6  A$StateGame$651                    StateGame
     000279D8  A$StateGame$655                    StateGame
     000279D8  C$StateGame.c$85$2_0$197           StateGame
     000279DA  A$StateGame$656                    StateGame
     000279DB  A$StateGame$657                    StateGame
     000279DC  A$StateGame$658                    StateGame
     000279DD  A$StateGame$659                    StateGame
     000279DF  A$StateGame$660                    StateGame
     000279E0  A$StateGame$661                    StateGame
     000279E1  A$StateGame$662                    StateGame
     000279E4  A$StateGame$663                    StateGame
     000279E5  A$StateGame$664                    StateGame
     000279E6  A$StateGame$665                    StateGame
     000279E7  A$StateGame$666                    StateGame
     000279EA  A$StateGame$667                    StateGame
     000279EB  A$StateGame$670                    StateGame
     000279EE  A$StateGame$671                    StateGame
     000279EF  A$StateGame$674                    StateGame
     000279F0  A$StateGame$675                    StateGame
ASxxxx Linker V03.00/V05.40 + sdld,  page 224.
Hexadecimal  [32-Bits]

Area                                    Addr        Size        Decimal Bytes (Attributes)
--------------------------------        ----        ----        ------- ----- ------------
_CODE_2                             00024000    00003FF1 =       16369. bytes (REL,CON)

      Value  Global                              Global Defined In Module
      -----  --------------------------------   ------------------------
     000279F1  A$StateGame$676                    StateGame
     000279F2  A$StateGame$677                    StateGame
     000279F3  A$StateGame$678                    StateGame
     000279F5  A$StateGame$679                    StateGame
     000279F8  A$StateGame$680                    StateGame
     000279F9  A$StateGame$684                    StateGame
     000279F9  C$StateGame.c$86$2_0$197           StateGame
     000279FA  A$StateGame$690                    StateGame
     000279FA  C$StateGame.c$88$1_0$193           StateGame
     000279FB  A$StateGame$691                    StateGame
     000279FD  A$StateGame$692                    StateGame
     000279FE  A$StateGame$693                    StateGame
     000279FF  A$StateGame$694                    StateGame
     00027A00  A$StateGame$695                    StateGame
     00027A01  A$StateGame$696                    StateGame
     00027A03  A$StateGame$697                    StateGame
     00027A05  A$StateGame$701                    StateGame
     00027A05  C$StateGame.c$89$2_0$198           StateGame
     00027A06  A$StateGame$702                    StateGame
     00027A08  A$StateGame$703                    StateGame
     00027A09  A$StateGame$704                    StateGame
     00027A0A  A$StateGame$705                    StateGame
     00027A0D  A$StateGame$706                    StateGame
     00027A0E  A$StateGame$707                    StateGame
     00027A10  A$StateGame$708                    StateGame
     00027A11  A$StateGame$709                    StateGame
     00027A12  A$StateGame$710                    StateGame
     00027A15  A$StateGame$711                    StateGame
     00027A16  A$StateGame$714                    StateGame
     00027A19  A$StateGame$715                    StateGame
     00027A1A  A$StateGame$718                    StateGame
     00027A1B  A$StateGame$719                    StateGame
     00027A1C  A$StateGame$720                    StateGame
     00027A1D  A$StateGame$721                    StateGame
     00027A1E  A$StateGame$722                    StateGame
     00027A20  A$StateGame$723                    StateGame
     00027A23  A$StateGame$724                    StateGame
     00027A24  A$StateGame$728                    StateGame
     00027A24  C$StateGame.c$90$2_0$198           StateGame
     00027A25  A$StateGame$729                    StateGame
     00027A27  A$StateGame$734                    StateGame
     00027A29  A$StateGame$739                    StateGame
     00027A29  C$StateGame.c$92$1_0$193           StateGame
     00027A29  XG$update_stamina$0$0              StateGame
     00027A2A  A$StateGame$750                    StateGame
     00027A2A  C$StateGame.c$94$1_0$199           StateGame
     00027A2A  G$update_euphoria$0$0              StateGame
     00027A2A  _update_euphoria                   StateGame
     00027A2C  A$StateGame$754                    StateGame
     00027A2C  C$StateGame.c$95$1_0$199           StateGame
     00027A2F  A$StateGame$755                    StateGame
ASxxxx Linker V03.00/V05.40 + sdld,  page 225.
Hexadecimal  [32-Bits]

Area                                    Addr        Size        Decimal Bytes (Attributes)
--------------------------------        ----        ----        ------- ----- ------------
_CODE_2                             00024000    00003FF1 =       16369. bytes (REL,CON)

      Value  Global                              Global Defined In Module
      -----  --------------------------------   ------------------------
     00027A32  A$StateGame$756                    StateGame
     00027A35  A$StateGame$757                    StateGame
     00027A38  A$StateGame$761                    StateGame
     00027A38  C$StateGame.c$96$1_0$199           StateGame
     00027A3B  A$StateGame$762                    StateGame
     00027A3E  A$StateGame$763                    StateGame
     00027A41  A$StateGame$764                    StateGame
     00027A44  A$StateGame$768                    StateGame
     00027A44  C$StateGame.c$97$1_1$199           StateGame
     00027A47  A$StateGame$769                    StateGame
     00027A4A  A$StateGame$770                    StateGame
     00027A4B  A$StateGame$771                    StateGame
     00027A4C  A$StateGame$772                    StateGame
     00027A4D  A$StateGame$773                    StateGame
     00027A50  A$StateGame$774                    StateGame
     00027A52  A$StateGame$775                    StateGame
     00027A54  A$StateGame$776                    StateGame
     00027A56  A$StateGame$777                    StateGame
     00027A58  A$StateGame$778                    StateGame
     00027A5A  A$StateGame$779                    StateGame
     00027A5C  A$StateGame$780                    StateGame
     00027A5E  A$StateGame$781                    StateGame
     00027A5F  A$StateGame$785                    StateGame
     00027A5F  C$StateGame.c$98$1_1$199           StateGame
     00027A62  A$StateGame$786                    StateGame
     00027A65  A$StateGame$787                    StateGame
     00027A66  A$StateGame$788                    StateGame
     00027A67  A$StateGame$789                    StateGame
     00027A68  A$StateGame$790                    StateGame
     00027A6B  A$StateGame$791                    StateGame
     00027A6D  A$StateGame$792                    StateGame
     00027A6F  A$StateGame$793                    StateGame
     00027A71  A$StateGame$794                    StateGame
     00027A73  A$StateGame$795                    StateGame
     00027A75  A$StateGame$796                    StateGame
     00027A77  A$StateGame$797                    StateGame
     00027A79  A$StateGame$798                    StateGame
     00027A7A  A$StateGame$802                    StateGame
     00027A7A  C$StateGame.c$99$1_1$200           StateGame
     00027A7B  A$StateGame$803                    StateGame
     00027A7C  A$StateGame$804                    StateGame
     00027A7D  A$StateGame$805                    StateGame
     00027A7E  A$StateGame$806                    StateGame
     00027A7F  A$StateGame$810                    StateGame
     00027A7F  C$StateGame.c$101$1_1$199          StateGame
     00027A81  A$StateGame$811                    StateGame
     00027A83  A$StateGame$813                    StateGame
     00027A85  A$StateGame$814                    StateGame
     00027A86  A$StateGame$815                    StateGame
     00027A87  A$StateGame$816                    StateGame
     00027A88  A$StateGame$817                    StateGame
ASxxxx Linker V03.00/V05.40 + sdld,  page 226.
Hexadecimal  [32-Bits]

Area                                    Addr        Size        Decimal Bytes (Attributes)
--------------------------------        ----        ----        ------- ----- ------------
_CODE_2                             00024000    00003FF1 =       16369. bytes (REL,CON)

      Value  Global                              Global Defined In Module
      -----  --------------------------------   ------------------------
     00027A89  A$StateGame$818                    StateGame
     00027A8A  A$StateGame$819                    StateGame
     00027A8B  A$StateGame$820                    StateGame
     00027A8C  A$StateGame$821                    StateGame
     00027A8F  A$StateGame$822                    StateGame
     00027A90  A$StateGame$823                    StateGame
     00027A91  A$StateGame$824                    StateGame
     00027A92  A$StateGame$825                    StateGame
     00027A93  A$StateGame$826                    StateGame
     00027A94  A$StateGame$827                    StateGame
     00027A96  A$StateGame$828                    StateGame
     00027A97  A$StateGame$829                    StateGame
     00027A98  A$StateGame$830                    StateGame
     00027A99  A$StateGame$831                    StateGame
     00027A9A  A$StateGame$832                    StateGame
     00027A9B  A$StateGame$833                    StateGame
     00027A9C  A$StateGame$834                    StateGame
     00027A9D  A$StateGame$835                    StateGame
     00027A9F  A$StateGame$836                    StateGame
     00027AA0  A$StateGame$837                    StateGame
     00027AA1  A$StateGame$838                    StateGame
     00027AA2  A$StateGame$839                    StateGame
     00027AA3  A$StateGame$840                    StateGame
     00027AA4  A$StateGame$841                    StateGame
     00027AA5  A$StateGame$842                    StateGame
     00027AA7  A$StateGame$843                    StateGame
     00027AA9  A$StateGame$844                    StateGame
     00027AAB  A$StateGame$845                    StateGame
     00027AAD  A$StateGame$846                    StateGame
     00027AAE  A$StateGame$847                    StateGame
     00027AB0  A$StateGame$849                    StateGame
     00027AB2  A$StateGame$850                    StateGame
     00027AB4  A$StateGame$851                    StateGame
     00027AB5  A$StateGame$853                    StateGame
     00027AB7  A$StateGame$857                    StateGame
     00027AB7  C$StateGame.c$103$1_1$199          StateGame
     00027AB9  A$StateGame$858                    StateGame
     00027ABA  A$StateGame$859                    StateGame
     00027ABC  A$StateGame$860                    StateGame
     00027ABD  A$StateGame$861                    StateGame
     00027ABF  A$StateGame$862                    StateGame
     00027AC0  A$StateGame$863                    StateGame
     00027AC1  A$StateGame$867                    StateGame
     00027AC1  C$StateGame.c$102$2_1$201          StateGame
     00027AC3  A$StateGame$868                    StateGame
     00027AC4  A$StateGame$869                    StateGame
     00027AC6  A$StateGame$870                    StateGame
     00027AC8  A$StateGame$874                    StateGame
     00027AC8  C$StateGame.c$103$3_1$202          StateGame
     00027AC9  A$StateGame$875                    StateGame
     00027ACB  A$StateGame$876                    StateGame
ASxxxx Linker V03.00/V05.40 + sdld,  page 227.
Hexadecimal  [32-Bits]

Area                                    Addr        Size        Decimal Bytes (Attributes)
--------------------------------        ----        ----        ------- ----- ------------
_CODE_2                             00024000    00003FF1 =       16369. bytes (REL,CON)

      Value  Global                              Global Defined In Module
      -----  --------------------------------   ------------------------
     00027ACE  A$StateGame$877                    StateGame
     00027ACF  A$StateGame$878                    StateGame
     00027AD0  A$StateGame$879                    StateGame
     00027AD1  A$StateGame$880                    StateGame
     00027AD4  A$StateGame$881                    StateGame
     00027AD5  A$StateGame$882                    StateGame
     00027AD6  A$StateGame$883                    StateGame
     00027AD7  A$StateGame$884                    StateGame
     00027AD8  A$StateGame$885                    StateGame
     00027ADA  A$StateGame$886                    StateGame
     00027ADB  A$StateGame$887                    StateGame
     00027ADC  A$StateGame$888                    StateGame
     00027ADE  A$StateGame$889                    StateGame
     00027AE1  A$StateGame$890                    StateGame
     00027AE3  A$StateGame$895                    StateGame
     00027AE3  C$StateGame.c$104$3_1$203          StateGame
     00027AE6  A$StateGame$896                    StateGame
     00027AE7  A$StateGame$897                    StateGame
     00027AE9  A$StateGame$898                    StateGame
     00027AEA  A$StateGame$899                    StateGame
     00027AEB  A$StateGame$900                    StateGame
     00027AEE  A$StateGame$901                    StateGame
     00027AEF  A$StateGame$902                    StateGame
     00027AF0  A$StateGame$903                    StateGame
     00027AF1  A$StateGame$904                    StateGame
     00027AF2  A$StateGame$905                    StateGame
     00027AF4  A$StateGame$906                    StateGame
     00027AF5  A$StateGame$907                    StateGame
     00027AF6  A$StateGame$908                    StateGame
     00027AF8  A$StateGame$909                    StateGame
     00027AFB  A$StateGame$914                    StateGame
     00027AFB  C$StateGame.c$105$2_1$201          StateGame
     00027AFD  A$StateGame$915                    StateGame
     00027AFE  A$StateGame$916                    StateGame
     00027B00  A$StateGame$921                    StateGame
     00027B00  C$StateGame.c$107$1_1$200          StateGame
     00027B02  A$StateGame$922                    StateGame
     00027B03  A$StateGame$923                    StateGame
     00027B05  A$StateGame$924                    StateGame
     00027B06  A$StateGame$925                    StateGame
     00027B09  A$StateGame$926                    StateGame
     00027B0A  A$StateGame$927                    StateGame
     00027B0C  A$StateGame$928                    StateGame
     00027B0D  A$StateGame$929                    StateGame
     00027B0E  A$StateGame$930                    StateGame
     00027B11  A$StateGame$931                    StateGame
     00027B12  A$StateGame$932                    StateGame
     00027B13  A$StateGame$933                    StateGame
     00027B14  A$StateGame$934                    StateGame
     00027B15  A$StateGame$935                    StateGame
     00027B17  A$StateGame$936                    StateGame
ASxxxx Linker V03.00/V05.40 + sdld,  page 228.
Hexadecimal  [32-Bits]

Area                                    Addr        Size        Decimal Bytes (Attributes)
--------------------------------        ----        ----        ------- ----- ------------
_CODE_2                             00024000    00003FF1 =       16369. bytes (REL,CON)

      Value  Global                              Global Defined In Module
      -----  --------------------------------   ------------------------
     00027B18  A$StateGame$937                    StateGame
     00027B19  A$StateGame$938                    StateGame
     00027B1B  A$StateGame$939                    StateGame
     00027B1E  A$StateGame$943                    StateGame
     00027B20  A$StateGame$948                    StateGame
     00027B20  C$StateGame.c$108$1_1$199          StateGame
     00027B20  XG$update_euphoria$0$0             StateGame
     00027B21  A$StateGame$959                    StateGame
     00027B21  C$StateGame.c$110$1_1$204          StateGame
     00027B21  G$update_compass$0$0               StateGame
     00027B21  _update_compass                    StateGame
     00027B22  A$StateGame$963                    StateGame
     00027B22  C$StateGame.c$112$2_0$204          StateGame
     00027B25  A$StateGame$964                    StateGame
     00027B26  A$StateGame$968                    StateGame
     00027B26  C$StateGame.c$113$1_0$204          StateGame
     00027B29  A$StateGame$969                    StateGame
     00027B2A  A$StateGame$970                    StateGame
     00027B2C  A$StateGame$971                    StateGame
     00027B2E  A$StateGame$972                    StateGame
     00027B2F  A$StateGame$976                    StateGame
     00027B2F  C$StateGame.c$114$1_0$204          StateGame
     00027B32  A$StateGame$977                    StateGame
     00027B33  A$StateGame$978                    StateGame
     00027B34  A$StateGame$979                    StateGame
     00027B36  A$StateGame$980                    StateGame
     00027B37  A$StateGame$981                    StateGame
     00027B38  A$StateGame$982                    StateGame
     00027B3A  A$StateGame$983                    StateGame
     00027B3B  A$StateGame$984                    StateGame
     00027B3C  A$StateGame$985                    StateGame
     00027B3D  A$StateGame$990                    StateGame
     00027B3D  C$StateGame.c$115$1_0$204          StateGame
     00027B3F  A$StateGame$991                    StateGame
     00027B41  A$StateGame$992                    StateGame
     00027B42  A$StateGame$993                    StateGame
     00027B44  A$StateGame$994                    StateGame
     00027B45  A$StateGame$995                    StateGame
     00027B46  A$StateGame$996                    StateGame
     00027B48  A$StateGame$997                    StateGame
     00027B4A  A$StateGame$998                    StateGame
     00027B4C  A$StateGame$999                    StateGame
     00027B4E  A$StateGame$1000                   StateGame
     00027B4F  A$StateGame$1001                   StateGame
     00027B51  A$StateGame$1003                   StateGame
     00027B53  A$StateGame$1004                   StateGame
     00027B55  A$StateGame$1005                   StateGame
     00027B56  A$StateGame$1007                   StateGame
     00027B58  A$StateGame$1011                   StateGame
     00027B58  C$StateGame.c$116$2_0$207          StateGame
     00027B5B  A$StateGame$1012                   StateGame
ASxxxx Linker V03.00/V05.40 + sdld,  page 229.
Hexadecimal  [32-Bits]

Area                                    Addr        Size        Decimal Bytes (Attributes)
--------------------------------        ----        ----        ------- ----- ------------
_CODE_2                             00024000    00003FF1 =       16369. bytes (REL,CON)

      Value  Global                              Global Defined In Module
      -----  --------------------------------   ------------------------
     00027B5D  A$StateGame$1013                   StateGame
     00027B5F  A$StateGame$1018                   StateGame
     00027B5F  C$StateGame.c$117$1_0$204          StateGame
     00027B60  A$StateGame$1019                   StateGame
     00027B62  A$StateGame$1020                   StateGame
     00027B63  A$StateGame$1021                   StateGame
     00027B64  A$StateGame$1022                   StateGame
     00027B66  A$StateGame$1023                   StateGame
     00027B68  A$StateGame$1024                   StateGame
     00027B6A  A$StateGame$1025                   StateGame
     00027B6C  A$StateGame$1026                   StateGame
     00027B6D  A$StateGame$1027                   StateGame
     00027B6F  A$StateGame$1029                   StateGame
     00027B71  A$StateGame$1030                   StateGame
     00027B73  A$StateGame$1031                   StateGame
     00027B74  A$StateGame$1033                   StateGame
     00027B76  A$StateGame$1034                   StateGame
     00027B77  A$StateGame$1035                   StateGame
     00027B79  A$StateGame$1036                   StateGame
     00027B7B  A$StateGame$1037                   StateGame
     00027B7D  A$StateGame$1041                   StateGame
     00027B7D  C$StateGame.c$118$2_0$208          StateGame
     00027B80  A$StateGame$1042                   StateGame
     00027B82  A$StateGame$1043                   StateGame
     00027B84  A$StateGame$1048                   StateGame
     00027B84  C$StateGame.c$119$1_0$204          StateGame
     00027B85  A$StateGame$1049                   StateGame
     00027B87  A$StateGame$1050                   StateGame
     00027B88  A$StateGame$1051                   StateGame
     00027B89  A$StateGame$1052                   StateGame
     00027B8B  A$StateGame$1053                   StateGame
     00027B8D  A$StateGame$1054                   StateGame
     00027B8F  A$StateGame$1055                   StateGame
     00027B91  A$StateGame$1056                   StateGame
     00027B92  A$StateGame$1057                   StateGame
     00027B94  A$StateGame$1059                   StateGame
     00027B96  A$StateGame$1060                   StateGame
     00027B98  A$StateGame$1061                   StateGame
     00027B99  A$StateGame$1063                   StateGame
     00027B9B  A$StateGame$1064                   StateGame
     00027B9C  A$StateGame$1065                   StateGame
     00027B9E  A$StateGame$1066                   StateGame
     00027BA0  A$StateGame$1067                   StateGame
     00027BA2  A$StateGame$1071                   StateGame
     00027BA2  C$StateGame.c$120$2_0$209          StateGame
     00027BA5  A$StateGame$1072                   StateGame
     00027BA7  A$StateGame$1073                   StateGame
     00027BA9  A$StateGame$1078                   StateGame
     00027BA9  C$StateGame.c$121$1_0$204          StateGame
     00027BAA  A$StateGame$1079                   StateGame
     00027BAC  A$StateGame$1080                   StateGame
ASxxxx Linker V03.00/V05.40 + sdld,  page 230.
Hexadecimal  [32-Bits]

Area                                    Addr        Size        Decimal Bytes (Attributes)
--------------------------------        ----        ----        ------- ----- ------------
_CODE_2                             00024000    00003FF1 =       16369. bytes (REL,CON)

      Value  Global                              Global Defined In Module
      -----  --------------------------------   ------------------------
     00027BAD  A$StateGame$1081                   StateGame
     00027BAE  A$StateGame$1082                   StateGame
     00027BB0  A$StateGame$1083                   StateGame
     00027BB2  A$StateGame$1084                   StateGame
     00027BB4  A$StateGame$1085                   StateGame
     00027BB6  A$StateGame$1086                   StateGame
     00027BB7  A$StateGame$1087                   StateGame
     00027BB9  A$StateGame$1089                   StateGame
     00027BBB  A$StateGame$1090                   StateGame
     00027BBD  A$StateGame$1091                   StateGame
     00027BBE  A$StateGame$1093                   StateGame
     00027BC0  A$StateGame$1097                   StateGame
     00027BC0  C$StateGame.c$122$2_0$210          StateGame
     00027BC3  A$StateGame$1098                   StateGame
     00027BC5  A$StateGame$1103                   StateGame
     00027BC5  C$StateGame.c$125$1_0$204          StateGame
     00027BC8  A$StateGame$1104                   StateGame
     00027BC9  A$StateGame$1105                   StateGame
     00027BCA  A$StateGame$1106                   StateGame
     00027BCB  A$StateGame$1107                   StateGame
     00027BCC  A$StateGame$1108                   StateGame
     00027BCE  A$StateGame$1109                   StateGame
     00027BD0  A$StateGame$1110                   StateGame
     00027BD2  A$StateGame$1111                   StateGame
     00027BD4  A$StateGame$1112                   StateGame
     00027BD5  A$StateGame$1113                   StateGame
     00027BD7  A$StateGame$1115                   StateGame
     00027BD9  A$StateGame$1116                   StateGame
     00027BDB  A$StateGame$1117                   StateGame
     00027BDC  A$StateGame$1119                   StateGame
     00027BDE  A$StateGame$1120                   StateGame
     00027BE0  A$StateGame$1121                   StateGame
     00027BE1  A$StateGame$1122                   StateGame
     00027BE2  A$StateGame$1123                   StateGame
     00027BE4  A$StateGame$1127                   StateGame
     00027BE4  C$StateGame.c$126$2_0$211          StateGame
     00027BE7  A$StateGame$1128                   StateGame
     00027BE8  A$StateGame$1129                   StateGame
     00027BEA  A$StateGame$1130                   StateGame
     00027BED  A$StateGame$1131                   StateGame
     00027BEE  A$StateGame$1132                   StateGame
     00027BF0  A$StateGame$1133                   StateGame
     00027BF3  A$StateGame$1134                   StateGame
     00027BF5  A$StateGame$1135                   StateGame
     00027BF7  A$StateGame$1136                   StateGame
     00027BF9  A$StateGame$1141                   StateGame
     00027BF9  C$StateGame.c$127$3_0$212          StateGame
     00027BFC  A$StateGame$1142                   StateGame
     00027BFE  A$StateGame$1143                   StateGame
     00027C00  A$StateGame$1148                   StateGame
     00027C00  C$StateGame.c$128$3_0$212          StateGame
ASxxxx Linker V03.00/V05.40 + sdld,  page 231.
Hexadecimal  [32-Bits]

Area                                    Addr        Size        Decimal Bytes (Attributes)
--------------------------------        ----        ----        ------- ----- ------------
_CODE_2                             00024000    00003FF1 =       16369. bytes (REL,CON)

      Value  Global                              Global Defined In Module
      -----  --------------------------------   ------------------------
     00027C03  A$StateGame$1149                   StateGame
     00027C05  A$StateGame$1150                   StateGame
     00027C07  A$StateGame$1155                   StateGame
     00027C07  C$StateGame.c$129$3_0$212          StateGame
     00027C0A  A$StateGame$1156                   StateGame
     00027C0C  A$StateGame$1164                   StateGame
     00027C0C  C$StateGame.c$130$1_0$204          StateGame
     00027C0C  C$StateGame.c$132$1_0$204          StateGame
     00027C0D  A$StateGame$1165                   StateGame
     00027C0E  A$StateGame$1166                   StateGame
     00027C10  A$StateGame$1167                   StateGame
     00027C13  A$StateGame$1168                   StateGame
     00027C14  A$StateGame$1169                   StateGame
     00027C15  A$StateGame$1170                   StateGame
     00027C16  A$StateGame$1171                   StateGame
     00027C17  A$StateGame$1172                   StateGame
     00027C19  A$StateGame$1173                   StateGame
     00027C1B  A$StateGame$1174                   StateGame
     00027C1D  A$StateGame$1175                   StateGame
     00027C1F  A$StateGame$1176                   StateGame
     00027C20  A$StateGame$1177                   StateGame
     00027C22  A$StateGame$1179                   StateGame
     00027C24  A$StateGame$1180                   StateGame
     00027C26  A$StateGame$1181                   StateGame
     00027C27  A$StateGame$1183                   StateGame
     00027C29  A$StateGame$1187                   StateGame
     00027C29  C$StateGame.c$133$2_0$213          StateGame
     00027C2C  A$StateGame$1188                   StateGame
     00027C2D  A$StateGame$1189                   StateGame
     00027C2F  A$StateGame$1190                   StateGame
     00027C32  A$StateGame$1191                   StateGame
     00027C34  A$StateGame$1192                   StateGame
     00027C36  A$StateGame$1193                   StateGame
     00027C39  A$StateGame$1194                   StateGame
     00027C3B  A$StateGame$1195                   StateGame
     00027C3D  A$StateGame$1196                   StateGame
     00027C3F  A$StateGame$1201                   StateGame
     00027C3F  C$StateGame.c$134$3_0$214          StateGame
     00027C42  A$StateGame$1202                   StateGame
     00027C44  A$StateGame$1203                   StateGame
     00027C46  A$StateGame$1208                   StateGame
     00027C46  C$StateGame.c$135$3_0$214          StateGame
     00027C49  A$StateGame$1209                   StateGame
     00027C4B  A$StateGame$1210                   StateGame
     00027C4D  A$StateGame$1215                   StateGame
     00027C4D  C$StateGame.c$136$3_0$214          StateGame
     00027C50  A$StateGame$1216                   StateGame
     00027C52  A$StateGame$1224                   StateGame
     00027C52  C$StateGame.c$137$1_0$204          StateGame
     00027C52  C$StateGame.c$139$1_0$204          StateGame
     00027C53  A$StateGame$1225                   StateGame
ASxxxx Linker V03.00/V05.40 + sdld,  page 232.
Hexadecimal  [32-Bits]

Area                                    Addr        Size        Decimal Bytes (Attributes)
--------------------------------        ----        ----        ------- ----- ------------
_CODE_2                             00024000    00003FF1 =       16369. bytes (REL,CON)

      Value  Global                              Global Defined In Module
      -----  --------------------------------   ------------------------
     00027C54  A$StateGame$1226                   StateGame
     00027C56  A$StateGame$1227                   StateGame
     00027C58  A$StateGame$1228                   StateGame
     00027C59  A$StateGame$1229                   StateGame
     00027C5A  A$StateGame$1230                   StateGame
     00027C5C  A$StateGame$1234                   StateGame
     00027C5C  C$StateGame.c$140$2_0$215          StateGame
     00027C5F  A$StateGame$1235                   StateGame
     00027C60  A$StateGame$1236                   StateGame
     00027C62  A$StateGame$1237                   StateGame
     00027C65  A$StateGame$1238                   StateGame
     00027C66  A$StateGame$1239                   StateGame
     00027C68  A$StateGame$1240                   StateGame
     00027C6B  A$StateGame$1241                   StateGame
     00027C6D  A$StateGame$1242                   StateGame
     00027C6F  A$StateGame$1243                   StateGame
     00027C71  A$StateGame$1244                   StateGame
     00027C73  A$StateGame$1245                   StateGame
     00027C75  A$StateGame$1250                   StateGame
     00027C75  C$StateGame.c$141$3_0$216          StateGame
     00027C78  A$StateGame$1251                   StateGame
     00027C7A  A$StateGame$1252                   StateGame
     00027C7C  A$StateGame$1257                   StateGame
     00027C7C  C$StateGame.c$142$3_0$216          StateGame
     00027C7F  A$StateGame$1258                   StateGame
     00027C81  A$StateGame$1259                   StateGame
     00027C83  A$StateGame$1264                   StateGame
     00027C83  C$StateGame.c$143$3_0$216          StateGame
     00027C86  A$StateGame$1265                   StateGame
     00027C88  A$StateGame$1266                   StateGame
     00027C8A  A$StateGame$1271                   StateGame
     00027C8A  C$StateGame.c$144$3_0$216          StateGame
     00027C8D  A$StateGame$1272                   StateGame
     00027C8F  A$StateGame$1280                   StateGame
     00027C8F  C$StateGame.c$145$1_0$204          StateGame
     00027C8F  C$StateGame.c$147$1_0$204          StateGame
     00027C92  A$StateGame$1281                   StateGame
     00027C95  A$StateGame$1282                   StateGame
     00027C96  A$StateGame$1283                   StateGame
     00027C99  A$StateGame$1287                   StateGame
     00027C99  C$StateGame.c$148$2_0$217          StateGame
     00027C9C  A$StateGame$1288                   StateGame
     00027C9F  A$StateGame$1289                   StateGame
     00027CA0  A$StateGame$1293                   StateGame
     00027CA0  C$StateGame.c$149$2_0$217          StateGame
     00027CA2  A$StateGame$1294                   StateGame
     00027CA3  A$StateGame$1295                   StateGame
     00027CA6  A$StateGame$1296                   StateGame
     00027CA7  A$StateGame$1297                   StateGame
     00027CA9  A$StateGame$1298                   StateGame
     00027CAC  A$StateGame$1299                   StateGame
ASxxxx Linker V03.00/V05.40 + sdld,  page 233.
Hexadecimal  [32-Bits]

Area                                    Addr        Size        Decimal Bytes (Attributes)
--------------------------------        ----        ----        ------- ----- ------------
_CODE_2                             00024000    00003FF1 =       16369. bytes (REL,CON)

      Value  Global                              Global Defined In Module
      -----  --------------------------------   ------------------------
     00027CAD  A$StateGame$1300                   StateGame
     00027CAE  A$StateGame$1301                   StateGame
     00027CAF  A$StateGame$1302                   StateGame
     00027CB0  A$StateGame$1304                   StateGame
     00027CB3  A$StateGame$1305                   StateGame
     00027CB6  A$StateGame$1306                   StateGame
     00027CB9  A$StateGame$1307                   StateGame
     00027CBC  A$StateGame$1308                   StateGame
     00027CBF  A$StateGame$1309                   StateGame
     00027CC2  A$StateGame$1310                   StateGame
     00027CC5  A$StateGame$1311                   StateGame
     00027CC8  A$StateGame$1312                   StateGame
     00027CCB  A$StateGame$1313                   StateGame
     00027CCE  A$StateGame$1314                   StateGame
     00027CD1  A$StateGame$1315                   StateGame
     00027CD4  A$StateGame$1320                   StateGame
     00027CD4  C$StateGame.c$150$3_0$218          StateGame
     00027CD7  A$StateGame$1321                   StateGame
     00027CD8  A$StateGame$1322                   StateGame
     00027CDA  A$StateGame$1323                   StateGame
     00027CDB  A$StateGame$1324                   StateGame
     00027CDC  A$StateGame$1325                   StateGame
     00027CDF  A$StateGame$1326                   StateGame
     00027CE0  A$StateGame$1327                   StateGame
     00027CE1  A$StateGame$1328                   StateGame
     00027CE2  A$StateGame$1329                   StateGame
     00027CE3  A$StateGame$1330                   StateGame
     00027CE5  A$StateGame$1331                   StateGame
     00027CE6  A$StateGame$1332                   StateGame
     00027CE7  A$StateGame$1333                   StateGame
     00027CE9  A$StateGame$1334                   StateGame
     00027CEA  A$StateGame$1335                   StateGame
     00027CED  A$StateGame$1336                   StateGame
     00027CF0  A$StateGame$1341                   StateGame
     00027CF0  C$StateGame.c$151$3_0$218          StateGame
     00027CF3  A$StateGame$1342                   StateGame
     00027CF4  A$StateGame$1343                   StateGame
     00027CF6  A$StateGame$1344                   StateGame
     00027CF7  A$StateGame$1345                   StateGame
     00027CF8  A$StateGame$1346                   StateGame
     00027CFB  A$StateGame$1347                   StateGame
     00027CFC  A$StateGame$1348                   StateGame
     00027CFD  A$StateGame$1349                   StateGame
     00027CFE  A$StateGame$1350                   StateGame
     00027CFF  A$StateGame$1351                   StateGame
     00027D01  A$StateGame$1352                   StateGame
     00027D02  A$StateGame$1353                   StateGame
     00027D03  A$StateGame$1354                   StateGame
     00027D05  A$StateGame$1355                   StateGame
     00027D06  A$StateGame$1356                   StateGame
     00027D09  A$StateGame$1357                   StateGame
ASxxxx Linker V03.00/V05.40 + sdld,  page 234.
Hexadecimal  [32-Bits]

Area                                    Addr        Size        Decimal Bytes (Attributes)
--------------------------------        ----        ----        ------- ----- ------------
_CODE_2                             00024000    00003FF1 =       16369. bytes (REL,CON)

      Value  Global                              Global Defined In Module
      -----  --------------------------------   ------------------------
     00027D0C  A$StateGame$1362                   StateGame
     00027D0C  C$StateGame.c$152$3_0$218          StateGame
     00027D0F  A$StateGame$1363                   StateGame
     00027D10  A$StateGame$1364                   StateGame
     00027D12  A$StateGame$1365                   StateGame
     00027D13  A$StateGame$1366                   StateGame
     00027D14  A$StateGame$1367                   StateGame
     00027D17  A$StateGame$1368                   StateGame
     00027D18  A$StateGame$1369                   StateGame
     00027D19  A$StateGame$1370                   StateGame
     00027D1A  A$StateGame$1371                   StateGame
     00027D1B  A$StateGame$1372                   StateGame
     00027D1D  A$StateGame$1373                   StateGame
     00027D1E  A$StateGame$1374                   StateGame
     00027D1F  A$StateGame$1375                   StateGame
     00027D21  A$StateGame$1376                   StateGame
     00027D22  A$StateGame$1377                   StateGame
     00027D25  A$StateGame$1378                   StateGame
     00027D28  A$StateGame$1383                   StateGame
     00027D28  C$StateGame.c$153$3_0$218          StateGame
     00027D2B  A$StateGame$1384                   StateGame
     00027D2C  A$StateGame$1385                   StateGame
     00027D2E  A$StateGame$1386                   StateGame
     00027D2F  A$StateGame$1387                   StateGame
     00027D30  A$StateGame$1388                   StateGame
     00027D33  A$StateGame$1389                   StateGame
     00027D34  A$StateGame$1390                   StateGame
     00027D35  A$StateGame$1391                   StateGame
     00027D36  A$StateGame$1392                   StateGame
     00027D37  A$StateGame$1393                   StateGame
     00027D39  A$StateGame$1394                   StateGame
     00027D3A  A$StateGame$1395                   StateGame
     00027D3B  A$StateGame$1396                   StateGame
     00027D3D  A$StateGame$1397                   StateGame
     00027D3E  A$StateGame$1398                   StateGame
     00027D41  A$StateGame$1399                   StateGame
     00027D44  A$StateGame$1404                   StateGame
     00027D44  C$StateGame.c$154$3_0$218          StateGame
     00027D47  A$StateGame$1405                   StateGame
     00027D48  A$StateGame$1406                   StateGame
     00027D4A  A$StateGame$1407                   StateGame
     00027D4B  A$StateGame$1408                   StateGame
     00027D4C  A$StateGame$1409                   StateGame
     00027D4F  A$StateGame$1410                   StateGame
     00027D50  A$StateGame$1411                   StateGame
     00027D51  A$StateGame$1412                   StateGame
     00027D52  A$StateGame$1413                   StateGame
     00027D53  A$StateGame$1414                   StateGame
     00027D55  A$StateGame$1415                   StateGame
     00027D56  A$StateGame$1416                   StateGame
     00027D57  A$StateGame$1417                   StateGame
ASxxxx Linker V03.00/V05.40 + sdld,  page 235.
Hexadecimal  [32-Bits]

Area                                    Addr        Size        Decimal Bytes (Attributes)
--------------------------------        ----        ----        ------- ----- ------------
_CODE_2                             00024000    00003FF1 =       16369. bytes (REL,CON)

      Value  Global                              Global Defined In Module
      -----  --------------------------------   ------------------------
     00027D59  A$StateGame$1418                   StateGame
     00027D5A  A$StateGame$1419                   StateGame
     00027D5D  A$StateGame$1420                   StateGame
     00027D60  A$StateGame$1425                   StateGame
     00027D60  C$StateGame.c$155$3_0$218          StateGame
     00027D63  A$StateGame$1426                   StateGame
     00027D64  A$StateGame$1427                   StateGame
     00027D66  A$StateGame$1428                   StateGame
     00027D67  A$StateGame$1429                   StateGame
     00027D68  A$StateGame$1430                   StateGame
     00027D6B  A$StateGame$1431                   StateGame
     00027D6C  A$StateGame$1432                   StateGame
     00027D6D  A$StateGame$1433                   StateGame
     00027D6E  A$StateGame$1434                   StateGame
     00027D6F  A$StateGame$1435                   StateGame
     00027D71  A$StateGame$1436                   StateGame
     00027D72  A$StateGame$1437                   StateGame
     00027D73  A$StateGame$1438                   StateGame
     00027D75  A$StateGame$1439                   StateGame
     00027D76  A$StateGame$1440                   StateGame
     00027D79  A$StateGame$1441                   StateGame
     00027D7C  A$StateGame$1446                   StateGame
     00027D7C  C$StateGame.c$156$3_0$218          StateGame
     00027D7F  A$StateGame$1447                   StateGame
     00027D80  A$StateGame$1448                   StateGame
     00027D82  A$StateGame$1449                   StateGame
     00027D83  A$StateGame$1450                   StateGame
     00027D84  A$StateGame$1451                   StateGame
     00027D87  A$StateGame$1452                   StateGame
     00027D88  A$StateGame$1453                   StateGame
     00027D89  A$StateGame$1454                   StateGame
     00027D8A  A$StateGame$1455                   StateGame
     00027D8B  A$StateGame$1456                   StateGame
     00027D8D  A$StateGame$1457                   StateGame
     00027D8E  A$StateGame$1458                   StateGame
     00027D8F  A$StateGame$1459                   StateGame
     00027D91  A$StateGame$1460                   StateGame
     00027D92  A$StateGame$1461                   StateGame
     00027D95  A$StateGame$1462                   StateGame
     00027D98  A$StateGame$1467                   StateGame
     00027D98  C$StateGame.c$157$3_0$218          StateGame
     00027D9B  A$StateGame$1468                   StateGame
     00027D9C  A$StateGame$1469                   StateGame
     00027D9E  A$StateGame$1470                   StateGame
     00027D9F  A$StateGame$1471                   StateGame
     00027DA0  A$StateGame$1472                   StateGame
     00027DA3  A$StateGame$1473                   StateGame
     00027DA4  A$StateGame$1474                   StateGame
     00027DA5  A$StateGame$1475                   StateGame
     00027DA6  A$StateGame$1476                   StateGame
     00027DA7  A$StateGame$1477                   StateGame
ASxxxx Linker V03.00/V05.40 + sdld,  page 236.
Hexadecimal  [32-Bits]

Area                                    Addr        Size        Decimal Bytes (Attributes)
--------------------------------        ----        ----        ------- ----- ------------
_CODE_2                             00024000    00003FF1 =       16369. bytes (REL,CON)

      Value  Global                              Global Defined In Module
      -----  --------------------------------   ------------------------
     00027DA9  A$StateGame$1478                   StateGame
     00027DAA  A$StateGame$1479                   StateGame
     00027DAB  A$StateGame$1480                   StateGame
     00027DAD  A$StateGame$1481                   StateGame
     00027DAE  A$StateGame$1482                   StateGame
     00027DB1  A$StateGame$1483                   StateGame
     00027DB3  A$StateGame$1488                   StateGame
     00027DB3  C$StateGame.c$158$3_0$218          StateGame
     00027DB6  A$StateGame$1489                   StateGame
     00027DB7  A$StateGame$1490                   StateGame
     00027DB9  A$StateGame$1491                   StateGame
     00027DBA  A$StateGame$1492                   StateGame
     00027DBB  A$StateGame$1493                   StateGame
     00027DBE  A$StateGame$1494                   StateGame
     00027DBF  A$StateGame$1495                   StateGame
     00027DC0  A$StateGame$1496                   StateGame
     00027DC1  A$StateGame$1497                   StateGame
     00027DC2  A$StateGame$1498                   StateGame
     00027DC4  A$StateGame$1499                   StateGame
     00027DC5  A$StateGame$1500                   StateGame
     00027DC6  A$StateGame$1501                   StateGame
     00027DC8  A$StateGame$1502                   StateGame
     00027DC9  A$StateGame$1503                   StateGame
     00027DCC  A$StateGame$1504                   StateGame
     00027DCE  A$StateGame$1509                   StateGame
     00027DCE  C$StateGame.c$159$3_0$218          StateGame
     00027DD1  A$StateGame$1510                   StateGame
     00027DD2  A$StateGame$1511                   StateGame
     00027DD4  A$StateGame$1512                   StateGame
     00027DD5  A$StateGame$1513                   StateGame
     00027DD6  A$StateGame$1514                   StateGame
     00027DD9  A$StateGame$1515                   StateGame
     00027DDA  A$StateGame$1516                   StateGame
     00027DDB  A$StateGame$1517                   StateGame
     00027DDC  A$StateGame$1518                   StateGame
     00027DDD  A$StateGame$1519                   StateGame
     00027DDF  A$StateGame$1520                   StateGame
     00027DE0  A$StateGame$1521                   StateGame
     00027DE1  A$StateGame$1522                   StateGame
     00027DE3  A$StateGame$1523                   StateGame
     00027DE4  A$StateGame$1524                   StateGame
     00027DE7  A$StateGame$1525                   StateGame
     00027DE9  A$StateGame$1530                   StateGame
     00027DE9  C$StateGame.c$160$3_0$218          StateGame
     00027DEC  A$StateGame$1531                   StateGame
     00027DED  A$StateGame$1532                   StateGame
     00027DEF  A$StateGame$1533                   StateGame
     00027DF0  A$StateGame$1534                   StateGame
     00027DF1  A$StateGame$1535                   StateGame
     00027DF4  A$StateGame$1536                   StateGame
     00027DF5  A$StateGame$1537                   StateGame
ASxxxx Linker V03.00/V05.40 + sdld,  page 237.
Hexadecimal  [32-Bits]

Area                                    Addr        Size        Decimal Bytes (Attributes)
--------------------------------        ----        ----        ------- ----- ------------
_CODE_2                             00024000    00003FF1 =       16369. bytes (REL,CON)

      Value  Global                              Global Defined In Module
      -----  --------------------------------   ------------------------
     00027DF6  A$StateGame$1538                   StateGame
     00027DF7  A$StateGame$1539                   StateGame
     00027DF8  A$StateGame$1540                   StateGame
     00027DFA  A$StateGame$1541                   StateGame
     00027DFB  A$StateGame$1542                   StateGame
     00027DFC  A$StateGame$1543                   StateGame
     00027DFE  A$StateGame$1544                   StateGame
     00027DFF  A$StateGame$1545                   StateGame
     00027E02  A$StateGame$1546                   StateGame
     00027E04  A$StateGame$1551                   StateGame
     00027E04  C$StateGame.c$161$3_0$218          StateGame
     00027E07  A$StateGame$1552                   StateGame
     00027E08  A$StateGame$1553                   StateGame
     00027E0A  A$StateGame$1554                   StateGame
     00027E0B  A$StateGame$1555                   StateGame
     00027E0C  A$StateGame$1556                   StateGame
     00027E0F  A$StateGame$1557                   StateGame
     00027E10  A$StateGame$1558                   StateGame
     00027E11  A$StateGame$1559                   StateGame
     00027E12  A$StateGame$1560                   StateGame
     00027E13  A$StateGame$1561                   StateGame
     00027E15  A$StateGame$1562                   StateGame
     00027E16  A$StateGame$1563                   StateGame
     00027E17  A$StateGame$1564                   StateGame
     00027E19  A$StateGame$1565                   StateGame
     00027E1A  A$StateGame$1566                   StateGame
     00027E1D  A$StateGame$1574                   StateGame
     00027E1D  C$StateGame.c$163$1_0$204          StateGame
     00027E1E  A$StateGame$1579                   StateGame
     00027E1E  C$StateGame.c$165$1_0$204          StateGame
     00027E1E  XG$update_compass$0$0              StateGame
     00027E1F  A$StateGame$1593                   StateGame
     00027E1F  C$StateGame.c$167$1_0$219          StateGame
     00027E1F  C$StateGame.c$168$1_0$219          StateGame
     00027E1F  G$update_turning$0$0               StateGame
     00027E1F  _update_turning                    StateGame
     00027E22  A$StateGame$1594                   StateGame
     00027E23  A$StateGame$1595                   StateGame
     00027E25  A$StateGame$1596                   StateGame
     00027E28  A$StateGame$1597                   StateGame
     00027E29  A$StateGame$1598                   StateGame
     00027E2B  A$StateGame$1599                   StateGame
     00027E2E  A$StateGame$1600                   StateGame
     00027E30  A$StateGame$1601                   StateGame
     00027E32  A$StateGame$1602                   StateGame
     00027E33  A$StateGame$1607                   StateGame
     00027E33  C$StateGame.c$169$2_0$220          StateGame
     00027E36  A$StateGame$1608                   StateGame
     00027E37  A$StateGame$1609                   StateGame
     00027E39  A$StateGame$1610                   StateGame
     00027E3A  A$StateGame$1611                   StateGame
ASxxxx Linker V03.00/V05.40 + sdld,  page 238.
Hexadecimal  [32-Bits]

Area                                    Addr        Size        Decimal Bytes (Attributes)
--------------------------------        ----        ----        ------- ----- ------------
_CODE_2                             00024000    00003FF1 =       16369. bytes (REL,CON)

      Value  Global                              Global Defined In Module
      -----  --------------------------------   ------------------------
     00027E3B  A$StateGame$1612                   StateGame
     00027E3E  A$StateGame$1613                   StateGame
     00027E3F  A$StateGame$1614                   StateGame
     00027E40  A$StateGame$1615                   StateGame
     00027E41  A$StateGame$1616                   StateGame
     00027E42  A$StateGame$1617                   StateGame
     00027E44  A$StateGame$1618                   StateGame
     00027E45  A$StateGame$1619                   StateGame
     00027E46  A$StateGame$1620                   StateGame
     00027E48  A$StateGame$1621                   StateGame
     00027E4A  A$StateGame$1622                   StateGame
     00027E4D  A$StateGame$1623                   StateGame
     00027E50  A$StateGame$1624                   StateGame
     00027E51  A$StateGame$1625                   StateGame
     00027E53  A$StateGame$1626                   StateGame
     00027E54  A$StateGame$1627                   StateGame
     00027E55  A$StateGame$1628                   StateGame
     00027E58  A$StateGame$1629                   StateGame
     00027E59  A$StateGame$1630                   StateGame
     00027E5A  A$StateGame$1631                   StateGame
     00027E5B  A$StateGame$1632                   StateGame
     00027E5C  A$StateGame$1633                   StateGame
     00027E5E  A$StateGame$1634                   StateGame
     00027E5F  A$StateGame$1635                   StateGame
     00027E60  A$StateGame$1636                   StateGame
     00027E62  A$StateGame$1637                   StateGame
     00027E64  A$StateGame$1638                   StateGame
     00027E67  A$StateGame$1639                   StateGame
     00027E68  A$StateGame$1644                   StateGame
     00027E68  C$StateGame.c$170$2_0$220          StateGame
     00027E6B  A$StateGame$1645                   StateGame
     00027E6C  A$StateGame$1646                   StateGame
     00027E6E  A$StateGame$1647                   StateGame
     00027E6F  A$StateGame$1648                   StateGame
     00027E70  A$StateGame$1649                   StateGame
     00027E73  A$StateGame$1650                   StateGame
     00027E74  A$StateGame$1651                   StateGame
     00027E75  A$StateGame$1652                   StateGame
     00027E76  A$StateGame$1653                   StateGame
     00027E77  A$StateGame$1654                   StateGame
     00027E79  A$StateGame$1655                   StateGame
     00027E7A  A$StateGame$1656                   StateGame
     00027E7B  A$StateGame$1657                   StateGame
     00027E7D  A$StateGame$1658                   StateGame
     00027E7F  A$StateGame$1659                   StateGame
     00027E82  A$StateGame$1660                   StateGame
     00027E85  A$StateGame$1661                   StateGame
     00027E86  A$StateGame$1662                   StateGame
     00027E88  A$StateGame$1663                   StateGame
     00027E89  A$StateGame$1664                   StateGame
     00027E8A  A$StateGame$1665                   StateGame
ASxxxx Linker V03.00/V05.40 + sdld,  page 239.
Hexadecimal  [32-Bits]

Area                                    Addr        Size        Decimal Bytes (Attributes)
--------------------------------        ----        ----        ------- ----- ------------
_CODE_2                             00024000    00003FF1 =       16369. bytes (REL,CON)

      Value  Global                              Global Defined In Module
      -----  --------------------------------   ------------------------
     00027E8D  A$StateGame$1666                   StateGame
     00027E8E  A$StateGame$1667                   StateGame
     00027E8F  A$StateGame$1668                   StateGame
     00027E90  A$StateGame$1669                   StateGame
     00027E91  A$StateGame$1670                   StateGame
     00027E93  A$StateGame$1671                   StateGame
     00027E94  A$StateGame$1672                   StateGame
     00027E95  A$StateGame$1673                   StateGame
     00027E97  A$StateGame$1674                   StateGame
     00027E99  A$StateGame$1675                   StateGame
     00027E9C  A$StateGame$1676                   StateGame
     00027E9D  A$StateGame$1681                   StateGame
     00027E9D  C$StateGame.c$171$2_0$220          StateGame
     00027EA0  A$StateGame$1682                   StateGame
     00027EA1  A$StateGame$1683                   StateGame
     00027EA3  A$StateGame$1684                   StateGame
     00027EA4  A$StateGame$1685                   StateGame
     00027EA5  A$StateGame$1686                   StateGame
     00027EA8  A$StateGame$1687                   StateGame
     00027EA9  A$StateGame$1688                   StateGame
     00027EAA  A$StateGame$1689                   StateGame
     00027EAB  A$StateGame$1690                   StateGame
     00027EAC  A$StateGame$1691                   StateGame
     00027EAE  A$StateGame$1692                   StateGame
     00027EAF  A$StateGame$1693                   StateGame
     00027EB0  A$StateGame$1694                   StateGame
     00027EB2  A$StateGame$1695                   StateGame
     00027EB4  A$StateGame$1696                   StateGame
     00027EB7  A$StateGame$1697                   StateGame
     00027EBA  A$StateGame$1698                   StateGame
     00027EBB  A$StateGame$1699                   StateGame
     00027EBD  A$StateGame$1700                   StateGame
     00027EBE  A$StateGame$1701                   StateGame
     00027EBF  A$StateGame$1702                   StateGame
     00027EC2  A$StateGame$1703                   StateGame
     00027EC3  A$StateGame$1704                   StateGame
     00027EC4  A$StateGame$1705                   StateGame
     00027EC5  A$StateGame$1706                   StateGame
     00027EC6  A$StateGame$1707                   StateGame
     00027EC8  A$StateGame$1708                   StateGame
     00027EC9  A$StateGame$1709                   StateGame
     00027ECA  A$StateGame$1710                   StateGame
     00027ECC  A$StateGame$1711                   StateGame
     00027ECE  A$StateGame$1712                   StateGame
     00027ED1  A$StateGame$1723                   StateGame
     00027ED1  C$StateGame.c$172$1_0$219          StateGame
     00027ED1  C$StateGame.c$173$1_0$219          StateGame
     00027ED1  XG$update_turning$0$0              StateGame
     00027ED2  A$StateGame$1734                   StateGame
     00027ED2  C$StateGame.c$175$1_0$221          StateGame
     00027ED2  G$update_hp$0$0                    StateGame
ASxxxx Linker V03.00/V05.40 + sdld,  page 240.
Hexadecimal  [32-Bits]

Area                                    Addr        Size        Decimal Bytes (Attributes)
--------------------------------        ----        ----        ------- ----- ------------
_CODE_2                             00024000    00003FF1 =       16369. bytes (REL,CON)

      Value  Global                              Global Defined In Module
      -----  --------------------------------   ------------------------
     00027ED2  _update_hp                         StateGame
     00027ED4  A$StateGame$1738                   StateGame
     00027ED4  C$StateGame.c$176$1_0$221          StateGame
     00027ED7  A$StateGame$1739                   StateGame
     00027ED9  A$StateGame$1740                   StateGame
     00027EDA  A$StateGame$1741                   StateGame
     00027EDB  A$StateGame$1742                   StateGame
     00027EDC  A$StateGame$1743                   StateGame
     00027EDD  A$StateGame$1744                   StateGame
     00027EDE  A$StateGame$1745                   StateGame
     00027EDF  A$StateGame$1746                   StateGame
     00027EE1  A$StateGame$1747                   StateGame
     00027EE3  A$StateGame$1748                   StateGame
     00027EE4  A$StateGame$1749                   StateGame
     00027EE5  A$StateGame$1750                   StateGame
     00027EE8  A$StateGame$1751                   StateGame
     00027EE9  A$StateGame$1752                   StateGame
     00027EEA  A$StateGame$1753                   StateGame
     00027EEB  A$StateGame$1755                   StateGame
     00027EED  A$StateGame$1756                   StateGame
     00027EEF  A$StateGame$1757                   StateGame
     00027EF1  A$StateGame$1758                   StateGame
     00027EF3  A$StateGame$1759                   StateGame
     00027EF5  A$StateGame$1760                   StateGame
     00027EF7  A$StateGame$1761                   StateGame
     00027EF9  A$StateGame$1762                   StateGame
     00027EFA  A$StateGame$1766                   StateGame
     00027EFA  C$StateGame.c$177$1_0$221          StateGame
     00027EFD  A$StateGame$1767                   StateGame
     00027EFE  A$StateGame$1768                   StateGame
     00027EFF  A$StateGame$1769                   StateGame
     00027F02  A$StateGame$1773                   StateGame
     00027F02  C$StateGame.c$178$1_0$221          StateGame
     00027F04  A$StateGame$1777                   StateGame
     00027F04  C$StateGame.c$179$1_0$221          StateGame
     00027F06  A$StateGame$1778                   StateGame
     00027F07  A$StateGame$1779                   StateGame
     00027F08  A$StateGame$1780                   StateGame
     00027F09  A$StateGame$1781                   StateGame
     00027F0A  A$StateGame$1782                   StateGame
     00027F0C  A$StateGame$1783                   StateGame
     00027F0E  A$StateGame$1784                   StateGame
     00027F10  A$StateGame$1785                   StateGame
     00027F12  A$StateGame$1786                   StateGame
     00027F13  A$StateGame$1787                   StateGame
     00027F15  A$StateGame$1789                   StateGame
     00027F17  A$StateGame$1790                   StateGame
     00027F19  A$StateGame$1791                   StateGame
     00027F1A  A$StateGame$1793                   StateGame
     00027F1C  A$StateGame$1797                   StateGame
     00027F1C  C$StateGame.c$180$1_0$221          StateGame
ASxxxx Linker V03.00/V05.40 + sdld,  page 241.
Hexadecimal  [32-Bits]

Area                                    Addr        Size        Decimal Bytes (Attributes)
--------------------------------        ----        ----        ------- ----- ------------
_CODE_2                             00024000    00003FF1 =       16369. bytes (REL,CON)

      Value  Global                              Global Defined In Module
      -----  --------------------------------   ------------------------
     00027F1E  A$StateGame$1799                   StateGame
     00027F20  A$StateGame$1800                   StateGame
     00027F21  A$StateGame$1801                   StateGame
     00027F22  A$StateGame$1802                   StateGame
     00027F23  A$StateGame$1803                   StateGame
     00027F24  A$StateGame$1804                   StateGame
     00027F26  A$StateGame$1805                   StateGame
     00027F28  A$StateGame$1806                   StateGame
     00027F2A  A$StateGame$1807                   StateGame
     00027F2C  A$StateGame$1808                   StateGame
     00027F2D  A$StateGame$1809                   StateGame
     00027F2F  A$StateGame$1811                   StateGame
     00027F31  A$StateGame$1812                   StateGame
     00027F33  A$StateGame$1813                   StateGame
     00027F34  A$StateGame$1815                   StateGame
     00027F36  A$StateGame$1819                   StateGame
     00027F36  C$StateGame.c$181$3_0$223          StateGame
     00027F37  A$StateGame$1820                   StateGame
     00027F39  A$StateGame$1821                   StateGame
     00027F3A  A$StateGame$1822                   StateGame
     00027F3B  A$StateGame$1823                   StateGame
     00027F3E  A$StateGame$1824                   StateGame
     00027F3F  A$StateGame$1825                   StateGame
     00027F41  A$StateGame$1826                   StateGame
     00027F42  A$StateGame$1827                   StateGame
     00027F43  A$StateGame$1828                   StateGame
     00027F46  A$StateGame$1829                   StateGame
     00027F47  A$StateGame$1832                   StateGame
     00027F4A  A$StateGame$1833                   StateGame
     00027F4B  A$StateGame$1836                   StateGame
     00027F4C  A$StateGame$1837                   StateGame
     00027F4E  A$StateGame$1838                   StateGame
     00027F4F  A$StateGame$1839                   StateGame
     00027F50  A$StateGame$1840                   StateGame
     00027F52  A$StateGame$1841                   StateGame
     00027F55  A$StateGame$1842                   StateGame
     00027F56  A$StateGame$1846                   StateGame
     00027F56  C$StateGame.c$182$3_0$223          StateGame
     00027F57  A$StateGame$1847                   StateGame
     00027F59  A$StateGame$1853                   StateGame
     00027F59  C$StateGame.c$185$1_0$221          StateGame
     00027F5A  A$StateGame$1854                   StateGame
     00027F5B  A$StateGame$1855                   StateGame
     00027F5C  A$StateGame$1856                   StateGame
     00027F5D  A$StateGame$1857                   StateGame
     00027F5F  A$StateGame$1858                   StateGame
     00027F61  A$StateGame$1859                   StateGame
     00027F63  A$StateGame$1860                   StateGame
     00027F65  A$StateGame$1861                   StateGame
     00027F66  A$StateGame$1862                   StateGame
     00027F68  A$StateGame$1864                   StateGame
ASxxxx Linker V03.00/V05.40 + sdld,  page 242.
Hexadecimal  [32-Bits]

Area                                    Addr        Size        Decimal Bytes (Attributes)
--------------------------------        ----        ----        ------- ----- ------------
_CODE_2                             00024000    00003FF1 =       16369. bytes (REL,CON)

      Value  Global                              Global Defined In Module
      -----  --------------------------------   ------------------------
     00027F6A  A$StateGame$1865                   StateGame
     00027F6C  A$StateGame$1866                   StateGame
     00027F6D  A$StateGame$1868                   StateGame
     00027F6F  A$StateGame$1872                   StateGame
     00027F6F  C$StateGame.c$186$2_0$224          StateGame
     00027F71  A$StateGame$1873                   StateGame
     00027F72  A$StateGame$1874                   StateGame
     00027F73  A$StateGame$1875                   StateGame
     00027F74  A$StateGame$1876                   StateGame
     00027F76  A$StateGame$1877                   StateGame
     00027F77  A$StateGame$1878                   StateGame
     00027F7A  A$StateGame$1879                   StateGame
     00027F7B  A$StateGame$1880                   StateGame
     00027F7C  A$StateGame$1881                   StateGame
     00027F7D  A$StateGame$1882                   StateGame
     00027F80  A$StateGame$1883                   StateGame
     00027F81  A$StateGame$1884                   StateGame
     00027F82  A$StateGame$1885                   StateGame
     00027F83  A$StateGame$1886                   StateGame
     00027F84  A$StateGame$1887                   StateGame
     00027F86  A$StateGame$1888                   StateGame
     00027F87  A$StateGame$1889                   StateGame
     00027F88  A$StateGame$1890                   StateGame
     00027F8A  A$StateGame$1891                   StateGame
     00027F8D  A$StateGame$1896                   StateGame
     00027F8F  A$StateGame$1901                   StateGame
     00027F8F  C$StateGame.c$188$1_0$221          StateGame
     00027F8F  XG$update_hp$0$0                   StateGame
     00027F90  A$StateGame$1915                   StateGame
     00027F90  C$StateGame.c$197$1_0$227          StateGame
     00027F90  C$StateGame.c$198$1_0$227          StateGame
     00027F90  G$hud_compass_h_r$0$0              StateGame
     00027F90  _hud_compass_h_r                   StateGame
     00027F92  A$StateGame$1916                   StateGame
     00027F93  A$StateGame$1917                   StateGame
     00027F94  A$StateGame$1918                   StateGame
     00027F97  A$StateGame$1919                   StateGame
     00027F98  A$StateGame$1920                   StateGame
     00027F9A  A$StateGame$1921                   StateGame
     00027F9C  A$StateGame$1922                   StateGame
     00027F9F  A$StateGame$1930                   StateGame
     00027F9F  C$StateGame.c$199$1_0$227          StateGame
     00027F9F  XG$hud_compass_h_r$0$0             StateGame
     00027FA0  A$StateGame$1948                   StateGame
     00027FA0  C$StateGame.c$200$1_0$229          StateGame
     00027FA0  C$StateGame.c$202$1_0$229          StateGame
     00027FA0  G$hud_compass_r_u_33$0$0           StateGame
     00027FA0  XG$hud_compass_r_u_33$0$0          StateGame
     00027FA0  _hud_compass_r_u_33                StateGame
     00027FA1  A$StateGame$1961                   StateGame
     00027FA1  C$StateGame.c$204$1_0$230          StateGame
ASxxxx Linker V03.00/V05.40 + sdld,  page 243.
Hexadecimal  [32-Bits]

Area                                    Addr        Size        Decimal Bytes (Attributes)
--------------------------------        ----        ----        ------- ----- ------------
_CODE_2                             00024000    00003FF1 =       16369. bytes (REL,CON)

      Value  Global                              Global Defined In Module
      -----  --------------------------------   ------------------------
     00027FA1  C$StateGame.c$206$1_0$230          StateGame
     00027FA1  G$Update_StateGame$0$0             StateGame
     00027FA1  _Update_StateGame                  StateGame
     00027FA4  A$StateGame$1962                   StateGame
     00027FA6  A$StateGame$1966                   StateGame
     00027FA6  C$StateGame.c$208$1_0$230          StateGame
     00027FA8  A$StateGame$1967                   StateGame
     00027FAB  A$StateGame$1968                   StateGame
     00027FAE  A$StateGame$1972                   StateGame
     00027FAE  C$StateGame.c$210$1_0$230          StateGame
     00027FB0  A$StateGame$1973                   StateGame
     00027FB3  A$StateGame$1974                   StateGame
     00027FB6  A$StateGame$1978                   StateGame
     00027FB6  C$StateGame.c$212$1_0$230          StateGame
     00027FB8  A$StateGame$1979                   StateGame
     00027FBB  A$StateGame$1980                   StateGame
     00027FBE  A$StateGame$1984                   StateGame
     00027FBE  C$StateGame.c$214$1_0$230          StateGame
     00027FC0  A$StateGame$1985                   StateGame
     00027FC3  A$StateGame$1986                   StateGame
     00027FC6  A$StateGame$1990                   StateGame
     00027FC6  C$StateGame.c$216$1_0$230          StateGame
     00027FC9  A$StateGame$1991                   StateGame
     00027FCC  A$StateGame$1992                   StateGame
     00027FCD  A$StateGame$1993                   StateGame
     00027FCF  A$StateGame$1994                   StateGame
     00027FD2  A$StateGame$1995                   StateGame
     00027FD5  A$StateGame$1996                   StateGame
     00027FD6  A$StateGame$1997                   StateGame
     00027FD8  A$StateGame$1998                   StateGame
     00027FDB  A$StateGame$1999                   StateGame
     00027FDE  A$StateGame$2000                   StateGame
     00027FDF  A$StateGame$2001                   StateGame
     00027FE1  A$StateGame$2002                   StateGame
     00027FE4  A$StateGame$2003                   StateGame
     00027FE7  A$StateGame$2004                   StateGame
     00027FE8  A$StateGame$2005                   StateGame
     00027FE9  A$StateGame$2011                   StateGame
     00027FE9  C$StateGame.c$217$2_0$231          StateGame
     00027FEB  A$StateGame$2012                   StateGame
     00027FEE  A$StateGame$2020                   StateGame
     00027FEE  C$StateGame.c$229$1_0$230          StateGame
     00027FEE  XG$Update_StateGame$0$0            StateGame
ASxxxx Linker V03.00/V05.40 + sdld,  page 244.
Hexadecimal  [32-Bits]

Area                                    Addr        Size        Decimal Bytes (Attributes)
--------------------------------        ----        ----        ------- ----- ------------
_CODE_1                             00014000    000038C8 =       14536. bytes (REL,CON)

      Value  Global                              Global Defined In Module
      -----  --------------------------------   ------------------------
     00014000  G$map_map$0_0$0                    map_gbm
     00014000  _map_map                           map_gbm
     00014B54  G$map$0_0$0                        map_gbm
     00014B54  _map                               map_gbm
     00014B5D  G$maprome00_map$0_0$0              maprome00_gbm
     00014B5D  _maprome00_map                     maprome00_gbm
     00015FAD  G$maprome00$0_0$0                  maprome00_gbm
     00015FAD  _maprome00                         maprome00_gbm
     00015FB6  G$mapromet_palettes$0_0$0          mapromet_gbr
     00015FB6  _mapromet_palettes                 mapromet_gbr
     00015FCE  G$maprometCGB$0_0$0                mapromet_gbr
     00015FCE  _maprometCGB                       mapromet_gbr
     0001604E  G$mapromet_tiles$0_0$0             mapromet_gbr
     0001604E  _mapromet_tiles                    mapromet_gbr
     0001684E  G$mapromet$0_0$0                   mapromet_gbr
     0001684E  _mapromet                          mapromet_gbr
     00016856  G$tiles_palettes$0_0$0             tilesold_gbr
     00016856  _tiles_palettes                    tilesold_gbr
     0001685E  G$tilesCGB$0_0$0                   tilesold_gbr
     0001685E  _tilesCGB                          tilesold_gbr
     000168DE  G$tiles_tiles$0_0$0                tilesold_gbr
     000168DE  _tiles_tiles                       tilesold_gbr
     000170DE  G$tiles$0_0$0                      tilesold_gbr
     000170DE  _tiles                             tilesold_gbr
     000170E6  C$horse5frames.gbr.c$9$0_0$161     horse5frames_gbr
     000170E6  G$__func_horse5frames$0$0          horse5frames_gbr
     000170E6  G$horse5frames_palettes$0_0$0      horse5frames_gbr
     000170E6  ___func_horse5frames               horse5frames_gbr
     000170E6  _horse5frames_palettes             horse5frames_gbr
     000170EE  G$horse5frames_tiles$0_0$0         horse5frames_gbr
     000170EE  _horse5frames_tiles                horse5frames_gbr
     0001736E  G$horse5frames_metasprite0$0_0$0   horse5frames_gbr
     0001736E  _horse5frames_metasprite0          horse5frames_gbr
     00017382  G$horse5frames_metasprite1$0_0$0   horse5frames_gbr
     00017382  _horse5frames_metasprite1          horse5frames_gbr
     00017396  G$horse5frames_metasprite2$0_0$0   horse5frames_gbr
     00017396  _horse5frames_metasprite2          horse5frames_gbr
     000173AA  G$horse5frames_metasprite3$0_0$0   horse5frames_gbr
     000173AA  _horse5frames_metasprite3          horse5frames_gbr
     000173BE  G$horse5frames_metasprite4$0_0$0   horse5frames_gbr
     000173BE  _horse5frames_metasprite4          horse5frames_gbr
     000173D2  G$horse5frames_metasprites$0_0$0   horse5frames_gbr
     000173D2  _horse5frames_metasprites          horse5frames_gbr
     000173DC  G$horse5frames$0_0$0               horse5frames_gbr
     000173DC  _horse5frames                      horse5frames_gbr
     000173E7  A$SpriteFire$61                    SpriteFire
     000173E7  C$SpriteFire.c$18$0_0$190          SpriteFire
     000173E7  C$SpriteFire.c$19$1_0$190          SpriteFire
     000173E7  G$Start_SpriteFire$0$0             SpriteFire
     000173E7  _Start_SpriteFire                  SpriteFire
ASxxxx Linker V03.00/V05.40 + sdld,  page 245.
Hexadecimal  [32-Bits]

Area                                    Addr        Size        Decimal Bytes (Attributes)
--------------------------------        ----        ----        ------- ----- ------------
_CODE_1                             00014000    000038C8 =       14536. bytes (REL,CON)

      Value  Global                              Global Defined In Module
      -----  --------------------------------   ------------------------
     000173E9  A$SpriteFire$62                    SpriteFire
     000173EA  A$SpriteFire$63                    SpriteFire
     000173EB  A$SpriteFire$64                    SpriteFire
     000173EE  A$SpriteFire$65                    SpriteFire
     000173F1  A$SpriteFire$66                    SpriteFire
     000173F2  A$SpriteFire$67                    SpriteFire
     000173F3  A$SpriteFire$68                    SpriteFire
     000173F4  A$SpriteFire$69                    SpriteFire
     000173F7  A$SpriteFire$73                    SpriteFire
     000173F7  C$SpriteFire.c$20$1_0$190          SpriteFire
     000173FA  A$SpriteFire$74                    SpriteFire
     000173FB  A$SpriteFire$75                    SpriteFire
     000173FC  A$SpriteFire$76                    SpriteFire
     000173FD  A$SpriteFire$77                    SpriteFire
     00017400  A$SpriteFire$78                    SpriteFire
     00017401  A$SpriteFire$79                    SpriteFire
     00017403  A$SpriteFire$80                    SpriteFire
     00017404  A$SpriteFire$81                    SpriteFire
     00017406  A$SpriteFire$89                    SpriteFire
     00017406  C$SpriteFire.c$21$1_0$190          SpriteFire
     00017406  XG$Start_SpriteFire$0$0            SpriteFire
     00017407  G$a_fire$0_0$0                     SpriteFire
     00017407  _a_fire                            SpriteFire
     0001740C  G$a_fog$0_0$0                      SpriteFire
     0001740C  _a_fog                             SpriteFire
     00017411  A$SpriteFire$122                   SpriteFire
     00017411  C$SpriteFire.c$23$1_0$192          SpriteFire
     00017411  C$SpriteFire.c$24$1_0$192          SpriteFire
     00017411  G$Update_SpriteFire$0$0            SpriteFire
     00017411  XG$Update_SpriteFire$0$0           SpriteFire
     00017411  _Update_SpriteFire                 SpriteFire
     00017412  A$SpriteFire$139                   SpriteFire
     00017412  C$SpriteFire.c$26$1_0$194          SpriteFire
     00017412  C$SpriteFire.c$27$1_0$194          SpriteFire
     00017412  G$Destroy_SpriteFire$0$0           SpriteFire
     00017412  XG$Destroy_SpriteFire$0$0          SpriteFire
     00017412  _Destroy_SpriteFire                SpriteFire
     00017413  A$Fade_b$78                        Fade_b
     00017413  C$Fade_b.c$11$0_0$133              Fade_b
     00017413  C$Fade_b.c$12$1_0$133              Fade_b
     00017413  G$FadeInOp$0$0                     Fade_b
     00017413  _FadeInOp                          Fade_b
     00017414  A$Fade_b$79                        Fade_b
     00017415  A$Fade_b$82                        Fade_b
     00017416  A$Fade_b$83                        Fade_b
     00017417  A$Fade_b$84                        Fade_b
     00017418  A$Fade_b$85                        Fade_b
     0001741A  A$Fade_b$86                        Fade_b
     0001741B  A$Fade_b$87                        Fade_b
     0001741C  A$Fade_b$89                        Fade_b
     0001741D  A$Fade_b$90                        Fade_b
ASxxxx Linker V03.00/V05.40 + sdld,  page 246.
Hexadecimal  [32-Bits]

Area                                    Addr        Size        Decimal Bytes (Attributes)
--------------------------------        ----        ----        ------- ----- ------------
_CODE_1                             00014000    000038C8 =       14536. bytes (REL,CON)

      Value  Global                              Global Defined In Module
      -----  --------------------------------   ------------------------
     0001741E  A$Fade_b$98                        Fade_b
     0001741E  C$Fade_b.c$13$1_0$133              Fade_b
     0001741E  XG$FadeInOp$0$0                    Fade_b
     0001741F  A$Fade_b$108                       Fade_b
     0001741F  C$Fade_b.c$15$1_0$135              Fade_b
     0001741F  G$FadeDMG$0$0                      Fade_b
     0001741F  _FadeDMG                           Fade_b
     00017421  A$Fade_b$109                       Fade_b
     00017423  A$Fade_b$110                       Fade_b
     00017424  A$Fade_b$114                       Fade_b
     00017424  C$Fade_b.c$17$2_0$135              Fade_b
     00017426  A$Fade_b$115                       Fade_b
     00017428  A$Fade_b$116                       Fade_b
     00017429  A$Fade_b$117                       Fade_b
     0001742B  A$Fade_b$118                       Fade_b
     0001742C  A$Fade_b$119                       Fade_b
     0001742E  A$Fade_b$120                       Fade_b
     0001742F  A$Fade_b$121                       Fade_b
     00017431  A$Fade_b$122                       Fade_b
     00017432  A$Fade_b$123                       Fade_b
     00017434  A$Fade_b$124                       Fade_b
     00017435  A$Fade_b$125                       Fade_b
     00017437  A$Fade_b$129                       Fade_b
     00017437  C$Fade_b.c$19$2_0$135              Fade_b
     0001743A  A$Fade_b$130                       Fade_b
     0001743B  A$Fade_b$131                       Fade_b
     0001743C  A$Fade_b$132                       Fade_b
     0001743D  A$Fade_b$133                       Fade_b
     0001743F  A$Fade_b$134                       Fade_b
     00017440  A$Fade_b$135                       Fade_b
     00017441  A$Fade_b$136                       Fade_b
     00017442  A$Fade_b$137                       Fade_b
     00017444  A$Fade_b$138                       Fade_b
     00017445  A$Fade_b$142                       Fade_b
     00017447  A$Fade_b$143                       Fade_b
     00017449  A$Fade_b$148                       Fade_b
     00017449  C$Fade_b.c$24$3_0$137              Fade_b
     0001744B  A$Fade_b$149                       Fade_b
     0001744C  A$Fade_b$150                       Fade_b
     0001744E  A$Fade_b$151                       Fade_b
     0001744F  A$Fade_b$152                       Fade_b
     00017450  A$Fade_b$153                       Fade_b
     00017451  A$Fade_b$154                       Fade_b
     00017452  A$Fade_b$155                       Fade_b
     00017453  A$Fade_b$156                       Fade_b
     00017454  A$Fade_b$157                       Fade_b
     00017456  A$Fade_b$158                       Fade_b
     00017457  A$Fade_b$159                       Fade_b
     00017458  A$Fade_b$160                       Fade_b
     00017459  A$Fade_b$161                       Fade_b
     0001745B  A$Fade_b$162                       Fade_b
ASxxxx Linker V03.00/V05.40 + sdld,  page 247.
Hexadecimal  [32-Bits]

Area                                    Addr        Size        Decimal Bytes (Attributes)
--------------------------------        ----        ----        ------- ----- ------------
_CODE_1                             00014000    000038C8 =       14536. bytes (REL,CON)

      Value  Global                              Global Defined In Module
      -----  --------------------------------   ------------------------
     0001745C  A$Fade_b$163                       Fade_b
     0001745E  A$Fade_b$164                       Fade_b
     0001745F  A$Fade_b$165                       Fade_b
     00017462  A$Fade_b$166                       Fade_b
     00017463  A$Fade_b$167                       Fade_b
     00017464  A$Fade_b$168                       Fade_b
     00017465  A$Fade_b$169                       Fade_b
     00017466  A$Fade_b$170                       Fade_b
     00017468  A$Fade_b$171                       Fade_b
     00017469  A$Fade_b$172                       Fade_b
     0001746A  A$Fade_b$173                       Fade_b
     0001746B  A$Fade_b$174                       Fade_b
     0001746C  A$Fade_b$175                       Fade_b
     0001746D  A$Fade_b$176                       Fade_b
     0001746E  A$Fade_b$177                       Fade_b
     00017470  A$Fade_b$178                       Fade_b
     00017471  A$Fade_b$179                       Fade_b
     00017472  A$Fade_b$180                       Fade_b
     00017473  A$Fade_b$181                       Fade_b
     00017475  A$Fade_b$182                       Fade_b
     00017476  A$Fade_b$183                       Fade_b
     00017477  A$Fade_b$184                       Fade_b
     00017478  A$Fade_b$185                       Fade_b
     00017479  A$Fade_b$186                       Fade_b
     0001747A  A$Fade_b$187                       Fade_b
     0001747B  A$Fade_b$188                       Fade_b
     0001747C  A$Fade_b$189                       Fade_b
     0001747D  A$Fade_b$190                       Fade_b
     0001747E  A$Fade_b$191                       Fade_b
     0001747F  A$Fade_b$192                       Fade_b
     00017480  A$Fade_b$196                       Fade_b
     00017482  A$Fade_b$197                       Fade_b
     00017484  A$Fade_b$198                       Fade_b
     00017486  A$Fade_b$199                       Fade_b
     00017487  A$Fade_b$200                       Fade_b
     00017488  A$Fade_b$201                       Fade_b
     00017489  A$Fade_b$206                       Fade_b
     00017489  C$Fade_b.c$26$5_0$139              Fade_b
     0001748B  A$Fade_b$207                       Fade_b
     0001748C  A$Fade_b$208                       Fade_b
     0001748E  A$Fade_b$209                       Fade_b
     00017490  A$Fade_b$210                       Fade_b
     00017491  A$Fade_b$211                       Fade_b
     00017492  A$Fade_b$212                       Fade_b
     00017493  A$Fade_b$213                       Fade_b
     00017494  A$Fade_b$214                       Fade_b
     00017495  A$Fade_b$215                       Fade_b
     00017496  A$Fade_b$216                       Fade_b
     00017498  A$Fade_b$217                       Fade_b
     0001749B  A$Fade_b$218                       Fade_b
     0001749C  A$Fade_b$219                       Fade_b
ASxxxx Linker V03.00/V05.40 + sdld,  page 248.
Hexadecimal  [32-Bits]

Area                                    Addr        Size        Decimal Bytes (Attributes)
--------------------------------        ----        ----        ------- ----- ------------
_CODE_1                             00014000    000038C8 =       14536. bytes (REL,CON)

      Value  Global                              Global Defined In Module
      -----  --------------------------------   ------------------------
     0001749D  A$Fade_b$220                       Fade_b
     0001749F  A$Fade_b$221                       Fade_b
     000174A0  A$Fade_b$225                       Fade_b
     000174A0  C$Fade_b.c$25$4_0$138              Fade_b
     000174A2  A$Fade_b$226                       Fade_b
     000174A3  A$Fade_b$227                       Fade_b
     000174A5  A$Fade_b$228                       Fade_b
     000174A6  A$Fade_b$229                       Fade_b
     000174A7  A$Fade_b$230                       Fade_b
     000174A8  A$Fade_b$231                       Fade_b
     000174AA  A$Fade_b$232                       Fade_b
     000174AC  A$Fade_b$236                       Fade_b
     000174AC  C$Fade_b.c$23$2_0$135              Fade_b
     000174AE  A$Fade_b$237                       Fade_b
     000174AF  A$Fade_b$238                       Fade_b
     000174B0  A$Fade_b$239                       Fade_b
     000174B1  A$Fade_b$240                       Fade_b
     000174B3  A$Fade_b$241                       Fade_b
     000174B4  A$Fade_b$242                       Fade_b
     000174B5  A$Fade_b$243                       Fade_b
     000174B7  A$Fade_b$244                       Fade_b
     000174B9  A$Fade_b$248                       Fade_b
     000174B9  C$Fade_b.c$30$2_0$135              Fade_b
     000174BB  A$Fade_b$249                       Fade_b
     000174BD  A$Fade_b$254                       Fade_b
     000174BD  C$Fade_b.c$31$3_0$141              Fade_b
     000174BF  A$Fade_b$255                       Fade_b
     000174C0  A$Fade_b$256                       Fade_b
     000174C1  A$Fade_b$257                       Fade_b
     000174C3  A$Fade_b$258                       Fade_b
     000174C4  A$Fade_b$259                       Fade_b
     000174C5  A$Fade_b$260                       Fade_b
     000174C7  A$Fade_b$261                       Fade_b
     000174C8  A$Fade_b$262                       Fade_b
     000174CA  A$Fade_b$264                       Fade_b
     000174CC  A$Fade_b$265                       Fade_b
     000174CD  A$Fade_b$267                       Fade_b
     000174CF  A$Fade_b$268                       Fade_b
     000174D0  A$Fade_b$272                       Fade_b
     000174D0  C$Fade_b.c$32$2_0$135              Fade_b
     000174D2  A$Fade_b$273                       Fade_b
     000174D4  A$Fade_b$278                       Fade_b
     000174D4  C$Fade_b.c$33$5_0$143              Fade_b
     000174D6  A$Fade_b$279                       Fade_b
     000174D7  A$Fade_b$280                       Fade_b
     000174D9  A$Fade_b$281                       Fade_b
     000174DA  A$Fade_b$282                       Fade_b
     000174DC  A$Fade_b$283                       Fade_b
     000174DE  A$Fade_b$284                       Fade_b
     000174DF  A$Fade_b$285                       Fade_b
     000174E1  A$Fade_b$286                       Fade_b
ASxxxx Linker V03.00/V05.40 + sdld,  page 249.
Hexadecimal  [32-Bits]

Area                                    Addr        Size        Decimal Bytes (Attributes)
--------------------------------        ----        ----        ------- ----- ------------
_CODE_1                             00014000    000038C8 =       14536. bytes (REL,CON)

      Value  Global                              Global Defined In Module
      -----  --------------------------------   ------------------------
     000174E2  A$Fade_b$287                       Fade_b
     000174E3  A$Fade_b$288                       Fade_b
     000174E4  A$Fade_b$289                       Fade_b
     000174E5  A$Fade_b$290                       Fade_b
     000174E6  A$Fade_b$291                       Fade_b
     000174E9  A$Fade_b$292                       Fade_b
     000174EA  A$Fade_b$293                       Fade_b
     000174EB  A$Fade_b$294                       Fade_b
     000174EC  A$Fade_b$295                       Fade_b
     000174ED  A$Fade_b$296                       Fade_b
     000174EF  A$Fade_b$297                       Fade_b
     000174F0  A$Fade_b$298                       Fade_b
     000174F1  A$Fade_b$299                       Fade_b
     000174F2  A$Fade_b$300                       Fade_b
     000174F3  A$Fade_b$301                       Fade_b
     000174F4  A$Fade_b$302                       Fade_b
     000174F5  A$Fade_b$303                       Fade_b
     000174F7  A$Fade_b$304                       Fade_b
     000174F8  A$Fade_b$305                       Fade_b
     000174F9  A$Fade_b$306                       Fade_b
     000174FA  A$Fade_b$307                       Fade_b
     000174FC  A$Fade_b$308                       Fade_b
     000174FD  A$Fade_b$309                       Fade_b
     000174FE  A$Fade_b$310                       Fade_b
     00017500  A$Fade_b$311                       Fade_b
     00017501  A$Fade_b$312                       Fade_b
     00017503  A$Fade_b$313                       Fade_b
     00017504  A$Fade_b$314                       Fade_b
     00017506  A$Fade_b$315                       Fade_b
     00017507  A$Fade_b$319                       Fade_b
     00017507  C$Fade_b.c$34$5_0$143              Fade_b
     00017509  A$Fade_b$320                       Fade_b
     0001750A  A$Fade_b$321                       Fade_b
     0001750C  A$Fade_b$322                       Fade_b
     0001750D  A$Fade_b$323                       Fade_b
     0001750E  A$Fade_b$324                       Fade_b
     0001750F  A$Fade_b$325                       Fade_b
     00017510  A$Fade_b$326                       Fade_b
     00017511  A$Fade_b$327                       Fade_b
     00017512  A$Fade_b$328                       Fade_b
     00017514  A$Fade_b$329                       Fade_b
     00017515  A$Fade_b$330                       Fade_b
     00017516  A$Fade_b$331                       Fade_b
     00017517  A$Fade_b$332                       Fade_b
     00017519  A$Fade_b$333                       Fade_b
     0001751A  A$Fade_b$334                       Fade_b
     0001751C  A$Fade_b$335                       Fade_b
     0001751D  A$Fade_b$336                       Fade_b
     00017520  A$Fade_b$337                       Fade_b
     00017521  A$Fade_b$338                       Fade_b
     00017522  A$Fade_b$339                       Fade_b
ASxxxx Linker V03.00/V05.40 + sdld,  page 250.
Hexadecimal  [32-Bits]

Area                                    Addr        Size        Decimal Bytes (Attributes)
--------------------------------        ----        ----        ------- ----- ------------
_CODE_1                             00014000    000038C8 =       14536. bytes (REL,CON)

      Value  Global                              Global Defined In Module
      -----  --------------------------------   ------------------------
     00017523  A$Fade_b$340                       Fade_b
     00017524  A$Fade_b$341                       Fade_b
     00017526  A$Fade_b$342                       Fade_b
     00017527  A$Fade_b$343                       Fade_b
     00017528  A$Fade_b$344                       Fade_b
     00017529  A$Fade_b$345                       Fade_b
     0001752A  A$Fade_b$346                       Fade_b
     0001752B  A$Fade_b$347                       Fade_b
     0001752C  A$Fade_b$348                       Fade_b
     0001752E  A$Fade_b$349                       Fade_b
     0001752F  A$Fade_b$350                       Fade_b
     00017530  A$Fade_b$351                       Fade_b
     00017531  A$Fade_b$352                       Fade_b
     00017533  A$Fade_b$353                       Fade_b
     00017534  A$Fade_b$354                       Fade_b
     00017535  A$Fade_b$355                       Fade_b
     00017536  A$Fade_b$356                       Fade_b
     00017537  A$Fade_b$357                       Fade_b
     00017538  A$Fade_b$358                       Fade_b
     0001753A  A$Fade_b$359                       Fade_b
     0001753B  A$Fade_b$360                       Fade_b
     0001753C  A$Fade_b$361                       Fade_b
     0001753D  A$Fade_b$362                       Fade_b
     0001753E  A$Fade_b$363                       Fade_b
     00017540  A$Fade_b$364                       Fade_b
     00017541  A$Fade_b$365                       Fade_b
     00017543  A$Fade_b$366                       Fade_b
     00017544  A$Fade_b$367                       Fade_b
     00017546  A$Fade_b$368                       Fade_b
     00017548  A$Fade_b$369                       Fade_b
     00017549  A$Fade_b$370                       Fade_b
     0001754A  A$Fade_b$371                       Fade_b
     0001754B  A$Fade_b$372                       Fade_b
     0001754C  A$Fade_b$373                       Fade_b
     0001754D  A$Fade_b$374                       Fade_b
     0001754E  A$Fade_b$375                       Fade_b
     0001754F  A$Fade_b$376                       Fade_b
     00017550  A$Fade_b$377                       Fade_b
     00017552  A$Fade_b$378                       Fade_b
     00017554  A$Fade_b$379                       Fade_b
     00017555  A$Fade_b$380                       Fade_b
     00017556  A$Fade_b$381                       Fade_b
     00017557  A$Fade_b$382                       Fade_b
     0001755A  A$Fade_b$383                       Fade_b
     0001755C  A$Fade_b$384                       Fade_b
     0001755E  A$Fade_b$385                       Fade_b
     0001755F  A$Fade_b$386                       Fade_b
     00017560  A$Fade_b$387                       Fade_b
     00017562  A$Fade_b$388                       Fade_b
     00017563  A$Fade_b$389                       Fade_b
     00017565  A$Fade_b$390                       Fade_b
ASxxxx Linker V03.00/V05.40 + sdld,  page 251.
Hexadecimal  [32-Bits]

Area                                    Addr        Size        Decimal Bytes (Attributes)
--------------------------------        ----        ----        ------- ----- ------------
_CODE_1                             00014000    000038C8 =       14536. bytes (REL,CON)

      Value  Global                              Global Defined In Module
      -----  --------------------------------   ------------------------
     00017566  A$Fade_b$391                       Fade_b
     00017567  A$Fade_b$392                       Fade_b
     00017568  A$Fade_b$393                       Fade_b
     00017569  A$Fade_b$394                       Fade_b
     0001756A  A$Fade_b$395                       Fade_b
     0001756B  A$Fade_b$396                       Fade_b
     0001756C  A$Fade_b$397                       Fade_b
     0001756E  A$Fade_b$398                       Fade_b
     00017570  A$Fade_b$399                       Fade_b
     00017571  A$Fade_b$400                       Fade_b
     00017572  A$Fade_b$401                       Fade_b
     00017573  A$Fade_b$402                       Fade_b
     00017576  A$Fade_b$403                       Fade_b
     00017578  A$Fade_b$404                       Fade_b
     0001757A  A$Fade_b$405                       Fade_b
     0001757C  A$Fade_b$406                       Fade_b
     0001757D  A$Fade_b$407                       Fade_b
     0001757E  A$Fade_b$408                       Fade_b
     00017580  A$Fade_b$409                       Fade_b
     00017581  A$Fade_b$410                       Fade_b
     00017582  A$Fade_b$411                       Fade_b
     00017583  A$Fade_b$412                       Fade_b
     00017584  A$Fade_b$413                       Fade_b
     00017585  A$Fade_b$414                       Fade_b
     00017586  A$Fade_b$415                       Fade_b
     00017588  A$Fade_b$416                       Fade_b
     0001758A  A$Fade_b$417                       Fade_b
     0001758B  A$Fade_b$418                       Fade_b
     0001758C  A$Fade_b$419                       Fade_b
     0001758D  A$Fade_b$420                       Fade_b
     00017590  A$Fade_b$421                       Fade_b
     00017591  A$Fade_b$422                       Fade_b
     00017592  A$Fade_b$423                       Fade_b
     00017594  A$Fade_b$424                       Fade_b
     00017595  A$Fade_b$425                       Fade_b
     00017596  A$Fade_b$426                       Fade_b
     00017598  A$Fade_b$427                       Fade_b
     00017599  A$Fade_b$428                       Fade_b
     0001759A  A$Fade_b$429                       Fade_b
     0001759B  A$Fade_b$430                       Fade_b
     0001759C  A$Fade_b$431                       Fade_b
     0001759D  A$Fade_b$432                       Fade_b
     0001759F  A$Fade_b$433                       Fade_b
     000175A1  A$Fade_b$434                       Fade_b
     000175A2  A$Fade_b$435                       Fade_b
     000175A3  A$Fade_b$436                       Fade_b
     000175A4  A$Fade_b$437                       Fade_b
     000175A7  A$Fade_b$438                       Fade_b
     000175A9  A$Fade_b$439                       Fade_b
     000175AA  A$Fade_b$440                       Fade_b
     000175AB  A$Fade_b$441                       Fade_b
ASxxxx Linker V03.00/V05.40 + sdld,  page 252.
Hexadecimal  [32-Bits]

Area                                    Addr        Size        Decimal Bytes (Attributes)
--------------------------------        ----        ----        ------- ----- ------------
_CODE_1                             00014000    000038C8 =       14536. bytes (REL,CON)

      Value  Global                              Global Defined In Module
      -----  --------------------------------   ------------------------
     000175AD  A$Fade_b$442                       Fade_b
     000175AE  A$Fade_b$443                       Fade_b
     000175AF  A$Fade_b$444                       Fade_b
     000175B0  A$Fade_b$445                       Fade_b
     000175B1  A$Fade_b$449                       Fade_b
     000175B1  C$Fade_b.c$32$4_0$142              Fade_b
     000175B3  A$Fade_b$450                       Fade_b
     000175B4  A$Fade_b$451                       Fade_b
     000175B5  A$Fade_b$452                       Fade_b
     000175B7  A$Fade_b$453                       Fade_b
     000175BA  A$Fade_b$457                       Fade_b
     000175BA  C$Fade_b.c$36$3_0$141              Fade_b
     000175BD  A$Fade_b$458                       Fade_b
     000175C0  A$Fade_b$462                       Fade_b
     000175C0  C$Fade_b.c$30$2_0$140              Fade_b
     000175C2  A$Fade_b$463                       Fade_b
     000175C3  A$Fade_b$464                       Fade_b
     000175C4  A$Fade_b$465                       Fade_b
     000175C6  A$Fade_b$466                       Fade_b
     000175C9  A$Fade_b$470                       Fade_b
     000175CB  A$Fade_b$475                       Fade_b
     000175CB  C$Fade_b.c$38$2_0$135              Fade_b
     000175CB  XG$FadeDMG$0$0                     Fade_b
     000175CC  A$Fade_b$488                       Fade_b
     000175CC  C$Fade_b.c$40$2_0$144              Fade_b
     000175CC  C$Fade_b.c$41$1_0$144              Fade_b
     000175CC  G$FadeInDMG$0$0                    Fade_b
     000175CC  _FadeInDMG                         Fade_b
     000175CD  A$Fade_b$496                       Fade_b
     000175CD  C$Fade_b.c$42$1_0$144              Fade_b
     000175CD  XG$FadeInDMG$0$0                   Fade_b
     000175D0  A$Fade_b$506                       Fade_b
     000175D0  C$Fade_b.c$44$1_0$146              Fade_b
     000175D0  G$UpdateColor$0$0                  Fade_b
     000175D0  _UpdateColor                       Fade_b
     000175D2  A$Fade_b$507                       Fade_b
     000175D3  A$Fade_b$508                       Fade_b
     000175D5  A$Fade_b$509                       Fade_b
     000175D6  A$Fade_b$510                       Fade_b
     000175D7  A$Fade_b$514                       Fade_b
     000175D7  C$Fade_b.c$46$1_0$146              Fade_b
     000175D8  A$Fade_b$515                       Fade_b
     000175D9  A$Fade_b$516                       Fade_b
     000175DA  A$Fade_b$517                       Fade_b
     000175DC  A$Fade_b$518                       Fade_b
     000175DD  A$Fade_b$523                       Fade_b
     000175DF  A$Fade_b$524                       Fade_b
     000175E0  A$Fade_b$525                       Fade_b
     000175E2  A$Fade_b$526                       Fade_b
     000175E3  A$Fade_b$527                       Fade_b
     000175E4  A$Fade_b$528                       Fade_b
ASxxxx Linker V03.00/V05.40 + sdld,  page 253.
Hexadecimal  [32-Bits]

Area                                    Addr        Size        Decimal Bytes (Attributes)
--------------------------------        ----        ----        ------- ----- ------------
_CODE_1                             00014000    000038C8 =       14536. bytes (REL,CON)

      Value  Global                              Global Defined In Module
      -----  --------------------------------   ------------------------
     000175E5  A$Fade_b$529                       Fade_b
     000175E6  A$Fade_b$530                       Fade_b
     000175E7  A$Fade_b$531                       Fade_b
     000175E8  A$Fade_b$532                       Fade_b
     000175E9  A$Fade_b$533                       Fade_b
     000175EC  A$Fade_b$534                       Fade_b
     000175EF  A$Fade_b$535                       Fade_b
     000175F0  A$Fade_b$536                       Fade_b
     000175F1  A$Fade_b$537                       Fade_b
     000175F2  A$Fade_b$538                       Fade_b
     000175F3  A$Fade_b$539                       Fade_b
     000175F4  A$Fade_b$540                       Fade_b
     000175F5  A$Fade_b$541                       Fade_b
     000175F6  A$Fade_b$542                       Fade_b
     000175F8  A$Fade_b$543                       Fade_b
     000175F9  A$Fade_b$544                       Fade_b
     000175FB  A$Fade_b$545                       Fade_b
     000175FC  A$Fade_b$546                       Fade_b
     000175FD  A$Fade_b$547                       Fade_b
     000175FF  A$Fade_b$548                       Fade_b
     00017600  A$Fade_b$549                       Fade_b
     00017601  A$Fade_b$550                       Fade_b
     00017602  A$Fade_b$551                       Fade_b
     00017604  A$Fade_b$552                       Fade_b
     00017606  A$Fade_b$553                       Fade_b
     00017608  A$Fade_b$554                       Fade_b
     0001760A  A$Fade_b$555                       Fade_b
     0001760C  A$Fade_b$556                       Fade_b
     0001760E  A$Fade_b$557                       Fade_b
     00017610  A$Fade_b$558                       Fade_b
     00017612  A$Fade_b$559                       Fade_b
     00017614  A$Fade_b$560                       Fade_b
     00017616  A$Fade_b$561                       Fade_b
     00017617  A$Fade_b$562                       Fade_b
     00017619  A$Fade_b$563                       Fade_b
     0001761A  A$Fade_b$564                       Fade_b
     0001761C  A$Fade_b$565                       Fade_b
     0001761D  A$Fade_b$566                       Fade_b
     0001761E  A$Fade_b$567                       Fade_b
     00017621  A$Fade_b$568                       Fade_b
     00017624  A$Fade_b$569                       Fade_b
     00017625  A$Fade_b$572                       Fade_b
     00017626  A$Fade_b$575                       Fade_b
     00017627  A$Fade_b$576                       Fade_b
     00017628  A$Fade_b$577                       Fade_b
     00017629  A$Fade_b$578                       Fade_b
     0001762A  A$Fade_b$579                       Fade_b
     0001762B  A$Fade_b$582                       Fade_b
     0001762C  A$Fade_b$583                       Fade_b
     0001762D  A$Fade_b$584                       Fade_b
     0001762E  A$Fade_b$585                       Fade_b
ASxxxx Linker V03.00/V05.40 + sdld,  page 254.
Hexadecimal  [32-Bits]

Area                                    Addr        Size        Decimal Bytes (Attributes)
--------------------------------        ----        ----        ------- ----- ------------
_CODE_1                             00014000    000038C8 =       14536. bytes (REL,CON)

      Value  Global                              Global Defined In Module
      -----  --------------------------------   ------------------------
     0001762F  A$Fade_b$586                       Fade_b
     00017630  A$Fade_b$587                       Fade_b
     00017631  A$Fade_b$588                       Fade_b
     00017633  A$Fade_b$589                       Fade_b
     00017634  A$Fade_b$590                       Fade_b
     00017635  A$Fade_b$591                       Fade_b
     00017636  A$Fade_b$592                       Fade_b
     00017637  A$Fade_b$593                       Fade_b
     00017638  A$Fade_b$594                       Fade_b
     0001763A  A$Fade_b$595                       Fade_b
     0001763B  A$Fade_b$596                       Fade_b
     0001763C  A$Fade_b$597                       Fade_b
     0001763D  A$Fade_b$598                       Fade_b
     0001763E  A$Fade_b$599                       Fade_b
     00017640  A$Fade_b$600                       Fade_b
     00017641  A$Fade_b$601                       Fade_b
     00017642  A$Fade_b$602                       Fade_b
     00017643  A$Fade_b$603                       Fade_b
     00017645  A$Fade_b$604                       Fade_b
     00017647  A$Fade_b$605                       Fade_b
     00017648  A$Fade_b$606                       Fade_b
     00017649  A$Fade_b$607                       Fade_b
     0001764A  A$Fade_b$608                       Fade_b
     0001764B  A$Fade_b$609                       Fade_b
     0001764D  A$Fade_b$610                       Fade_b
     0001764E  A$Fade_b$613                       Fade_b
     00017650  A$Fade_b$616                       Fade_b
     00017651  A$Fade_b$617                       Fade_b
     00017652  A$Fade_b$618                       Fade_b
     00017655  A$Fade_b$619                       Fade_b
     00017658  A$Fade_b$620                       Fade_b
     00017659  A$Fade_b$621                       Fade_b
     0001765A  A$Fade_b$622                       Fade_b
     0001765B  A$Fade_b$623                       Fade_b
     0001765C  A$Fade_b$624                       Fade_b
     0001765D  A$Fade_b$627                       Fade_b
     0001765F  A$Fade_b$630                       Fade_b
     00017660  A$Fade_b$631                       Fade_b
     00017661  A$Fade_b$632                       Fade_b
     00017662  A$Fade_b$633                       Fade_b
     00017663  A$Fade_b$634                       Fade_b
     00017664  A$Fade_b$635                       Fade_b
     00017665  A$Fade_b$636                       Fade_b
     00017666  A$Fade_b$637                       Fade_b
     00017667  A$Fade_b$641                       Fade_b
     00017669  A$Fade_b$646                       Fade_b
     00017669  C$Fade_b.c$47$1_0$146              Fade_b
     00017669  XG$UpdateColor$0$0                 Fade_b
     0001766A  A$Fade_b$656                       Fade_b
     0001766A  C$Fade_b.c$49$1_0$148              Fade_b
     0001766A  G$FadeStepColor$0$0                Fade_b
ASxxxx Linker V03.00/V05.40 + sdld,  page 255.
Hexadecimal  [32-Bits]

Area                                    Addr        Size        Decimal Bytes (Attributes)
--------------------------------        ----        ----        ------- ----- ------------
_CODE_1                             00014000    000038C8 =       14536. bytes (REL,CON)

      Value  Global                              Global Defined In Module
      -----  --------------------------------   ------------------------
     0001766A  _FadeStepColor                     Fade_b
     0001766C  A$Fade_b$657                       Fade_b
     0001766E  A$Fade_b$667                       Fade_b
     0001766E  C$Fade_b.c$53$2_0$148              Fade_b
     0001766E  C$Fade_b.c$54$2_0$148              Fade_b
     0001766E  C$Fade_b.c$56$5_0$152              Fade_b
     0001766F  A$Fade_b$668                       Fade_b
     00017672  A$Fade_b$669                       Fade_b
     00017675  A$Fade_b$670                       Fade_b
     00017677  A$Fade_b$675                       Fade_b
     00017677  C$Fade_b.c$57$1_0$148              Fade_b
     00017679  A$Fade_b$676                       Fade_b
     0001767A  A$Fade_b$677                       Fade_b
     0001767B  A$Fade_b$678                       Fade_b
     0001767C  A$Fade_b$679                       Fade_b
     0001767D  A$Fade_b$680                       Fade_b
     0001767E  A$Fade_b$681                       Fade_b
     0001767F  A$Fade_b$682                       Fade_b
     00017680  A$Fade_b$683                       Fade_b
     00017681  A$Fade_b$684                       Fade_b
     00017682  A$Fade_b$689                       Fade_b
     00017682  C$Fade_b.c$58$5_0$152              Fade_b
     00017684  A$Fade_b$690                       Fade_b
     00017685  A$Fade_b$691                       Fade_b
     00017687  A$Fade_b$692                       Fade_b
     00017688  A$Fade_b$693                       Fade_b
     0001768A  A$Fade_b$694                       Fade_b
     0001768C  A$Fade_b$695                       Fade_b
     0001768D  A$Fade_b$696                       Fade_b
     0001768E  A$Fade_b$697                       Fade_b
     0001768F  A$Fade_b$698                       Fade_b
     00017692  A$Fade_b$699                       Fade_b
     00017693  A$Fade_b$700                       Fade_b
     00017694  A$Fade_b$701                       Fade_b
     00017695  A$Fade_b$702                       Fade_b
     00017696  A$Fade_b$703                       Fade_b
     00017698  A$Fade_b$704                       Fade_b
     00017699  A$Fade_b$705                       Fade_b
     0001769A  A$Fade_b$706                       Fade_b
     0001769B  A$Fade_b$707                       Fade_b
     0001769C  A$Fade_b$708                       Fade_b
     0001769D  A$Fade_b$709                       Fade_b
     0001769E  A$Fade_b$710                       Fade_b
     000176A0  A$Fade_b$711                       Fade_b
     000176A1  A$Fade_b$712                       Fade_b
     000176A2  A$Fade_b$713                       Fade_b
     000176A3  A$Fade_b$714                       Fade_b
     000176A4  A$Fade_b$715                       Fade_b
     000176A5  A$Fade_b$718                       Fade_b
     000176A6  A$Fade_b$719                       Fade_b
     000176A7  A$Fade_b$720                       Fade_b
ASxxxx Linker V03.00/V05.40 + sdld,  page 256.
Hexadecimal  [32-Bits]

Area                                    Addr        Size        Decimal Bytes (Attributes)
--------------------------------        ----        ----        ------- ----- ------------
_CODE_1                             00014000    000038C8 =       14536. bytes (REL,CON)

      Value  Global                              Global Defined In Module
      -----  --------------------------------   ------------------------
     000176A8  A$Fade_b$723                       Fade_b
     000176A9  A$Fade_b$724                       Fade_b
     000176AA  A$Fade_b$725                       Fade_b
     000176AB  A$Fade_b$726                       Fade_b
     000176AD  A$Fade_b$727                       Fade_b
     000176AE  A$Fade_b$728                       Fade_b
     000176B1  A$Fade_b$729                       Fade_b
     000176B2  A$Fade_b$730                       Fade_b
     000176B3  A$Fade_b$731                       Fade_b
     000176B4  A$Fade_b$732                       Fade_b
     000176B5  A$Fade_b$733                       Fade_b
     000176B6  A$Fade_b$734                       Fade_b
     000176B7  A$Fade_b$735                       Fade_b
     000176B8  A$Fade_b$736                       Fade_b
     000176B9  A$Fade_b$740                       Fade_b
     000176B9  C$Fade_b.c$59$5_0$152              Fade_b
     000176BA  A$Fade_b$741                       Fade_b
     000176BD  A$Fade_b$742                       Fade_b
     000176BE  A$Fade_b$743                       Fade_b
     000176BF  A$Fade_b$744                       Fade_b
     000176C0  A$Fade_b$745                       Fade_b
     000176C1  A$Fade_b$746                       Fade_b
     000176C3  A$Fade_b$747                       Fade_b
     000176C4  A$Fade_b$748                       Fade_b
     000176C5  A$Fade_b$749                       Fade_b
     000176C6  A$Fade_b$750                       Fade_b
     000176C7  A$Fade_b$751                       Fade_b
     000176C8  A$Fade_b$752                       Fade_b
     000176C9  A$Fade_b$753                       Fade_b
     000176CB  A$Fade_b$754                       Fade_b
     000176CC  A$Fade_b$755                       Fade_b
     000176CD  A$Fade_b$756                       Fade_b
     000176CE  A$Fade_b$757                       Fade_b
     000176CF  A$Fade_b$758                       Fade_b
     000176D0  A$Fade_b$761                       Fade_b
     000176D1  A$Fade_b$762                       Fade_b
     000176D2  A$Fade_b$763                       Fade_b
     000176D3  A$Fade_b$766                       Fade_b
     000176D4  A$Fade_b$767                       Fade_b
     000176D5  A$Fade_b$768                       Fade_b
     000176D6  A$Fade_b$769                       Fade_b
     000176D8  A$Fade_b$770                       Fade_b
     000176D9  A$Fade_b$771                       Fade_b
     000176DC  A$Fade_b$772                       Fade_b
     000176DD  A$Fade_b$773                       Fade_b
     000176DE  A$Fade_b$774                       Fade_b
     000176DF  A$Fade_b$775                       Fade_b
     000176E0  A$Fade_b$776                       Fade_b
     000176E1  A$Fade_b$777                       Fade_b
     000176E2  A$Fade_b$778                       Fade_b
     000176E3  A$Fade_b$779                       Fade_b
ASxxxx Linker V03.00/V05.40 + sdld,  page 257.
Hexadecimal  [32-Bits]

Area                                    Addr        Size        Decimal Bytes (Attributes)
--------------------------------        ----        ----        ------- ----- ------------
_CODE_1                             00014000    000038C8 =       14536. bytes (REL,CON)

      Value  Global                              Global Defined In Module
      -----  --------------------------------   ------------------------
     000176E4  A$Fade_b$783                       Fade_b
     000176E4  C$Fade_b.c$57$4_0$151              Fade_b
     000176E6  A$Fade_b$784                       Fade_b
     000176E7  A$Fade_b$785                       Fade_b
     000176E8  A$Fade_b$786                       Fade_b
     000176E9  A$Fade_b$787                       Fade_b
     000176EA  A$Fade_b$788                       Fade_b
     000176EB  A$Fade_b$789                       Fade_b
     000176EE  A$Fade_b$790                       Fade_b
     000176EF  A$Fade_b$791                       Fade_b
     000176F0  A$Fade_b$792                       Fade_b
     000176F1  A$Fade_b$793                       Fade_b
     000176F3  A$Fade_b$794                       Fade_b
     000176F4  A$Fade_b$795                       Fade_b
     000176F5  A$Fade_b$796                       Fade_b
     000176F6  A$Fade_b$797                       Fade_b
     000176F8  A$Fade_b$798                       Fade_b
     000176F9  A$Fade_b$799                       Fade_b
     000176FA  A$Fade_b$800                       Fade_b
     000176FB  A$Fade_b$801                       Fade_b
     000176FC  A$Fade_b$802                       Fade_b
     000176FF  A$Fade_b$803                       Fade_b
     00017700  A$Fade_b$804                       Fade_b
     00017701  A$Fade_b$805                       Fade_b
     00017702  A$Fade_b$806                       Fade_b
     00017704  A$Fade_b$807                       Fade_b
     00017705  A$Fade_b$808                       Fade_b
     00017706  A$Fade_b$809                       Fade_b
     00017707  A$Fade_b$810                       Fade_b
     00017709  A$Fade_b$811                       Fade_b
     0001770A  A$Fade_b$812                       Fade_b
     0001770C  A$Fade_b$813                       Fade_b
     0001770D  A$Fade_b$814                       Fade_b
     0001770F  A$Fade_b$815                       Fade_b
     00017712  A$Fade_b$819                       Fade_b
     00017712  C$Fade_b.c$61$1_0$148              Fade_b
     00017713  A$Fade_b$820                       Fade_b
     00017714  A$Fade_b$821                       Fade_b
     00017715  A$Fade_b$822                       Fade_b
     00017716  A$Fade_b$823                       Fade_b
     00017717  A$Fade_b$824                       Fade_b
     00017718  A$Fade_b$825                       Fade_b
     00017719  A$Fade_b$826                       Fade_b
     0001771A  A$Fade_b$827                       Fade_b
     0001771B  A$Fade_b$828                       Fade_b
     0001771C  A$Fade_b$829                       Fade_b
     0001771F  A$Fade_b$830                       Fade_b
     00017720  A$Fade_b$831                       Fade_b
     00017721  A$Fade_b$832                       Fade_b
     00017723  A$Fade_b$833                       Fade_b
     00017724  A$Fade_b$834                       Fade_b
ASxxxx Linker V03.00/V05.40 + sdld,  page 258.
Hexadecimal  [32-Bits]

Area                                    Addr        Size        Decimal Bytes (Attributes)
--------------------------------        ----        ----        ------- ----- ------------
_CODE_1                             00014000    000038C8 =       14536. bytes (REL,CON)

      Value  Global                              Global Defined In Module
      -----  --------------------------------   ------------------------
     00017725  A$Fade_b$835                       Fade_b
     00017727  A$Fade_b$836                       Fade_b
     00017728  A$Fade_b$837                       Fade_b
     00017729  A$Fade_b$838                       Fade_b
     0001772A  A$Fade_b$839                       Fade_b
     0001772D  A$Fade_b$840                       Fade_b
     0001772F  A$Fade_b$841                       Fade_b
     00017732  A$Fade_b$842                       Fade_b
     00017733  A$Fade_b$843                       Fade_b
     00017734  A$Fade_b$844                       Fade_b
     00017736  A$Fade_b$845                       Fade_b
     00017737  A$Fade_b$846                       Fade_b
     00017738  A$Fade_b$847                       Fade_b
     0001773A  A$Fade_b$848                       Fade_b
     0001773B  A$Fade_b$849                       Fade_b
     0001773C  A$Fade_b$850                       Fade_b
     0001773D  A$Fade_b$851                       Fade_b
     00017740  A$Fade_b$852                       Fade_b
     00017742  A$Fade_b$853                       Fade_b
     00017743  A$Fade_b$854                       Fade_b
     00017744  A$Fade_b$858                       Fade_b
     00017744  C$Fade_b.c$56$2_0$149              Fade_b
     00017746  A$Fade_b$859                       Fade_b
     00017747  A$Fade_b$860                       Fade_b
     00017748  A$Fade_b$861                       Fade_b
     0001774A  A$Fade_b$862                       Fade_b
     0001774D  A$Fade_b$866                       Fade_b
     0001774D  C$Fade_b.c$64$1_0$148              Fade_b
     00017750  A$Fade_b$867                       Fade_b
     00017753  A$Fade_b$871                       Fade_b
     00017755  A$Fade_b$876                       Fade_b
     00017755  C$Fade_b.c$65$1_0$148              Fade_b
     00017755  XG$FadeStepColor$0$0               Fade_b
     00017756  A$Fade_b$889                       Fade_b
     00017756  C$Fade_b.c$67$1_0$154              Fade_b
     00017756  G$FadeInCOLOR$0$0                  Fade_b
     00017756  _FadeInCOLOR                       Fade_b
     00017758  A$Fade_b$894                       Fade_b
     00017758  C$Fade_b.c$70$3_0$155              Fade_b
     00017759  A$Fade_b$895                       Fade_b
     0001775A  A$Fade_b$896                       Fade_b
     0001775D  A$Fade_b$897                       Fade_b
     0001775E  A$Fade_b$901                       Fade_b
     0001775E  C$Fade_b.c$69$2_0$154              Fade_b
     0001775F  A$Fade_b$902                       Fade_b
     00017760  A$Fade_b$903                       Fade_b
     00017762  A$Fade_b$904                       Fade_b
     00017764  A$Fade_b$912                       Fade_b
     00017764  C$Fade_b.c$72$2_0$154              Fade_b
     00017764  XG$FadeInCOLOR$0$0                 Fade_b
     00017765  A$Fade_b$933                       Fade_b
ASxxxx Linker V03.00/V05.40 + sdld,  page 259.
Hexadecimal  [32-Bits]

Area                                    Addr        Size        Decimal Bytes (Attributes)
--------------------------------        ----        ----        ------- ----- ------------
_CODE_1                             00014000    000038C8 =       14536. bytes (REL,CON)

      Value  Global                              Global Defined In Module
      -----  --------------------------------   ------------------------
     00017765  C$Fade_b.c$74$2_0$156              Fade_b
     00017765  C$Fade_b.c$80$1_0$156              Fade_b
     00017765  C$Fade_b.c$81$1_0$156              Fade_b
     00017765  G$FadeIn_b$0$0                     Fade_b
     00017765  XG$FadeIn_b$0$0                    Fade_b
     00017765  _FadeIn_b                          Fade_b
     00017768  A$Fade_b$946                       Fade_b
     00017768  C$Fade_b.c$83$1_0$157              Fade_b
     00017768  C$Fade_b.c$84$1_0$157              Fade_b
     00017768  G$FadeOutDMG$0$0                   Fade_b
     00017768  _FadeOutDMG                        Fade_b
     0001776A  A$Fade_b$954                       Fade_b
     0001776A  C$Fade_b.c$85$1_0$157              Fade_b
     0001776A  XG$FadeOutDMG$0$0                  Fade_b
     0001776D  A$Fade_b$967                       Fade_b
     0001776D  C$Fade_b.c$87$1_0$159              Fade_b
     0001776D  G$FadeOutColor$0$0                 Fade_b
     0001776D  _FadeOutColor                      Fade_b
     0001776F  A$Fade_b$972                       Fade_b
     0001776F  C$Fade_b.c$90$3_0$160              Fade_b
     00017770  A$Fade_b$973                       Fade_b
     00017771  A$Fade_b$974                       Fade_b
     00017774  A$Fade_b$975                       Fade_b
     00017775  A$Fade_b$979                       Fade_b
     00017775  C$Fade_b.c$89$2_0$159              Fade_b
     00017776  A$Fade_b$980                       Fade_b
     00017777  A$Fade_b$981                       Fade_b
     00017778  A$Fade_b$982                       Fade_b
     0001777A  A$Fade_b$990                       Fade_b
     0001777A  C$Fade_b.c$92$2_0$159              Fade_b
     0001777A  XG$FadeOutColor$0$0                Fade_b
     0001777B  A$Fade_b$1011                      Fade_b
     0001777B  C$Fade_b.c$100$1_0$161             Fade_b
     0001777B  C$Fade_b.c$101$1_0$161             Fade_b
     0001777B  C$Fade_b.c$94$2_0$161              Fade_b
     0001777B  G$FadeOut_b$0$0                    Fade_b
     0001777B  XG$FadeOut_b$0$0                   Fade_b
     0001777B  _FadeOut_b                         Fade_b
     0001777E  A$ZGBMain_Init$123                 ZGBMain_Init
     0001777E  C$ZGBMain_Init.c$16$0_0$158        ZGBMain_Init
     0001777E  C$ZGBMain_Init.c$17$1_0$158        ZGBMain_Init
     0001777E  G$InitStates$0$0                   ZGBMain_Init
     0001777E  _InitStates                        ZGBMain_Init
     00017781  A$ZGBMain_Init$124                 ZGBMain_Init
     00017783  A$ZGBMain_Init$125                 ZGBMain_Init
     00017784  A$ZGBMain_Init$126                 ZGBMain_Init
     00017786  A$ZGBMain_Init$127                 ZGBMain_Init
     00017789  A$ZGBMain_Init$128                 ZGBMain_Init
     0001778B  A$ZGBMain_Init$129                 ZGBMain_Init
     0001778C  A$ZGBMain_Init$130                 ZGBMain_Init
     0001778E  A$ZGBMain_Init$131                 ZGBMain_Init
ASxxxx Linker V03.00/V05.40 + sdld,  page 260.
Hexadecimal  [32-Bits]

Area                                    Addr        Size        Decimal Bytes (Attributes)
--------------------------------        ----        ----        ------- ----- ------------
_CODE_1                             00014000    000038C8 =       14536. bytes (REL,CON)

      Value  Global                              Global Defined In Module
      -----  --------------------------------   ------------------------
     00017791  A$ZGBMain_Init$132                 ZGBMain_Init
     00017793  A$ZGBMain_Init$133                 ZGBMain_Init
     00017794  A$ZGBMain_Init$141                 ZGBMain_Init
     00017794  C$ZGBMain_Init.c$18$1_0$158        ZGBMain_Init
     00017794  XG$InitStates$0$0                  ZGBMain_Init
     00017795  A$ZGBMain_Init$154                 ZGBMain_Init
     00017795  C$ZGBMain_Init.c$49$1_0$159        ZGBMain_Init
     00017795  C$ZGBMain_Init.c$50$1_0$159        ZGBMain_Init
     00017795  G$InitSprites$0$0                  ZGBMain_Init
     00017795  _InitSprites                       ZGBMain_Init
     00017797  A$ZGBMain_Init$155                 ZGBMain_Init
     0001779A  A$ZGBMain_Init$156                 ZGBMain_Init
     0001779D  A$ZGBMain_Init$157                 ZGBMain_Init
     0001779F  A$ZGBMain_Init$158                 ZGBMain_Init
     000177A0  A$ZGBMain_Init$159                 ZGBMain_Init
     000177A2  A$ZGBMain_Init$160                 ZGBMain_Init
     000177A5  A$ZGBMain_Init$161                 ZGBMain_Init
     000177A7  A$ZGBMain_Init$162                 ZGBMain_Init
     000177A8  A$ZGBMain_Init$163                 ZGBMain_Init
     000177AA  A$ZGBMain_Init$164                 ZGBMain_Init
     000177AD  A$ZGBMain_Init$165                 ZGBMain_Init
     000177AF  A$ZGBMain_Init$166                 ZGBMain_Init
     000177B0  A$ZGBMain_Init$167                 ZGBMain_Init
     000177B2  A$ZGBMain_Init$168                 ZGBMain_Init
     000177B4  A$ZGBMain_Init$169                 ZGBMain_Init
     000177B7  A$ZGBMain_Init$170                 ZGBMain_Init
     000177BA  A$ZGBMain_Init$171                 ZGBMain_Init
     000177BC  A$ZGBMain_Init$172                 ZGBMain_Init
     000177BD  A$ZGBMain_Init$173                 ZGBMain_Init
     000177BF  A$ZGBMain_Init$174                 ZGBMain_Init
     000177C2  A$ZGBMain_Init$175                 ZGBMain_Init
     000177C4  A$ZGBMain_Init$176                 ZGBMain_Init
     000177C5  A$ZGBMain_Init$177                 ZGBMain_Init
     000177C8  A$ZGBMain_Init$178                 ZGBMain_Init
     000177CA  A$ZGBMain_Init$179                 ZGBMain_Init
     000177CB  A$ZGBMain_Init$180                 ZGBMain_Init
     000177CD  A$ZGBMain_Init$181                 ZGBMain_Init
     000177D0  A$ZGBMain_Init$182                 ZGBMain_Init
     000177D2  A$ZGBMain_Init$183                 ZGBMain_Init
     000177D3  A$ZGBMain_Init$184                 ZGBMain_Init
     000177D5  A$ZGBMain_Init$185                 ZGBMain_Init
     000177D8  A$ZGBMain_Init$186                 ZGBMain_Init
     000177DA  A$ZGBMain_Init$187                 ZGBMain_Init
     000177DB  A$ZGBMain_Init$188                 ZGBMain_Init
     000177DD  A$ZGBMain_Init$189                 ZGBMain_Init
     000177E0  A$ZGBMain_Init$190                 ZGBMain_Init
     000177E2  A$ZGBMain_Init$191                 ZGBMain_Init
     000177E3  A$ZGBMain_Init$192                 ZGBMain_Init
     000177E6  A$ZGBMain_Init$193                 ZGBMain_Init
     000177E8  A$ZGBMain_Init$194                 ZGBMain_Init
     000177E9  A$ZGBMain_Init$195                 ZGBMain_Init
ASxxxx Linker V03.00/V05.40 + sdld,  page 261.
Hexadecimal  [32-Bits]

Area                                    Addr        Size        Decimal Bytes (Attributes)
--------------------------------        ----        ----        ------- ----- ------------
_CODE_1                             00014000    000038C8 =       14536. bytes (REL,CON)

      Value  Global                              Global Defined In Module
      -----  --------------------------------   ------------------------
     000177EB  A$ZGBMain_Init$196                 ZGBMain_Init
     000177EE  A$ZGBMain_Init$197                 ZGBMain_Init
     000177F0  A$ZGBMain_Init$198                 ZGBMain_Init
     000177F1  A$ZGBMain_Init$199                 ZGBMain_Init
     000177F4  A$ZGBMain_Init$200                 ZGBMain_Init
     000177F6  A$ZGBMain_Init$201                 ZGBMain_Init
     000177F7  A$ZGBMain_Init$202                 ZGBMain_Init
     000177F9  A$ZGBMain_Init$203                 ZGBMain_Init
     000177FC  A$ZGBMain_Init$204                 ZGBMain_Init
     000177FE  A$ZGBMain_Init$205                 ZGBMain_Init
     000177FF  A$ZGBMain_Init$206                 ZGBMain_Init
     00017801  A$ZGBMain_Init$207                 ZGBMain_Init
     00017804  A$ZGBMain_Init$208                 ZGBMain_Init
     00017806  A$ZGBMain_Init$209                 ZGBMain_Init
     00017807  A$ZGBMain_Init$210                 ZGBMain_Init
     00017809  A$ZGBMain_Init$211                 ZGBMain_Init
     0001780C  A$ZGBMain_Init$212                 ZGBMain_Init
     0001780E  A$ZGBMain_Init$213                 ZGBMain_Init
     0001780F  A$ZGBMain_Init$214                 ZGBMain_Init
     00017812  A$ZGBMain_Init$215                 ZGBMain_Init
     00017814  A$ZGBMain_Init$216                 ZGBMain_Init
     00017815  A$ZGBMain_Init$217                 ZGBMain_Init
     00017817  A$ZGBMain_Init$218                 ZGBMain_Init
     0001781A  A$ZGBMain_Init$219                 ZGBMain_Init
     0001781C  A$ZGBMain_Init$220                 ZGBMain_Init
     0001781D  A$ZGBMain_Init$221                 ZGBMain_Init
     00017820  A$ZGBMain_Init$222                 ZGBMain_Init
     00017822  A$ZGBMain_Init$223                 ZGBMain_Init
     00017823  A$ZGBMain_Init$224                 ZGBMain_Init
     00017825  A$ZGBMain_Init$225                 ZGBMain_Init
     00017828  A$ZGBMain_Init$226                 ZGBMain_Init
     0001782A  A$ZGBMain_Init$227                 ZGBMain_Init
     0001782B  A$ZGBMain_Init$228                 ZGBMain_Init
     0001782D  A$ZGBMain_Init$229                 ZGBMain_Init
     00017830  A$ZGBMain_Init$230                 ZGBMain_Init
     00017832  A$ZGBMain_Init$231                 ZGBMain_Init
     00017833  A$ZGBMain_Init$232                 ZGBMain_Init
     00017835  A$ZGBMain_Init$233                 ZGBMain_Init
     00017838  A$ZGBMain_Init$234                 ZGBMain_Init
     0001783A  A$ZGBMain_Init$235                 ZGBMain_Init
     0001783B  A$ZGBMain_Init$236                 ZGBMain_Init
     0001783E  A$ZGBMain_Init$237                 ZGBMain_Init
     00017840  A$ZGBMain_Init$238                 ZGBMain_Init
     00017841  A$ZGBMain_Init$239                 ZGBMain_Init
     00017843  A$ZGBMain_Init$240                 ZGBMain_Init
     00017846  A$ZGBMain_Init$241                 ZGBMain_Init
     00017848  A$ZGBMain_Init$242                 ZGBMain_Init
     00017849  A$ZGBMain_Init$243                 ZGBMain_Init
     0001784C  A$ZGBMain_Init$244                 ZGBMain_Init
     0001784E  A$ZGBMain_Init$245                 ZGBMain_Init
     0001784F  A$ZGBMain_Init$246                 ZGBMain_Init
ASxxxx Linker V03.00/V05.40 + sdld,  page 262.
Hexadecimal  [32-Bits]

Area                                    Addr        Size        Decimal Bytes (Attributes)
--------------------------------        ----        ----        ------- ----- ------------
_CODE_1                             00014000    000038C8 =       14536. bytes (REL,CON)

      Value  Global                              Global Defined In Module
      -----  --------------------------------   ------------------------
     00017851  A$ZGBMain_Init$247                 ZGBMain_Init
     00017854  A$ZGBMain_Init$248                 ZGBMain_Init
     00017856  A$ZGBMain_Init$249                 ZGBMain_Init
     00017857  A$ZGBMain_Init$250                 ZGBMain_Init
     00017859  A$ZGBMain_Init$251                 ZGBMain_Init
     0001785C  A$ZGBMain_Init$252                 ZGBMain_Init
     0001785E  A$ZGBMain_Init$253                 ZGBMain_Init
     0001785F  A$ZGBMain_Init$254                 ZGBMain_Init
     00017861  A$ZGBMain_Init$255                 ZGBMain_Init
     00017864  A$ZGBMain_Init$256                 ZGBMain_Init
     00017866  A$ZGBMain_Init$257                 ZGBMain_Init
     00017867  A$ZGBMain_Init$258                 ZGBMain_Init
     0001786A  A$ZGBMain_Init$259                 ZGBMain_Init
     0001786C  A$ZGBMain_Init$260                 ZGBMain_Init
     0001786D  A$ZGBMain_Init$261                 ZGBMain_Init
     0001786F  A$ZGBMain_Init$262                 ZGBMain_Init
     00017872  A$ZGBMain_Init$263                 ZGBMain_Init
     00017874  A$ZGBMain_Init$264                 ZGBMain_Init
     00017875  A$ZGBMain_Init$265                 ZGBMain_Init
     00017878  A$ZGBMain_Init$266                 ZGBMain_Init
     0001787A  A$ZGBMain_Init$267                 ZGBMain_Init
     0001787B  A$ZGBMain_Init$268                 ZGBMain_Init
     0001787D  A$ZGBMain_Init$269                 ZGBMain_Init
     00017880  A$ZGBMain_Init$270                 ZGBMain_Init
     00017882  A$ZGBMain_Init$271                 ZGBMain_Init
     00017883  A$ZGBMain_Init$272                 ZGBMain_Init
     00017885  A$ZGBMain_Init$273                 ZGBMain_Init
     00017888  A$ZGBMain_Init$274                 ZGBMain_Init
     0001788A  A$ZGBMain_Init$275                 ZGBMain_Init
     0001788B  A$ZGBMain_Init$276                 ZGBMain_Init
     0001788D  A$ZGBMain_Init$277                 ZGBMain_Init
     00017890  A$ZGBMain_Init$278                 ZGBMain_Init
     00017892  A$ZGBMain_Init$279                 ZGBMain_Init
     00017893  A$ZGBMain_Init$280                 ZGBMain_Init
     00017896  A$ZGBMain_Init$281                 ZGBMain_Init
     00017898  A$ZGBMain_Init$282                 ZGBMain_Init
     00017899  A$ZGBMain_Init$283                 ZGBMain_Init
     0001789B  A$ZGBMain_Init$284                 ZGBMain_Init
     0001789E  A$ZGBMain_Init$285                 ZGBMain_Init
     000178A0  A$ZGBMain_Init$286                 ZGBMain_Init
     000178A1  A$ZGBMain_Init$287                 ZGBMain_Init
     000178A4  A$ZGBMain_Init$288                 ZGBMain_Init
     000178A6  A$ZGBMain_Init$289                 ZGBMain_Init
     000178A7  A$ZGBMain_Init$290                 ZGBMain_Init
     000178A9  A$ZGBMain_Init$291                 ZGBMain_Init
     000178AC  A$ZGBMain_Init$292                 ZGBMain_Init
     000178AE  A$ZGBMain_Init$293                 ZGBMain_Init
     000178AF  A$ZGBMain_Init$294                 ZGBMain_Init
     000178B1  A$ZGBMain_Init$295                 ZGBMain_Init
     000178B4  A$ZGBMain_Init$296                 ZGBMain_Init
     000178B6  A$ZGBMain_Init$297                 ZGBMain_Init
ASxxxx Linker V03.00/V05.40 + sdld,  page 263.
Hexadecimal  [32-Bits]

Area                                    Addr        Size        Decimal Bytes (Attributes)
--------------------------------        ----        ----        ------- ----- ------------
_CODE_1                             00014000    000038C8 =       14536. bytes (REL,CON)

      Value  Global                              Global Defined In Module
      -----  --------------------------------   ------------------------
     000178B7  A$ZGBMain_Init$298                 ZGBMain_Init
     000178B9  A$ZGBMain_Init$299                 ZGBMain_Init
     000178BC  A$ZGBMain_Init$300                 ZGBMain_Init
     000178BE  A$ZGBMain_Init$301                 ZGBMain_Init
     000178BF  A$ZGBMain_Init$302                 ZGBMain_Init
     000178C2  A$ZGBMain_Init$303                 ZGBMain_Init
     000178C4  A$ZGBMain_Init$304                 ZGBMain_Init
     000178C5  A$ZGBMain_Init$305                 ZGBMain_Init
     000178C7  A$ZGBMain_Init$313                 ZGBMain_Init
     000178C7  C$ZGBMain_Init.c$51$1_0$159        ZGBMain_Init
     000178C7  XG$InitSprites$0$0                 ZGBMain_Init

ASxxxx Linker V03.00/V05.40 + sdld,  page 264.
Hexadecimal  [32-Bits]

Area                                    Addr        Size        Decimal Bytes (Attributes)
--------------------------------        ----        ----        ------- ----- ------------
_CODE_3                             00034000    00000B1A =        2842. bytes (REL,CON)

      Value  Global                              Global Defined In Module
      -----  --------------------------------   ------------------------
     00034000  G$hudtatkflame_tiles$0_0$0         hudtatkflame_gbr
     00034000  _hudtatkflame_tiles                hudtatkflame_gbr
     00034180  G$hudtatkflame$0_0$0               hudtatkflame_gbr
     00034180  _hudtatkflame                      hudtatkflame_gbr
     00034188  G$hudtatkgas_tiles$0_0$0           hudtatkgas_gbr
     00034188  _hudtatkgas_tiles                  hudtatkgas_gbr
     00034308  G$hudtatkgas$0_0$0                 hudtatkgas_gbr
     00034308  _hudtatkgas                        hudtatkgas_gbr
     00034310  G$hudtatkgladio_tiles$0_0$0        hudtatkgladio_gbr
     00034310  _hudtatkgladio_tiles               hudtatkgladio_gbr
     00034490  G$hudtatkgladio$0_0$0              hudtatkgladio_gbr
     00034490  _hudtatkgladio                     hudtatkgladio_gbr
     00034498  G$hudtatklance_tiles$0_0$0         hudtatklance_gbr
     00034498  _hudtatklance_tiles                hudtatklance_gbr
     00034618  G$hudtatklance$0_0$0               hudtatklance_gbr
     00034618  _hudtatklance                      hudtatklance_gbr
     00034620  G$hudtdifshield_tiles$0_0$0        hudtdifshield_gbr
     00034620  _hudtdifshield_tiles               hudtdifshield_gbr
     000347E0  G$hudtdifshield$0_0$0              hudtdifshield_gbr
     000347E0  _hudtdifshield                     hudtdifshield_gbr
     000347E8  C$camera.gbr.c$9$0_0$161           camera_gbr
     000347E8  G$__func_camera$0$0                camera_gbr
     000347E8  G$camera_palettes$0_0$0            camera_gbr
     000347E8  ___func_camera                     camera_gbr
     000347E8  _camera_palettes                   camera_gbr
     000347F0  G$camera_tiles$0_0$0               camera_gbr
     000347F0  _camera_tiles                      camera_gbr
     00034810  G$camera_metasprite0$0_0$0         camera_gbr
     00034810  _camera_metasprite0                camera_gbr
     00034814  G$camera_metasprite1$0_0$0         camera_gbr
     00034814  _camera_metasprite1                camera_gbr
     0003481C  G$camera_metasprites$0_0$0         camera_gbr
     0003481C  _camera_metasprites                camera_gbr
     00034820  G$camera$0_0$0                     camera_gbr
     00034820  _camera                            camera_gbr
     0003482B  C$compass.gbr.c$9$0_0$161          compass_gbr
     0003482B  G$__func_compass$0$0               compass_gbr
     0003482B  G$compass_palettes$0_0$0           compass_gbr
     0003482B  ___func_compass                    compass_gbr
     0003482B  _compass_palettes                  compass_gbr
     00034833  G$compass_tiles$0_0$0              compass_gbr
     00034833  _compass_tiles                     compass_gbr
     000348D3  G$compass_metasprite0$0_0$0        compass_gbr
     000348D3  _compass_metasprite0               compass_gbr
     000348DF  G$compass_metasprite1$0_0$0        compass_gbr
     000348DF  _compass_metasprite1               compass_gbr
     000348EB  G$compass_metasprite2$0_0$0        compass_gbr
     000348EB  _compass_metasprite2               compass_gbr
     000348F7  G$compass_metasprite3$0_0$0        compass_gbr
     000348F7  _compass_metasprite3               compass_gbr
ASxxxx Linker V03.00/V05.40 + sdld,  page 265.
Hexadecimal  [32-Bits]

Area                                    Addr        Size        Decimal Bytes (Attributes)
--------------------------------        ----        ----        ------- ----- ------------
_CODE_3                             00034000    00000B1A =        2842. bytes (REL,CON)

      Value  Global                              Global Defined In Module
      -----  --------------------------------   ------------------------
     00034903  G$compass_metasprites$0_0$0        compass_gbr
     00034903  _compass_metasprites               compass_gbr
     0003490B  G$compass$0_0$0                    compass_gbr
     0003490B  _compass                           compass_gbr
     00034916  C$step.gbr.c$9$0_0$161             step_gbr
     00034916  G$__func_step$0$0                  step_gbr
     00034916  G$step_palettes$0_0$0              step_gbr
     00034916  ___func_step                       step_gbr
     00034916  _step_palettes                     step_gbr
     0003491E  G$step_tiles$0_0$0                 step_gbr
     0003491E  _step_tiles                        step_gbr
     0003493E  G$step_metasprite0$0_0$0           step_gbr
     0003493E  _step_metasprite0                  step_gbr
     00034946  G$step_metasprites$0_0$0           step_gbr
     00034946  _step_metasprites                  step_gbr
     00034948  G$step$0_0$0                       step_gbr
     00034948  _step                              step_gbr
     00034953  A$SpriteCamera$58                  SpriteCamera
     00034953  C$SpriteCamera.c$11$0_0$177        SpriteCamera
     00034953  C$SpriteCamera.c$12$1_0$177        SpriteCamera
     00034953  G$Start_SpriteCamera$0$0           SpriteCamera
     00034953  _Start_SpriteCamera                SpriteCamera
     00034956  A$SpriteCamera$59                  SpriteCamera
     00034957  A$SpriteCamera$60                  SpriteCamera
     00034958  A$SpriteCamera$61                  SpriteCamera
     00034959  A$SpriteCamera$62                  SpriteCamera
     0003495C  A$SpriteCamera$63                  SpriteCamera
     0003495D  A$SpriteCamera$64                  SpriteCamera
     0003495F  A$SpriteCamera$65                  SpriteCamera
     00034960  A$SpriteCamera$66                  SpriteCamera
     00034962  A$SpriteCamera$70                  SpriteCamera
     00034962  C$SpriteCamera.c$13$1_0$177        SpriteCamera
     00034965  A$SpriteCamera$71                  SpriteCamera
     00034966  A$SpriteCamera$72                  SpriteCamera
     00034967  A$SpriteCamera$73                  SpriteCamera
     00034968  A$SpriteCamera$74                  SpriteCamera
     0003496B  A$SpriteCamera$75                  SpriteCamera
     0003496C  A$SpriteCamera$76                  SpriteCamera
     0003496E  A$SpriteCamera$77                  SpriteCamera
     0003496F  A$SpriteCamera$78                  SpriteCamera
     00034971  A$SpriteCamera$86                  SpriteCamera
     00034971  C$SpriteCamera.c$14$1_0$177        SpriteCamera
     00034971  XG$Start_SpriteCamera$0$0          SpriteCamera
     00034972  A$SpriteCamera$98                  SpriteCamera
     00034972  C$SpriteCamera.c$16$1_0$178        SpriteCamera
     00034972  G$Update_SpriteCamera$0$0          SpriteCamera
     00034972  _Update_SpriteCamera               SpriteCamera
     00034974  A$SpriteCamera$102                 SpriteCamera
     00034974  C$SpriteCamera.c$17$1_0$178        SpriteCamera
     00034977  A$SpriteCamera$103                 SpriteCamera
     00034978  A$SpriteCamera$104                 SpriteCamera
ASxxxx Linker V03.00/V05.40 + sdld,  page 266.
Hexadecimal  [32-Bits]

Area                                    Addr        Size        Decimal Bytes (Attributes)
--------------------------------        ----        ----        ------- ----- ------------
_CODE_3                             00034000    00000B1A =        2842. bytes (REL,CON)

      Value  Global                              Global Defined In Module
      -----  --------------------------------   ------------------------
     00034979  A$SpriteCamera$105                 SpriteCamera
     0003497B  A$SpriteCamera$106                 SpriteCamera
     0003497C  A$SpriteCamera$107                 SpriteCamera
     0003497E  A$SpriteCamera$108                 SpriteCamera
     0003497F  A$SpriteCamera$110                 SpriteCamera
     00034982  A$SpriteCamera$111                 SpriteCamera
     00034983  A$SpriteCamera$112                 SpriteCamera
     00034984  A$SpriteCamera$113                 SpriteCamera
     00034985  A$SpriteCamera$114                 SpriteCamera
     00034988  A$SpriteCamera$115                 SpriteCamera
     00034989  A$SpriteCamera$116                 SpriteCamera
     0003498A  A$SpriteCamera$117                 SpriteCamera
     0003498B  A$SpriteCamera$119                 SpriteCamera
     0003498D  A$SpriteCamera$120                 SpriteCamera
     0003498E  A$SpriteCamera$121                 SpriteCamera
     0003498F  A$SpriteCamera$122                 SpriteCamera
     00034991  A$SpriteCamera$123                 SpriteCamera
     00034992  A$SpriteCamera$124                 SpriteCamera
     00034993  A$SpriteCamera$125                 SpriteCamera
     00034994  A$SpriteCamera$126                 SpriteCamera
     00034995  A$SpriteCamera$127                 SpriteCamera
     00034996  A$SpriteCamera$128                 SpriteCamera
     00034997  A$SpriteCamera$132                 SpriteCamera
     00034997  C$SpriteCamera.c$18$2_0$179        SpriteCamera
     00034999  A$SpriteCamera$133                 SpriteCamera
     0003499B  A$SpriteCamera$137                 SpriteCamera
     0003499B  C$SpriteCamera.c$17$1_2$178        SpriteCamera
     0003499E  A$SpriteCamera$138                 SpriteCamera
     0003499F  A$SpriteCamera$139                 SpriteCamera
     000349A0  A$SpriteCamera$140                 SpriteCamera
     000349A1  A$SpriteCamera$141                 SpriteCamera
     000349A4  A$SpriteCamera$142                 SpriteCamera
     000349A5  A$SpriteCamera$143                 SpriteCamera
     000349A6  A$SpriteCamera$147                 SpriteCamera
     000349A8  A$SpriteCamera$148                 SpriteCamera
     000349A9  A$SpriteCamera$149                 SpriteCamera
     000349AB  A$SpriteCamera$150                 SpriteCamera
     000349AC  A$SpriteCamera$155                 SpriteCamera
     000349AF  A$SpriteCamera$156                 SpriteCamera
     000349B0  A$SpriteCamera$157                 SpriteCamera
     000349B1  A$SpriteCamera$158                 SpriteCamera
     000349B2  A$SpriteCamera$159                 SpriteCamera
     000349B4  A$SpriteCamera$160                 SpriteCamera
     000349B5  A$SpriteCamera$161                 SpriteCamera
     000349B6  A$SpriteCamera$162                 SpriteCamera
     000349B7  A$SpriteCamera$163                 SpriteCamera
     000349B9  A$SpriteCamera$167                 SpriteCamera
     000349B9  C$SpriteCamera.c$20$1_2$178        SpriteCamera
     000349BA  A$SpriteCamera$168                 SpriteCamera
     000349BB  A$SpriteCamera$169                 SpriteCamera
     000349BC  A$SpriteCamera$170                 SpriteCamera
ASxxxx Linker V03.00/V05.40 + sdld,  page 267.
Hexadecimal  [32-Bits]

Area                                    Addr        Size        Decimal Bytes (Attributes)
--------------------------------        ----        ----        ------- ----- ------------
_CODE_3                             00034000    00000B1A =        2842. bytes (REL,CON)

      Value  Global                              Global Defined In Module
      -----  --------------------------------   ------------------------
     000349BD  A$SpriteCamera$171                 SpriteCamera
     000349BE  A$SpriteCamera$172                 SpriteCamera
     000349BF  A$SpriteCamera$173                 SpriteCamera
     000349C0  A$SpriteCamera$177                 SpriteCamera
     000349C0  C$SpriteCamera.c$23$1_2$178        SpriteCamera
     000349C1  A$SpriteCamera$178                 SpriteCamera
     000349C2  A$SpriteCamera$179                 SpriteCamera
     000349C3  A$SpriteCamera$180                 SpriteCamera
     000349C4  A$SpriteCamera$181                 SpriteCamera
     000349C5  A$SpriteCamera$182                 SpriteCamera
     000349C6  A$SpriteCamera$183                 SpriteCamera
     000349C7  A$SpriteCamera$184                 SpriteCamera
     000349C9  A$SpriteCamera$185                 SpriteCamera
     000349CA  A$SpriteCamera$186                 SpriteCamera
     000349CB  A$SpriteCamera$187                 SpriteCamera
     000349CC  A$SpriteCamera$188                 SpriteCamera
     000349CD  A$SpriteCamera$192                 SpriteCamera
     000349CD  C$SpriteCamera.c$19$1_1$179        SpriteCamera
     000349D0  A$SpriteCamera$193                 SpriteCamera
     000349D1  A$SpriteCamera$194                 SpriteCamera
     000349D3  A$SpriteCamera$195                 SpriteCamera
     000349D4  A$SpriteCamera$196                 SpriteCamera
     000349D5  A$SpriteCamera$197                 SpriteCamera
     000349D7  A$SpriteCamera$198                 SpriteCamera
     000349D9  A$SpriteCamera$199                 SpriteCamera
     000349DB  A$SpriteCamera$200                 SpriteCamera
     000349DD  A$SpriteCamera$201                 SpriteCamera
     000349DE  A$SpriteCamera$202                 SpriteCamera
     000349E0  A$SpriteCamera$204                 SpriteCamera
     000349E2  A$SpriteCamera$205                 SpriteCamera
     000349E4  A$SpriteCamera$206                 SpriteCamera
     000349E5  A$SpriteCamera$208                 SpriteCamera
     000349E7  A$SpriteCamera$212                 SpriteCamera
     000349E7  C$SpriteCamera.c$20$2_1$180        SpriteCamera
     000349E9  A$SpriteCamera$213                 SpriteCamera
     000349EA  A$SpriteCamera$214                 SpriteCamera
     000349EB  A$SpriteCamera$215                 SpriteCamera
     000349EC  A$SpriteCamera$216                 SpriteCamera
     000349EF  A$SpriteCamera$217                 SpriteCamera
     000349F0  A$SpriteCamera$218                 SpriteCamera
     000349F1  A$SpriteCamera$219                 SpriteCamera
     000349F2  A$SpriteCamera$223                 SpriteCamera
     000349F2  C$SpriteCamera.c$21$2_1$180        SpriteCamera
     000349F3  A$SpriteCamera$224                 SpriteCamera
     000349F5  A$SpriteCamera$225                 SpriteCamera
     000349F6  A$SpriteCamera$226                 SpriteCamera
     000349F7  A$SpriteCamera$227                 SpriteCamera
     000349F9  A$SpriteCamera$228                 SpriteCamera
     000349FA  A$SpriteCamera$232                 SpriteCamera
     000349FA  C$SpriteCamera.c$22$2_1$180        SpriteCamera
     000349FD  A$SpriteCamera$233                 SpriteCamera
ASxxxx Linker V03.00/V05.40 + sdld,  page 268.
Hexadecimal  [32-Bits]

Area                                    Addr        Size        Decimal Bytes (Attributes)
--------------------------------        ----        ----        ------- ----- ------------
_CODE_3                             00034000    00000B1A =        2842. bytes (REL,CON)

      Value  Global                              Global Defined In Module
      -----  --------------------------------   ------------------------
     000349FE  A$SpriteCamera$234                 SpriteCamera
     000349FF  A$SpriteCamera$235                 SpriteCamera
     00034A00  A$SpriteCamera$239                 SpriteCamera
     00034A00  C$SpriteCamera.c$23$2_1$180        SpriteCamera
     00034A02  A$SpriteCamera$240                 SpriteCamera
     00034A03  A$SpriteCamera$241                 SpriteCamera
     00034A04  A$SpriteCamera$242                 SpriteCamera
     00034A05  A$SpriteCamera$243                 SpriteCamera
     00034A06  A$SpriteCamera$244                 SpriteCamera
     00034A07  A$SpriteCamera$245                 SpriteCamera
     00034A09  A$SpriteCamera$246                 SpriteCamera
     00034A0B  A$SpriteCamera$247                 SpriteCamera
     00034A0D  A$SpriteCamera$248                 SpriteCamera
     00034A0F  A$SpriteCamera$253                 SpriteCamera
     00034A0F  C$SpriteCamera.c$24$2_1$180        SpriteCamera
     00034A11  A$SpriteCamera$254                 SpriteCamera
     00034A12  A$SpriteCamera$255                 SpriteCamera
     00034A13  A$SpriteCamera$256                 SpriteCamera
     00034A14  A$SpriteCamera$257                 SpriteCamera
     00034A15  A$SpriteCamera$258                 SpriteCamera
     00034A17  A$SpriteCamera$259                 SpriteCamera
     00034A19  A$SpriteCamera$260                 SpriteCamera
     00034A1B  A$SpriteCamera$265                 SpriteCamera
     00034A1B  C$SpriteCamera.c$26$1_1$179        SpriteCamera
     00034A1E  A$SpriteCamera$266                 SpriteCamera
     00034A20  A$SpriteCamera$267                 SpriteCamera
     00034A22  A$SpriteCamera$268                 SpriteCamera
     00034A24  A$SpriteCamera$272                 SpriteCamera
     00034A24  C$SpriteCamera.c$27$2_1$183        SpriteCamera
     00034A26  A$SpriteCamera$273                 SpriteCamera
     00034A27  A$SpriteCamera$274                 SpriteCamera
     00034A28  A$SpriteCamera$275                 SpriteCamera
     00034A29  A$SpriteCamera$276                 SpriteCamera
     00034A2C  A$SpriteCamera$277                 SpriteCamera
     00034A2D  A$SpriteCamera$278                 SpriteCamera
     00034A2E  A$SpriteCamera$279                 SpriteCamera
     00034A2F  A$SpriteCamera$280                 SpriteCamera
     00034A30  A$SpriteCamera$281                 SpriteCamera
     00034A31  A$SpriteCamera$282                 SpriteCamera
     00034A32  A$SpriteCamera$283                 SpriteCamera
     00034A33  A$SpriteCamera$287                 SpriteCamera
     00034A33  C$SpriteCamera.c$28$2_1$183        SpriteCamera
     00034A34  A$SpriteCamera$288                 SpriteCamera
     00034A36  A$SpriteCamera$289                 SpriteCamera
     00034A37  A$SpriteCamera$290                 SpriteCamera
     00034A38  A$SpriteCamera$291                 SpriteCamera
     00034A3A  A$SpriteCamera$292                 SpriteCamera
     00034A3B  A$SpriteCamera$296                 SpriteCamera
     00034A3B  C$SpriteCamera.c$29$2_1$183        SpriteCamera
     00034A3D  A$SpriteCamera$297                 SpriteCamera
     00034A3E  A$SpriteCamera$298                 SpriteCamera
ASxxxx Linker V03.00/V05.40 + sdld,  page 269.
Hexadecimal  [32-Bits]

Area                                    Addr        Size        Decimal Bytes (Attributes)
--------------------------------        ----        ----        ------- ----- ------------
_CODE_3                             00034000    00000B1A =        2842. bytes (REL,CON)

      Value  Global                              Global Defined In Module
      -----  --------------------------------   ------------------------
     00034A3F  A$SpriteCamera$299                 SpriteCamera
     00034A40  A$SpriteCamera$303                 SpriteCamera
     00034A40  C$SpriteCamera.c$30$2_1$183        SpriteCamera
     00034A42  A$SpriteCamera$304                 SpriteCamera
     00034A43  A$SpriteCamera$305                 SpriteCamera
     00034A44  A$SpriteCamera$306                 SpriteCamera
     00034A45  A$SpriteCamera$307                 SpriteCamera
     00034A46  A$SpriteCamera$308                 SpriteCamera
     00034A47  A$SpriteCamera$309                 SpriteCamera
     00034A49  A$SpriteCamera$310                 SpriteCamera
     00034A4B  A$SpriteCamera$311                 SpriteCamera
     00034A4D  A$SpriteCamera$312                 SpriteCamera
     00034A4F  A$SpriteCamera$317                 SpriteCamera
     00034A4F  C$SpriteCamera.c$31$2_1$183        SpriteCamera
     00034A51  A$SpriteCamera$318                 SpriteCamera
     00034A52  A$SpriteCamera$319                 SpriteCamera
     00034A53  A$SpriteCamera$320                 SpriteCamera
     00034A54  A$SpriteCamera$321                 SpriteCamera
     00034A55  A$SpriteCamera$322                 SpriteCamera
     00034A57  A$SpriteCamera$323                 SpriteCamera
     00034A59  A$SpriteCamera$324                 SpriteCamera
     00034A5B  A$SpriteCamera$329                 SpriteCamera
     00034A5B  C$SpriteCamera.c$33$1_2$186        SpriteCamera
     00034A5D  A$SpriteCamera$330                 SpriteCamera
     00034A5E  A$SpriteCamera$331                 SpriteCamera
     00034A5F  A$SpriteCamera$332                 SpriteCamera
     00034A60  A$SpriteCamera$333                 SpriteCamera
     00034A62  A$SpriteCamera$334                 SpriteCamera
     00034A63  A$SpriteCamera$335                 SpriteCamera
     00034A64  A$SpriteCamera$336                 SpriteCamera
     00034A65  A$SpriteCamera$337                 SpriteCamera
     00034A66  A$SpriteCamera$338                 SpriteCamera
     00034A67  A$SpriteCamera$339                 SpriteCamera
     00034A68  A$SpriteCamera$340                 SpriteCamera
     00034A69  A$SpriteCamera$341                 SpriteCamera
     00034A6A  A$SpriteCamera$342                 SpriteCamera
     00034A6B  A$SpriteCamera$343                 SpriteCamera
     00034A6C  A$SpriteCamera$347                 SpriteCamera
     00034A6C  C$SpriteCamera.c$34$1_2$186        SpriteCamera
     00034A6D  A$SpriteCamera$348                 SpriteCamera
     00034A6F  A$SpriteCamera$349                 SpriteCamera
     00034A70  A$SpriteCamera$350                 SpriteCamera
     00034A71  A$SpriteCamera$351                 SpriteCamera
     00034A72  A$SpriteCamera$352                 SpriteCamera
     00034A73  A$SpriteCamera$353                 SpriteCamera
     00034A75  A$SpriteCamera$354                 SpriteCamera
     00034A77  A$SpriteCamera$355                 SpriteCamera
     00034A78  A$SpriteCamera$356                 SpriteCamera
     00034A7A  A$SpriteCamera$357                 SpriteCamera
     00034A7C  A$SpriteCamera$358                 SpriteCamera
     00034A7D  A$SpriteCamera$359                 SpriteCamera
ASxxxx Linker V03.00/V05.40 + sdld,  page 270.
Hexadecimal  [32-Bits]

Area                                    Addr        Size        Decimal Bytes (Attributes)
--------------------------------        ----        ----        ------- ----- ------------
_CODE_3                             00034000    00000B1A =        2842. bytes (REL,CON)

      Value  Global                              Global Defined In Module
      -----  --------------------------------   ------------------------
     00034A7F  A$SpriteCamera$360                 SpriteCamera
     00034A80  A$SpriteCamera$361                 SpriteCamera
     00034A82  A$SpriteCamera$362                 SpriteCamera
     00034A84  A$SpriteCamera$363                 SpriteCamera
     00034A86  A$SpriteCamera$364                 SpriteCamera
     00034A88  A$SpriteCamera$365                 SpriteCamera
     00034A89  A$SpriteCamera$366                 SpriteCamera
     00034A8B  A$SpriteCamera$368                 SpriteCamera
     00034A8D  A$SpriteCamera$369                 SpriteCamera
     00034A8F  A$SpriteCamera$370                 SpriteCamera
     00034A90  A$SpriteCamera$372                 SpriteCamera
     00034A92  A$SpriteCamera$376                 SpriteCamera
     00034A92  C$SpriteCamera.c$35$2_2$187        SpriteCamera
     00034A94  A$SpriteCamera$377                 SpriteCamera
     00034A95  A$SpriteCamera$378                 SpriteCamera
     00034A96  A$SpriteCamera$379                 SpriteCamera
     00034A97  A$SpriteCamera$380                 SpriteCamera
     00034A98  A$SpriteCamera$381                 SpriteCamera
     00034A99  A$SpriteCamera$382                 SpriteCamera
     00034A9B  A$SpriteCamera$383                 SpriteCamera
     00034A9C  A$SpriteCamera$384                 SpriteCamera
     00034A9D  A$SpriteCamera$385                 SpriteCamera
     00034A9E  A$SpriteCamera$386                 SpriteCamera
     00034A9F  A$SpriteCamera$387                 SpriteCamera
     00034AA0  A$SpriteCamera$388                 SpriteCamera
     00034AA1  A$SpriteCamera$389                 SpriteCamera
     00034AA3  A$SpriteCamera$390                 SpriteCamera
     00034AA4  A$SpriteCamera$391                 SpriteCamera
     00034AA5  A$SpriteCamera$392                 SpriteCamera
     00034AA6  A$SpriteCamera$393                 SpriteCamera
     00034AA7  A$SpriteCamera$394                 SpriteCamera
     00034AA8  A$SpriteCamera$395                 SpriteCamera
     00034AA9  A$SpriteCamera$396                 SpriteCamera
     00034AAB  A$SpriteCamera$401                 SpriteCamera
     00034AAB  C$SpriteCamera.c$36$2_2$188        SpriteCamera
     00034AAE  A$SpriteCamera$402                 SpriteCamera
     00034AAF  A$SpriteCamera$403                 SpriteCamera
     00034AB0  A$SpriteCamera$404                 SpriteCamera
     00034AB1  A$SpriteCamera$405                 SpriteCamera
     00034AB2  A$SpriteCamera$406                 SpriteCamera
     00034AB4  A$SpriteCamera$407                 SpriteCamera
     00034AB5  A$SpriteCamera$408                 SpriteCamera
     00034AB6  A$SpriteCamera$409                 SpriteCamera
     00034AB7  A$SpriteCamera$410                 SpriteCamera
     00034AB8  A$SpriteCamera$411                 SpriteCamera
     00034AB9  A$SpriteCamera$412                 SpriteCamera
     00034ABA  A$SpriteCamera$413                 SpriteCamera
     00034ABC  A$SpriteCamera$414                 SpriteCamera
     00034ABD  A$SpriteCamera$415                 SpriteCamera
     00034ABE  A$SpriteCamera$416                 SpriteCamera
     00034ABF  A$SpriteCamera$417                 SpriteCamera
ASxxxx Linker V03.00/V05.40 + sdld,  page 271.
Hexadecimal  [32-Bits]

Area                                    Addr        Size        Decimal Bytes (Attributes)
--------------------------------        ----        ----        ------- ----- ------------
_CODE_3                             00034000    00000B1A =        2842. bytes (REL,CON)

      Value  Global                              Global Defined In Module
      -----  --------------------------------   ------------------------
     00034AC0  A$SpriteCamera$418                 SpriteCamera
     00034AC1  A$SpriteCamera$419                 SpriteCamera
     00034AC2  A$SpriteCamera$424                 SpriteCamera
     00034AC4  A$SpriteCamera$429                 SpriteCamera
     00034AC4  C$SpriteCamera.c$37$1_2$178        SpriteCamera
     00034AC4  XG$Update_SpriteCamera$0$0         SpriteCamera
     00034AC5  A$SpriteCamera$446                 SpriteCamera
     00034AC5  C$SpriteCamera.c$39$1_2$190        SpriteCamera
     00034AC5  C$SpriteCamera.c$40$1_2$190        SpriteCamera
     00034AC5  G$Destroy_SpriteCamera$0$0         SpriteCamera
     00034AC5  XG$Destroy_SpriteCamera$0$0        SpriteCamera
     00034AC5  _Destroy_SpriteCamera              SpriteCamera
     00034AC6  A$SpriteStep$61                    SpriteStep
     00034AC6  C$SpriteStep.c$11$0_0$164          SpriteStep
     00034AC6  C$SpriteStep.c$12$1_0$164          SpriteStep
     00034AC6  G$Start_SpriteStep$0$0             SpriteStep
     00034AC6  _Start_SpriteStep                  SpriteStep
     00034AC9  A$SpriteStep$62                    SpriteStep
     00034ACA  A$SpriteStep$63                    SpriteStep
     00034ACB  A$SpriteStep$64                    SpriteStep
     00034ACC  A$SpriteStep$65                    SpriteStep
     00034ACF  A$SpriteStep$66                    SpriteStep
     00034AD0  A$SpriteStep$67                    SpriteStep
     00034AD2  A$SpriteStep$68                    SpriteStep
     00034AD3  A$SpriteStep$69                    SpriteStep
     00034AD5  A$SpriteStep$73                    SpriteStep
     00034AD5  C$SpriteStep.c$13$1_0$164          SpriteStep
     00034AD8  A$SpriteStep$74                    SpriteStep
     00034AD9  A$SpriteStep$75                    SpriteStep
     00034ADA  A$SpriteStep$76                    SpriteStep
     00034ADB  A$SpriteStep$77                    SpriteStep
     00034ADE  A$SpriteStep$78                    SpriteStep
     00034ADF  A$SpriteStep$79                    SpriteStep
     00034AE1  A$SpriteStep$80                    SpriteStep
     00034AE2  A$SpriteStep$81                    SpriteStep
     00034AE4  A$SpriteStep$85                    SpriteStep
     00034AE4  C$SpriteStep.c$14$1_0$164          SpriteStep
     00034AE6  A$SpriteStep$86                    SpriteStep
     00034AE7  A$SpriteStep$87                    SpriteStep
     00034AE8  A$SpriteStep$88                    SpriteStep
     00034AEB  A$SpriteStep$89                    SpriteStep
     00034AEE  A$SpriteStep$90                    SpriteStep
     00034AEF  A$SpriteStep$91                    SpriteStep
     00034AF0  A$SpriteStep$92                    SpriteStep
     00034AF1  A$SpriteStep$93                    SpriteStep
     00034AF4  A$SpriteStep$97                    SpriteStep
     00034AF4  C$SpriteStep.c$15$1_1$165          SpriteStep
     00034AF7  A$SpriteStep$98                    SpriteStep
     00034AF8  A$SpriteStep$99                    SpriteStep
     00034AF9  A$SpriteStep$100                   SpriteStep
     00034AFA  A$SpriteStep$104                   SpriteStep
ASxxxx Linker V03.00/V05.40 + sdld,  page 272.
Hexadecimal  [32-Bits]

Area                                    Addr        Size        Decimal Bytes (Attributes)
--------------------------------        ----        ----        ------- ----- ------------
_CODE_3                             00034000    00000B1A =        2842. bytes (REL,CON)

      Value  Global                              Global Defined In Module
      -----  --------------------------------   ------------------------
     00034AFA  C$SpriteStep.c$16$1_1$165          SpriteStep
     00034AFD  A$SpriteStep$105                   SpriteStep
     00034AFE  A$SpriteStep$106                   SpriteStep
     00034B00  A$SpriteStep$114                   SpriteStep
     00034B00  C$SpriteStep.c$17$1_1$164          SpriteStep
     00034B00  XG$Start_SpriteStep$0$0            SpriteStep
     00034B01  G$anim_step$0_0$0                  SpriteStep
     00034B01  _anim_step                         SpriteStep
     00034B03  A$SpriteStep$133                   SpriteStep
     00034B03  C$SpriteStep.c$19$1_1$166          SpriteStep
     00034B03  C$SpriteStep.c$20$1_0$166          SpriteStep
     00034B03  G$Update_SpriteStep$0$0            SpriteStep
     00034B03  _Update_SpriteStep                 SpriteStep
     00034B06  A$SpriteStep$134                   SpriteStep
     00034B07  A$SpriteStep$135                   SpriteStep
     00034B08  A$SpriteStep$136                   SpriteStep
     00034B09  A$SpriteStep$140                   SpriteStep
     00034B09  C$SpriteStep.c$21$1_0$166          SpriteStep
     00034B0C  A$SpriteStep$141                   SpriteStep
     00034B0D  A$SpriteStep$145                   SpriteStep
     00034B0D  C$SpriteStep.c$22$1_0$166          SpriteStep
     00034B0E  A$SpriteStep$146                   SpriteStep
     00034B0F  A$SpriteStep$147                   SpriteStep
     00034B10  A$SpriteStep$151                   SpriteStep
     00034B10  C$SpriteStep.c$23$2_0$167          SpriteStep
     00034B13  A$SpriteStep$152                   SpriteStep
     00034B14  A$SpriteStep$153                   SpriteStep
     00034B15  A$SpriteStep$154                   SpriteStep
     00034B16  A$SpriteStep$162                   SpriteStep
     00034B16  C$SpriteStep.c$25$1_0$166          SpriteStep
     00034B16  XG$Update_SpriteStep$0$0           SpriteStep
     00034B19  A$SpriteStep$179                   SpriteStep
     00034B19  C$SpriteStep.c$27$1_0$169          SpriteStep
     00034B19  C$SpriteStep.c$29$1_0$169          SpriteStep
     00034B19  G$Destroy_SpriteStep$0$0           SpriteStep
     00034B19  XG$Destroy_SpriteStep$0$0          SpriteStep
     00034B19  _Destroy_SpriteStep                SpriteStep
ASxxxx Linker V03.00/V05.40 + sdld,  page 273.
Hexadecimal  [32-Bits]

Area                                    Addr        Size        Decimal Bytes (Attributes)
--------------------------------        ----        ----        ------- ----- ------------
_HEADER_NESTED_TIM0                 00000000    00000006 =           6. bytes (ABS,CON)

      Value  Global                              Global Defined In Module
      -----  --------------------------------   ------------------------
ASxxxx Linker V03.00/V05.40 + sdld,  page 274.
Hexadecimal  [32-Bits]

Area                                    Addr        Size        Decimal Bytes (Attributes)
--------------------------------        ----        ----        ------- ----- ------------
_HEADER_LCD0                        00000000    00000003 =           3. bytes (ABS,CON)

      Value  Global                              Global Defined In Module
      -----  --------------------------------   ------------------------
ASxxxx Linker V03.00/V05.40 + sdld,  page 275.

Files Linked                              [ module(s) ]

C:/ZGB-2023.0/common/../env/gbdk/lib/gb/crt0.o
                                          [ Runtime ]
../Dbg/res/hudm.gbm.rel                   [ hudm_gbm ]
../Dbg/res/map.gbm.rel                    [ map_gbm ]
../Dbg/res/maprome.gbm.rel                [ maprome_gbm ]
../Dbg/res/maprome00.gbm.rel              [ maprome00_gbm ]
../Dbg/res/font.gbr.rel                   [ font_gbr ]
../Dbg/res/hudt.gbr.rel                   [ hudt_gbr ]
../Dbg/res/hudtatkflame.gbr.rel           [ hudtatkflame_gbr ]
../Dbg/res/hudtatkgas.gbr.rel             [ hudtatkgas_gbr ]
../Dbg/res/hudtatkgladio.gbr.rel          [ hudtatkgladio_gbr ]
../Dbg/res/hudtatklance.gbr.rel           [ hudtatklance_gbr ]
../Dbg/res/hudtdifcoat.gbr.rel            [ hudtdifcoat_gbr ]
../Dbg/res/hudtdifelmet.gbr.rel           [ hudtdifelmet_gbr ]
../Dbg/res/hudtdifshield.gbr.rel          [ hudtdifshield_gbr ]
../Dbg/res/mapromet.gbr.rel               [ mapromet_gbr ]
../Dbg/res/tiles.gbr.rel                  [ tiles_gbr ]
../Dbg/res/tilesold.gbr.rel               [ tilesold_gbr ]
../Dbg/res/sprites/biga.gbr.rel           [ biga_gbr ]
../Dbg/res/sprites/camera.gbr.rel         [ camera_gbr ]
../Dbg/res/sprites/compass.gbr.rel        [ compass_gbr ]
../Dbg/res/sprites/fire.gbr.rel           [ fire_gbr ]
../Dbg/res/sprites/horse.gbr.rel          [ horse_gbr ]
../Dbg/res/sprites/horse5frames.gbr.rel   [ horse5frames_gbr ]
../Dbg/res/sprites/horse8frames.gbr.rel   [ horse8frames_gbr ]
../Dbg/res/sprites/oldhorse.gbr.rel       [ oldhorse_gbr ]
../Dbg/res/sprites/player.gbr.rel         [ player_gbr ]
../Dbg/res/sprites/step.gbr.rel           [ step_gbr ]
../Dbg/CircleMath.rel                     [ CircleMath ]
../Dbg/SpriteBiga.rel                     [ SpriteBiga ]
../Dbg/SpriteCamera.rel                   [ SpriteCamera ]
../Dbg/SpriteCompass.rel                  [ SpriteCompass ]
../Dbg/SpriteFire.rel                     [ SpriteFire ]
../Dbg/SpriteHorse.rel                    [ SpriteHorse ]
../Dbg/SpritePlayer.rel                   [ SpritePlayer ]
../Dbg/SpriteStep.rel                     [ SpriteStep ]
../Dbg/StateGame.rel                      [ StateGame ]
../Dbg/ZGBMain.rel                        [ ZGBMain ]
C:/ZGB-2023.0/common/lib/hUGEDriver.obj.o
                                          [ hUGEDriver_obj ]


Libraries Linked                          [ object file ]

C:/ZGB-2023.0/common/../env/gbdk/lib/sm83/sm83.lib
                                          [ div.o ]
../Dbg/zgb/zgb.lib                        [ Sprite.o ]
../Dbg/zgb/zgb.lib                        [ main.o ]
../Dbg/zgb/zgb.lib                        [ Scroll.o ]
../Dbg/zgb/zgb.lib                        [ Fade.o ]
../Dbg/zgb/zgb.lib                        [ Fade_b.o ]
../Dbg/zgb/zgb.lib                        [ Music.o ]
C:/ZGB-2023.0/common/../env/gbdk/lib/gb/gb.lib
                                          [ sfr.o ]
../Dbg/zgb/zgb.lib                        [ BankManager.o ]
C:/ZGB-2023.0/common/../env/gbdk/lib/gb/gb.lib
                                          [ cgb_palettes.o ]
../Dbg/zgb/zgb.lib                        [ ZGBMain_Init.o ]
../Dbg/zgb/zgb.lib                        [ SpriteManager.o ]
../Dbg/zgb/zgb.lib                        [ OAMManager.o ]
C:/ZGB-2023.0/common/../env/gbdk/lib/sm83/sm83.lib
                                          [ mul.o ]
C:/ZGB-2023.0/common/../env/gbdk/lib/gb/gb.lib
                                          [ metasprites_flip.o ]
C:/ZGB-2023.0/common/../env/gbdk/lib/gb/gb.lib
                                          [ set_data.o ]
../Dbg/zgb/zgb.lib                        [ Vector.o ]
C:/ZGB-2023.0/common/../env/gbdk/lib/gb/gb.lib
                                          [ set_tile.o ]
../Dbg/zgb/zgb.lib                        [ Keys.o ]
C:/ZGB-2023.0/common/../env/gbdk/lib/gb/gb.lib
                                          [ tim_nested.o ]
C:/ZGB-2023.0/common/../env/gbdk/lib/gb/gb.lib
                                          [ tim_common.o ]
C:/ZGB-2023.0/common/../env/gbdk/lib/gb/gb.lib
                                          [ pad.o ]
C:/ZGB-2023.0/common/../env/gbdk/lib/gb/gb.lib
                                          [ metasprites.o ]
C:/ZGB-2023.0/common/../env/gbdk/lib/sm83/sm83.lib
                                          [ __sdcc_call_hl.o ]
../Dbg/zgb/zgb.lib                        [ Math.o ]
C:/ZGB-2023.0/common/../env/gbdk/lib/sm83/sm83.lib
                                          [ memcpy.o ]
C:/ZGB-2023.0/common/../env/gbdk/lib/sm83/sm83.lib
                                          [ _memset.o ]
C:/ZGB-2023.0/common/../env/gbdk/lib/gb/gb.lib
                                          [ delay.o ]
C:/ZGB-2023.0/common/../env/gbdk/lib/gb/gb.lib
                                          [ ___sdcc_bcall_ehl.o ]
../Dbg/zgb/zgb.lib                        [ Print.o ]
C:/ZGB-2023.0/common/../env/gbdk/lib/gb/gb.lib
                                          [ lcd.o ]
C:/ZGB-2023.0/common/../env/gbdk/lib/sm83/sm83.lib
                                          [ itoa.o ]

ASxxxx Linker V03.00/V05.40 + sdld,  page 276.

User Base Address Definitions

_DATA=0xc0a0
_CODE=0x0200
ASxxxx Linker V03.00/V05.40 + sdld,  page 277.

User Global Definitions

_shadow_OAM=0xC000
.STACK=0xDEFF
.refresh_OAM=0xFF80

