                                      1 ;--------------------------------------------------------
                                      2 ; File Created by SDCC : free open source ISO C Compiler 
                                      3 ; Version 4.3.2 #14228 (MINGW64)
                                      4 ;--------------------------------------------------------
                                      5 	.module SpriteManager
                                      6 	.optsdcc -msm83
                                      7 	
                                      8 ;--------------------------------------------------------
                                      9 ; Public variables in this module
                                     10 ;--------------------------------------------------------
                                     11 	.globl _SetBank
                                     12 	.globl _SetPalette
                                     13 	.globl _memcmp
                                     14 	.globl _memset
                                     15 	.globl _PopBank
                                     16 	.globl _PushBank
                                     17 	.globl _RefreshScroll
                                     18 	.globl _DrawSprite
                                     19 	.globl _InitSprite
                                     20 	.globl _ClearOAMs
                                     21 	.globl _SwapOAMs
                                     22 	.globl _VectorRemovePos
                                     23 	.globl _VectorAdd
                                     24 	.globl _set_sprite_data
                                     25 	.globl _THIS
                                     26 	.globl _THIS_IDX
                                     27 	.globl _last_sprite_pal_loaded
                                     28 	.globl _last_sprite_loaded
                                     29 	.globl _sprite_manager_updatables
                                     30 	.globl _sprite_manager_sprites_pool
                                     31 	.globl _cachedSprite
                                     32 	.globl _sprite_manager_removal_check
                                     33 	.globl _sprite_manager_sprites_poolSTACK
                                     34 	.globl _sprite_manager_sprites
                                     35 	.globl _sprite_manager_sprites_mem
                                     36 	.globl _SpriteManagerReset
                                     37 	.globl _SpriteManagerLoad
                                     38 	.globl _SpriteManagerAdd
                                     39 	.globl _SpriteManagerRemove
                                     40 	.globl _SpriteManagerRemoveSprite
                                     41 	.globl _SpriteManagerFlushRemove
                                     42 	.globl _SpriteManagerUpdate
                                     43 ;--------------------------------------------------------
                                     44 ; special function registers
                                     45 ;--------------------------------------------------------
                                     46 ;--------------------------------------------------------
                                     47 ; ram data
                                     48 ;--------------------------------------------------------
                                     49 	.area _DATA
                           000000    50 G$sprite_manager_sprites_mem$0_0$0==.
      000000                         51 _sprite_manager_sprites_mem::
      000000                         52 	.ds 700
                           0002BC    53 G$sprite_manager_sprites$0_0$0==.
      0002BC                         54 _sprite_manager_sprites::
      0002BC                         55 	.ds 40
                           0002E4    56 G$sprite_manager_sprites_poolSTACK$0_0$0==.
      0002E4                         57 _sprite_manager_sprites_poolSTACK::
      0002E4                         58 	.ds 20
                           0002F8    59 G$sprite_manager_removal_check$0_0$0==.
      0002F8                         60 _sprite_manager_removal_check::
      0002F8                         61 	.ds 1
                           0002F9    62 G$cachedSprite$0_0$0==.
      0002F9                         63 _cachedSprite::
      0002F9                         64 	.ds 2
                                     65 ;--------------------------------------------------------
                                     66 ; ram data
                                     67 ;--------------------------------------------------------
                                     68 	.area _INITIALIZED
                           000000    69 G$sprite_manager_sprites_pool$0_0$0==.
      000000                         70 _sprite_manager_sprites_pool::
      000000                         71 	.ds 2
                           000002    72 G$sprite_manager_updatables$0_0$0==.
      000002                         73 _sprite_manager_updatables::
      000002                         74 	.ds 21
                           000017    75 G$last_sprite_loaded$0_0$0==.
      000017                         76 _last_sprite_loaded::
      000017                         77 	.ds 2
                           000019    78 G$last_sprite_pal_loaded$0_0$0==.
      000019                         79 _last_sprite_pal_loaded::
      000019                         80 	.ds 1
                           00001A    81 G$THIS_IDX$0_0$0==.
      00001A                         82 _THIS_IDX::
      00001A                         83 	.ds 1
                           00001B    84 G$THIS$0_0$0==.
      00001B                         85 _THIS::
      00001B                         86 	.ds 2
                                     87 ;--------------------------------------------------------
                                     88 ; absolute external ram data
                                     89 ;--------------------------------------------------------
                                     90 	.area _DABS (ABS)
                                     91 ;--------------------------------------------------------
                                     92 ; global & static initialisations
                                     93 ;--------------------------------------------------------
                                     94 	.area _HOME
                                     95 	.area _GSINIT
                                     96 	.area _GSFINAL
                                     97 	.area _GSINIT
                                     98 ;--------------------------------------------------------
                                     99 ; Home
                                    100 ;--------------------------------------------------------
                                    101 	.area _HOME
                                    102 	.area _HOME
                                    103 ;--------------------------------------------------------
                                    104 ; code
                                    105 ;--------------------------------------------------------
                                    106 	.area _CODE
                           000000   107 	G$SpriteManagerReset$0$0	= .
                                    108 	.globl	G$SpriteManagerReset$0$0
                           000000   109 	C$SpriteManager.c$22$0_0$191	= .
                                    110 	.globl	C$SpriteManager.c$22$0_0$191
                                    111 ;C:/ZGB-2023.0/common/src/SpriteManager.c:22: void SpriteManagerReset() {
                                    112 ;	---------------------------------
                                    113 ; Function SpriteManagerReset
                                    114 ; ---------------------------------
      000000                        115 _SpriteManagerReset::
      000000 E8 FD            [16]  116 	add	sp, #-3
                           000002   117 	C$SpriteManager.c$25$1_0$191	= .
                                    118 	.globl	C$SpriteManager.c$25$1_0$191
                                    119 ;C:/ZGB-2023.0/common/src/SpriteManager.c:25: last_sprite_loaded = 128;
      000002 21r17r00         [12]  120 	ld	hl, #_last_sprite_loaded
      000005 3E 80            [ 8]  121 	ld	a, #0x80
      000007 22               [ 8]  122 	ld	(hl+), a
      000008 AF               [ 4]  123 	xor	a, a
      000009 77               [ 8]  124 	ld	(hl), a
                           00000A   125 	C$SpriteManager.c$26$1_0$191	= .
                                    126 	.globl	C$SpriteManager.c$26$1_0$191
                                    127 ;C:/ZGB-2023.0/common/src/SpriteManager.c:26: last_sprite_pal_loaded = 0;
      00000A 21r19r00         [12]  128 	ld	hl, #_last_sprite_pal_loaded
                           00000D   129 	C$SpriteManager.c$29$3_0$193	= .
                                    130 	.globl	C$SpriteManager.c$29$3_0$193
                                    131 ;C:/ZGB-2023.0/common/src/SpriteManager.c:29: for(i = 0u; i != sprite_manager_updatables[0]; ++ i) {
      00000D 36 00            [12]  132 	ld	(hl), #0x00
      00000F 4E               [ 8]  133 	ld	c, (hl)
      000010                        134 00104$:
      000010 21r02r00         [12]  135 	ld	hl, #_sprite_manager_updatables
      000013 46               [ 8]  136 	ld	b, (hl)
      000014 79               [ 4]  137 	ld	a, c
      000015 90               [ 4]  138 	sub	a, b
      000016 28 57            [12]  139 	jr	Z, 00101$
                           000018   140 	C$SpriteManager.c$30$3_0$193	= .
                                    141 	.globl	C$SpriteManager.c$30$3_0$193
                                    142 ;C:/ZGB-2023.0/common/src/SpriteManager.c:30: THIS = sprite_manager_sprites[sprite_manager_updatables[i + 1]];
      000018 79               [ 4]  143 	ld	a, c
      000019 3C               [ 4]  144 	inc	a
      00001A 5F               [ 4]  145 	ld	e, a
      00001B 07               [ 4]  146 	rlca
      00001C 9F               [ 4]  147 	sbc	a, a
      00001D 57               [ 4]  148 	ld	d, a
      00001E 21r02r00         [12]  149 	ld	hl, #_sprite_manager_updatables
      000021 19               [ 8]  150 	add	hl, de
      000022 6E               [ 8]  151 	ld	l, (hl)
                                    152 ;	spillPairReg hl
      000023 26 00            [ 8]  153 	ld	h, #0x00
                                    154 ;	spillPairReg hl
                                    155 ;	spillPairReg hl
      000025 29               [ 8]  156 	add	hl, hl
      000026 11rBCr02         [12]  157 	ld	de, #_sprite_manager_sprites
      000029 19               [ 8]  158 	add	hl, de
      00002A 5D               [ 4]  159 	ld	e, l
      00002B 54               [ 4]  160 	ld	d, h
      00002C 1A               [ 8]  161 	ld	a, (de)
      00002D 21r1Br00         [12]  162 	ld	hl, #_THIS
      000030 22               [ 8]  163 	ld	(hl+), a
      000031 13               [ 8]  164 	inc	de
      000032 1A               [ 8]  165 	ld	a, (de)
      000033 77               [ 8]  166 	ld	(hl), a
                           000034   167 	C$SpriteManager.c$31$3_0$193	= .
                                    168 	.globl	C$SpriteManager.c$31$3_0$193
                                    169 ;C:/ZGB-2023.0/common/src/SpriteManager.c:31: PUSH_BANK(spriteBanks[THIS->type]);
      000034 21r1Br00         [12]  170 	ld	hl, #_THIS
      000037 2A               [ 8]  171 	ld	a, (hl+)
      000038 5F               [ 4]  172 	ld	e, a
      000039 56               [ 8]  173 	ld	d, (hl)
      00003A 21 13 00         [12]  174 	ld	hl, #0x0013
      00003D 19               [ 8]  175 	add	hl, de
      00003E 5E               [ 8]  176 	ld	e, (hl)
      00003F 21r00r00         [12]  177 	ld	hl, #_spriteBanks
      000042 16 00            [ 8]  178 	ld	d, #0x00
      000044 19               [ 8]  179 	add	hl, de
      000045 7E               [ 8]  180 	ld	a, (hl)
      000046 C5               [16]  181 	push	bc
      000047 F5               [16]  182 	push	af
      000048 33               [ 8]  183 	inc	sp
      000049 CDr00r00         [24]  184 	call	_PushBank
      00004C 33               [ 8]  185 	inc	sp
      00004D C1               [12]  186 	pop	bc
                           00004E   187 	C$SpriteManager.c$32$3_0$193	= .
                                    188 	.globl	C$SpriteManager.c$32$3_0$193
                                    189 ;C:/ZGB-2023.0/common/src/SpriteManager.c:32: spriteDestroyFuncs[THIS->type]();
      00004E 21r1Br00         [12]  190 	ld	hl, #_THIS
      000051 2A               [ 8]  191 	ld	a, (hl+)
      000052 5F               [ 4]  192 	ld	e, a
      000053 56               [ 8]  193 	ld	d, (hl)
      000054 21 13 00         [12]  194 	ld	hl, #0x0013
      000057 19               [ 8]  195 	add	hl, de
      000058 6E               [ 8]  196 	ld	l, (hl)
                                    197 ;	spillPairReg hl
      000059 26 00            [ 8]  198 	ld	h, #0x00
                                    199 ;	spillPairReg hl
                                    200 ;	spillPairReg hl
      00005B 29               [ 8]  201 	add	hl, hl
      00005C 11r00r00         [12]  202 	ld	de, #_spriteDestroyFuncs
      00005F 19               [ 8]  203 	add	hl, de
      000060 2A               [ 8]  204 	ld	a, (hl+)
      000061 47               [ 4]  205 	ld	b, a
      000062 66               [ 8]  206 	ld	h, (hl)
                                    207 ;	spillPairReg hl
      000063 C5               [16]  208 	push	bc
      000064 68               [ 4]  209 	ld	l, b
                                    210 ;	spillPairReg hl
                                    211 ;	spillPairReg hl
      000065 CDr00r00         [24]  212 	call	___sdcc_call_hl
      000068 CDr00r00         [24]  213 	call	_PopBank
      00006B C1               [12]  214 	pop	bc
                           00006C   215 	C$SpriteManager.c$29$2_0$192	= .
                                    216 	.globl	C$SpriteManager.c$29$2_0$192
                                    217 ;C:/ZGB-2023.0/common/src/SpriteManager.c:29: for(i = 0u; i != sprite_manager_updatables[0]; ++ i) {
      00006C 0C               [ 4]  218 	inc	c
      00006D 18 A1            [12]  219 	jr	00104$
      00006F                        220 00101$:
                           00006F   221 	C$SpriteManager.c$37$1_0$191	= .
                                    222 	.globl	C$SpriteManager.c$37$1_0$191
                                    223 ;C:/ZGB-2023.0/common/src/SpriteManager.c:37: StackClear(sprite_manager_sprites_pool);
      00006F 21r00r00         [12]  224 	ld	hl, #_sprite_manager_sprites_pool
      000072 36rE3            [12]  225 	ld	(hl), #<((_sprite_manager_sprites_poolSTACK - 1))
      000074 23               [ 8]  226 	inc	hl
      000075 36s02            [12]  227 	ld	(hl), #>((_sprite_manager_sprites_poolSTACK - 1))
                           000077   228 	C$SpriteManager.c$38$3_0$195	= .
                                    229 	.globl	C$SpriteManager.c$38$3_0$195
                                    230 ;C:/ZGB-2023.0/common/src/SpriteManager.c:38: for(i = 0; i != N_SPRITE_MANAGER_SPRITES; ++i) {
      000077 F8 02            [12]  231 	ldhl	sp,	#2
      000079 36 00            [12]  232 	ld	(hl), #0x00
      00007B                        233 00106$:
                           00007B   234 	C$SpriteManager.c$39$3_0$195	= .
                                    235 	.globl	C$SpriteManager.c$39$3_0$195
                                    236 ;C:/ZGB-2023.0/common/src/SpriteManager.c:39: sprite_manager_sprites[i] = (Sprite*)&sprite_manager_sprites_mem[sizeof(Sprite) * (UINT16)i];
      00007B F8 02            [12]  237 	ldhl	sp,	#2
      00007D 7E               [ 8]  238 	ld	a, (hl)
      00007E 16 00            [ 8]  239 	ld	d, #0x00
      000080 87               [ 4]  240 	add	a, a
      000081 CB 12            [ 8]  241 	rl	d
      000083 5F               [ 4]  242 	ld	e, a
      000084 21rBCr02         [12]  243 	ld	hl, #_sprite_manager_sprites
      000087 19               [ 8]  244 	add	hl, de
      000088 33               [ 8]  245 	inc	sp
      000089 33               [ 8]  246 	inc	sp
      00008A E5               [16]  247 	push	hl
      00008B F8 02            [12]  248 	ldhl	sp,	#2
      00008D 4E               [ 8]  249 	ld	c, (hl)
      00008E 06 00            [ 8]  250 	ld	b, #0x00
      000090 69               [ 4]  251 	ld	l, c
      000091 60               [ 4]  252 	ld	h, b
      000092 29               [ 8]  253 	add	hl, hl
      000093 29               [ 8]  254 	add	hl, hl
      000094 29               [ 8]  255 	add	hl, hl
      000095 29               [ 8]  256 	add	hl, hl
      000096 09               [ 8]  257 	add	hl, bc
      000097 29               [ 8]  258 	add	hl, hl
      000098 09               [ 8]  259 	add	hl, bc
      000099 11r00r00         [12]  260 	ld	de, #_sprite_manager_sprites_mem
      00009C 19               [ 8]  261 	add	hl, de
      00009D 4D               [ 4]  262 	ld	c, l
      00009E 44               [ 4]  263 	ld	b, h
      00009F E1               [12]  264 	pop	hl
      0000A0 E5               [16]  265 	push	hl
      0000A1 79               [ 4]  266 	ld	a, c
      0000A2 22               [ 8]  267 	ld	(hl+), a
      0000A3 70               [ 8]  268 	ld	(hl), b
                           0000A4   269 	C$SpriteManager.c$40$3_0$195	= .
                                    270 	.globl	C$SpriteManager.c$40$3_0$195
                                    271 ;C:/ZGB-2023.0/common/src/SpriteManager.c:40: StackPush(sprite_manager_sprites_pool, i);		
      0000A4 21r00r00         [12]  272 	ld	hl, #_sprite_manager_sprites_pool
      0000A7 34               [12]  273 	inc	(hl)
      0000A8 20 02            [12]  274 	jr	NZ, 00142$
      0000AA 23               [ 8]  275 	inc	hl
      0000AB 34               [12]  276 	inc	(hl)
      0000AC                        277 00142$:
      0000AC 21r00r00         [12]  278 	ld	hl, #_sprite_manager_sprites_pool
      0000AF 2A               [ 8]  279 	ld	a, (hl+)
      0000B0 4F               [ 4]  280 	ld	c, a
      0000B1 46               [ 8]  281 	ld	b, (hl)
      0000B2 F8 02            [12]  282 	ldhl	sp,	#2
      0000B4 7E               [ 8]  283 	ld	a, (hl)
      0000B5 02               [ 8]  284 	ld	(bc), a
                           0000B6   285 	C$SpriteManager.c$38$2_0$194	= .
                                    286 	.globl	C$SpriteManager.c$38$2_0$194
                                    287 ;C:/ZGB-2023.0/common/src/SpriteManager.c:38: for(i = 0; i != N_SPRITE_MANAGER_SPRITES; ++i) {
      0000B6 34               [12]  288 	inc	(hl)
      0000B7 7E               [ 8]  289 	ld	a, (hl)
      0000B8 D6 14            [ 8]  290 	sub	a, #0x14
      0000BA 20 BF            [12]  291 	jr	NZ, 00106$
                           0000BC   292 	C$SpriteManager.c$42$1_0$191	= .
                                    293 	.globl	C$SpriteManager.c$42$1_0$191
                                    294 ;C:/ZGB-2023.0/common/src/SpriteManager.c:42: ClearOAMs();
      0000BC CDr00r00         [24]  295 	call	_ClearOAMs
                           0000BF   296 	C$SpriteManager.c$44$1_0$191	= .
                                    297 	.globl	C$SpriteManager.c$44$1_0$191
                                    298 ;C:/ZGB-2023.0/common/src/SpriteManager.c:44: memset(spriteIdxs, 128, N_SPRITE_TYPES);
      0000BF 11 09 00         [12]  299 	ld	de, #0x0009
      0000C2 D5               [16]  300 	push	de
      0000C3 AF               [ 4]  301 	xor	a, a
      0000C4 F5               [16]  302 	push	af
      0000C5 11r00r00         [12]  303 	ld	de, #_spriteIdxs
      0000C8 D5               [16]  304 	push	de
      0000C9 CDr00r00         [24]  305 	call	_memset
      0000CC E8 06            [16]  306 	add	sp, #6
                           0000CE   307 	C$SpriteManager.c$47$1_0$191	= .
                                    308 	.globl	C$SpriteManager.c$47$1_0$191
                                    309 ;C:/ZGB-2023.0/common/src/SpriteManager.c:47: sprite_manager_updatables[0] = 0;
      0000CE 21r02r00         [12]  310 	ld	hl, #_sprite_manager_updatables
      0000D1 36 00            [12]  311 	ld	(hl), #0x00
                           0000D3   312 	C$SpriteManager.c$48$1_0$191	= .
                                    313 	.globl	C$SpriteManager.c$48$1_0$191
                                    314 ;C:/ZGB-2023.0/common/src/SpriteManager.c:48: sprite_manager_removal_check = 0;
      0000D3 21rF8r02         [12]  315 	ld	hl, #_sprite_manager_removal_check
      0000D6 36 00            [12]  316 	ld	(hl), #0x00
                           0000D8   317 	C$SpriteManager.c$49$1_0$191	= .
                                    318 	.globl	C$SpriteManager.c$49$1_0$191
                                    319 ;C:/ZGB-2023.0/common/src/SpriteManager.c:49: }
      0000D8 E8 03            [16]  320 	add	sp, #3
                           0000DA   321 	C$SpriteManager.c$49$1_0$191	= .
                                    322 	.globl	C$SpriteManager.c$49$1_0$191
                           0000DA   323 	XG$SpriteManagerReset$0$0	= .
                                    324 	.globl	XG$SpriteManagerReset$0$0
      0000DA C9               [16]  325 	ret
                           0000DB   326 	G$SpriteManagerLoad$0$0	= .
                                    327 	.globl	G$SpriteManagerLoad$0$0
                           0000DB   328 	C$SpriteManager.c$52$1_0$197	= .
                                    329 	.globl	C$SpriteManager.c$52$1_0$197
                                    330 ;C:/ZGB-2023.0/common/src/SpriteManager.c:52: void SpriteManagerLoad(UINT8 sprite_type) {
                                    331 ;	---------------------------------
                                    332 ; Function SpriteManagerLoad
                                    333 ; ---------------------------------
      0000DB                        334 _SpriteManagerLoad::
      0000DB E8 F1            [16]  335 	add	sp, #-15
      0000DD F8 0E            [12]  336 	ldhl	sp,	#14
      0000DF 77               [ 8]  337 	ld	(hl), a
                           0000E0   338 	C$SpriteManager.c$56$1_0$197	= .
                                    339 	.globl	C$SpriteManager.c$56$1_0$197
                                    340 ;C:/ZGB-2023.0/common/src/SpriteManager.c:56: if(spriteIdxs[sprite_type] != 128 || last_sprite_loaded < -127) //Already loaded or no room for this sprite
      0000E0 11r00r00         [12]  341 	ld	de, #_spriteIdxs
      0000E3 6E               [ 8]  342 	ld	l, (hl)
      0000E4 26 00            [ 8]  343 	ld	h, #0x00
      0000E6 19               [ 8]  344 	add	hl, de
      0000E7 E5               [16]  345 	push	hl
      0000E8 7D               [ 4]  346 	ld	a, l
      0000E9 F8 0E            [12]  347 	ldhl	sp,	#14
      0000EB 77               [ 8]  348 	ld	(hl), a
      0000EC E1               [12]  349 	pop	hl
      0000ED 7C               [ 4]  350 	ld	a, h
      0000EE F8 0D            [12]  351 	ldhl	sp,	#13
      0000F0 32               [ 8]  352 	ld	(hl-), a
      0000F1 2A               [ 8]  353 	ld	a, (hl+)
      0000F2 5F               [ 4]  354 	ld	e, a
      0000F3 56               [ 8]  355 	ld	d, (hl)
      0000F4 1A               [ 8]  356 	ld	a, (de)
      0000F5 D6 80            [ 8]  357 	sub	a, #0x80
      0000F7 C2rB7r02         [16]  358 	jp	NZ,00115$
      0000FA 21r17r00         [12]  359 	ld	hl, #_last_sprite_loaded
      0000FD 2A               [ 8]  360 	ld	a, (hl+)
      0000FE D6 81            [ 8]  361 	sub	a, #0x81
      000100 7E               [ 8]  362 	ld	a, (hl)
      000101 DE FF            [ 8]  363 	sbc	a, #0xff
      000103 56               [ 8]  364 	ld	d, (hl)
      000104 3E FF            [ 8]  365 	ld	a, #0xff
      000106 5F               [ 4]  366 	ld	e, a
      000107 CB 7B            [ 8]  367 	bit	7, e
      000109 28 07            [12]  368 	jr	Z, 00162$
      00010B CB 7A            [ 8]  369 	bit	7, d
      00010D 20 08            [12]  370 	jr	NZ, 00163$
      00010F BF               [ 4]  371 	cp	a, a
      000110 18 05            [12]  372 	jr	00163$
      000112                        373 00162$:
      000112 CB 7A            [ 8]  374 	bit	7, d
      000114 28 01            [12]  375 	jr	Z, 00163$
      000116 37               [ 4]  376 	scf
      000117                        377 00163$:
                           000117   378 	C$SpriteManager.c$57$1_0$197	= .
                                    379 	.globl	C$SpriteManager.c$57$1_0$197
                                    380 ;C:/ZGB-2023.0/common/src/SpriteManager.c:57: return;
      000117 DArB7r02         [16]  381 	jp	C,00115$
                           00011A   382 	C$SpriteManager.c$59$1_0$197	= .
                                    383 	.globl	C$SpriteManager.c$59$1_0$197
                                    384 ;C:/ZGB-2023.0/common/src/SpriteManager.c:59: PUSH_BANK(spriteDataBanks[sprite_type])
      00011A 01r00r00         [12]  385 	ld	bc, #_spriteDataBanks+0
      00011D F8 0E            [12]  386 	ldhl	sp,	#14
      00011F 6E               [ 8]  387 	ld	l, (hl)
      000120 26 00            [ 8]  388 	ld	h, #0x00
      000122 09               [ 8]  389 	add	hl, bc
      000123 4D               [ 4]  390 	ld	c, l
      000124 44               [ 4]  391 	ld	b, h
      000125 0A               [ 8]  392 	ld	a, (bc)
      000126 F5               [16]  393 	push	af
      000127 33               [ 8]  394 	inc	sp
      000128 CDr00r00         [24]  395 	call	_PushBank
      00012B 33               [ 8]  396 	inc	sp
                           00012C   397 	C$SpriteManager.c$61$1_1$198	= .
                                    398 	.globl	C$SpriteManager.c$61$1_1$198
                                    399 ;C:/ZGB-2023.0/common/src/SpriteManager.c:61: const struct MetaSpriteInfo* data = spriteDatas[sprite_type];
      00012C 01r00r00         [12]  400 	ld	bc, #_spriteDatas+0
      00012F F8 0E            [12]  401 	ldhl	sp,	#14
      000131 6E               [ 8]  402 	ld	l, (hl)
      000132 26 00            [ 8]  403 	ld	h, #0x00
      000134 29               [ 8]  404 	add	hl, hl
      000135 09               [ 8]  405 	add	hl, bc
      000136 5D               [ 4]  406 	ld	e, l
      000137 54               [ 4]  407 	ld	d, h
      000138 1A               [ 8]  408 	ld	a, (de)
      000139 F8 00            [12]  409 	ldhl	sp,	#0
      00013B 22               [ 8]  410 	ld	(hl+), a
      00013C 13               [ 8]  411 	inc	de
      00013D 1A               [ 8]  412 	ld	a, (de)
      00013E 77               [ 8]  413 	ld	(hl), a
                           00013F   414 	C$SpriteManager.c$62$1_1$198	= .
                                    415 	.globl	C$SpriteManager.c$62$1_1$198
                                    416 ;C:/ZGB-2023.0/common/src/SpriteManager.c:62: UINT8 n_tiles = data->num_tiles;
      00013F C1               [12]  417 	pop	bc
      000140 C5               [16]  418 	push	bc
      000141 03               [ 8]  419 	inc	bc
      000142 03               [ 8]  420 	inc	bc
      000143 0A               [ 8]  421 	ld	a, (bc)
      000144 F8 02            [12]  422 	ldhl	sp,	#2
      000146 77               [ 8]  423 	ld	(hl), a
                           000147   424 	C$SpriteManager.c$63$1_1$198	= .
                                    425 	.globl	C$SpriteManager.c$63$1_1$198
                                    426 ;C:/ZGB-2023.0/common/src/SpriteManager.c:63: UINT8 n_pals = data->num_palettes;
      000147 D1               [12]  427 	pop	de
      000148 D5               [16]  428 	push	de
      000149 21 05 00         [12]  429 	ld	hl, #0x0005
      00014C 19               [ 8]  430 	add	hl, de
      00014D 4D               [ 4]  431 	ld	c, l
      00014E 44               [ 4]  432 	ld	b, h
      00014F 0A               [ 8]  433 	ld	a, (bc)
      000150 F8 03            [12]  434 	ldhl	sp,	#3
                           000152   435 	C$SpriteManager.c$65$1_1$198	= .
                                    436 	.globl	C$SpriteManager.c$65$1_1$198
                                    437 ;C:/ZGB-2023.0/common/src/SpriteManager.c:65: last_sprite_loaded -= n_tiles;
      000152 32               [ 8]  438 	ld	(hl-), a
      000153 2A               [ 8]  439 	ld	a, (hl+)
      000154 23               [ 8]  440 	inc	hl
      000155 22               [ 8]  441 	ld	(hl+), a
      000156 36 00            [12]  442 	ld	(hl), #0x00
      000158 21r17r00         [12]  443 	ld	hl, #_last_sprite_loaded
      00015B 2A               [ 8]  444 	ld	a, (hl+)
      00015C 5F               [ 4]  445 	ld	e, a
      00015D 56               [ 8]  446 	ld	d, (hl)
      00015E F8 04            [12]  447 	ldhl	sp,	#4
      000160 2A               [ 8]  448 	ld	a,	(hl+)
      000161 66               [ 8]  449 	ld	h, (hl)
      000162 6F               [ 4]  450 	ld	l, a
      000163 7B               [ 4]  451 	ld	a, e
      000164 95               [ 4]  452 	sub	a, l
      000165 5F               [ 4]  453 	ld	e, a
      000166 7A               [ 4]  454 	ld	a, d
      000167 9C               [ 4]  455 	sbc	a, h
      000168 21r18r00         [12]  456 	ld	hl, #_last_sprite_loaded + 1
      00016B 32               [ 8]  457 	ld	(hl-), a
      00016C 73               [ 8]  458 	ld	(hl), e
                           00016D   459 	C$SpriteManager.c$66$1_1$198	= .
                                    460 	.globl	C$SpriteManager.c$66$1_1$198
                                    461 ;C:/ZGB-2023.0/common/src/SpriteManager.c:66: spriteIdxs[sprite_type] = last_sprite_loaded;
      00016D 4E               [ 8]  462 	ld	c, (hl)
      00016E F8 0C            [12]  463 	ldhl	sp,	#12
      000170 2A               [ 8]  464 	ld	a,	(hl+)
      000171 66               [ 8]  465 	ld	h, (hl)
      000172 6F               [ 4]  466 	ld	l, a
      000173 71               [ 8]  467 	ld	(hl), c
                           000174   468 	C$SpriteManager.c$67$1_2$199	= .
                                    469 	.globl	C$SpriteManager.c$67$1_2$199
                                    470 ;C:/ZGB-2023.0/common/src/SpriteManager.c:67: UINT8 end = last_sprite_loaded + n_tiles;
      000174 FAr17r00         [16]  471 	ld	a, (#_last_sprite_loaded)
      000177 F8 02            [12]  472 	ldhl	sp,	#2
      000179 4E               [ 8]  473 	ld	c, (hl)
      00017A 81               [ 4]  474 	add	a, c
      00017B F8 06            [12]  475 	ldhl	sp,	#6
      00017D 77               [ 8]  476 	ld	(hl), a
                           00017E   477 	C$SpriteManager.c$68$1_2$199	= .
                                    478 	.globl	C$SpriteManager.c$68$1_2$199
                                    479 ;C:/ZGB-2023.0/common/src/SpriteManager.c:68: if((end - 1u) >= (UINT8)last_sprite_loaded) {
      00017E 4E               [ 8]  480 	ld	c, (hl)
      00017F 06 00            [ 8]  481 	ld	b, #0x00
      000181 0B               [ 8]  482 	dec	bc
      000182 FAr17r00         [16]  483 	ld	a, (#_last_sprite_loaded)
      000185 F8 07            [12]  484 	ldhl	sp,	#7
      000187 77               [ 8]  485 	ld	(hl), a
      000188 2A               [ 8]  486 	ld	a, (hl+)
      000189 22               [ 8]  487 	ld	(hl+), a
      00018A 36 00            [12]  488 	ld	(hl), #0x00
                           00018C   489 	C$SpriteManager.c$69$1_2$197	= .
                                    490 	.globl	C$SpriteManager.c$69$1_2$197
                                    491 ;C:/ZGB-2023.0/common/src/SpriteManager.c:69: set_sprite_data(last_sprite_loaded, n_tiles, data->data);
      00018C D1               [12]  492 	pop	de
      00018D D5               [16]  493 	push	de
      00018E 21 03 00         [12]  494 	ld	hl, #0x0003
      000191 19               [ 8]  495 	add	hl, de
      000192 E5               [16]  496 	push	hl
      000193 7D               [ 4]  497 	ld	a, l
      000194 F8 0C            [12]  498 	ldhl	sp,	#12
      000196 77               [ 8]  499 	ld	(hl), a
      000197 E1               [12]  500 	pop	hl
      000198 7C               [ 4]  501 	ld	a, h
      000199 F8 0B            [12]  502 	ldhl	sp,	#11
                           00019B   503 	C$SpriteManager.c$71$1_2$197	= .
                                    504 	.globl	C$SpriteManager.c$71$1_2$197
                                    505 ;C:/ZGB-2023.0/common/src/SpriteManager.c:71: set_sprite_data(last_sprite_loaded, n_tiles - end, data->data);
      00019B 32               [ 8]  506 	ld	(hl-), a
      00019C 2A               [ 8]  507 	ld	a, (hl+)
      00019D 5F               [ 4]  508 	ld	e, a
      00019E 2A               [ 8]  509 	ld	a, (hl+)
      00019F 57               [ 4]  510 	ld	d, a
      0001A0 1A               [ 8]  511 	ld	a, (de)
      0001A1 22               [ 8]  512 	ld	(hl+), a
      0001A2 13               [ 8]  513 	inc	de
      0001A3 1A               [ 8]  514 	ld	a, (de)
      0001A4 77               [ 8]  515 	ld	(hl), a
                           0001A5   516 	C$SpriteManager.c$68$1_2$199	= .
                                    517 	.globl	C$SpriteManager.c$68$1_2$199
                                    518 ;C:/ZGB-2023.0/common/src/SpriteManager.c:68: if((end - 1u) >= (UINT8)last_sprite_loaded) {
      0001A5 F8 08            [12]  519 	ldhl	sp,	#8
      0001A7 79               [ 4]  520 	ld	a, c
      0001A8 96               [ 8]  521 	sub	a, (hl)
      0001A9 23               [ 8]  522 	inc	hl
      0001AA 78               [ 4]  523 	ld	a, b
      0001AB 9E               [ 8]  524 	sbc	a, (hl)
      0001AC 38 17            [12]  525 	jr	C, 00105$
                           0001AE   526 	C$SpriteManager.c$69$2_2$200	= .
                                    527 	.globl	C$SpriteManager.c$69$2_2$200
                                    528 ;C:/ZGB-2023.0/common/src/SpriteManager.c:69: set_sprite_data(last_sprite_loaded, n_tiles, data->data);
      0001AE F8 0C            [12]  529 	ldhl	sp,	#12
      0001B0 2A               [ 8]  530 	ld	a, (hl+)
      0001B1 5F               [ 4]  531 	ld	e, a
      0001B2 56               [ 8]  532 	ld	d, (hl)
      0001B3 D5               [16]  533 	push	de
      0001B4 F8 04            [12]  534 	ldhl	sp,	#4
      0001B6 7E               [ 8]  535 	ld	a, (hl)
      0001B7 F5               [16]  536 	push	af
      0001B8 33               [ 8]  537 	inc	sp
      0001B9 F8 0A            [12]  538 	ldhl	sp,	#10
      0001BB 7E               [ 8]  539 	ld	a, (hl)
      0001BC F5               [16]  540 	push	af
      0001BD 33               [ 8]  541 	inc	sp
      0001BE CDr00r00         [24]  542 	call	_set_sprite_data
      0001C1 E8 04            [16]  543 	add	sp, #4
      0001C3 18 56            [12]  544 	jr	00121$
      0001C5                        545 00105$:
                           0001C5   546 	C$SpriteManager.c$71$2_2$201	= .
                                    547 	.globl	C$SpriteManager.c$71$2_2$201
                                    548 ;C:/ZGB-2023.0/common/src/SpriteManager.c:71: set_sprite_data(last_sprite_loaded, n_tiles - end, data->data);
      0001C5 F8 02            [12]  549 	ldhl	sp,	#2
      0001C7 7E               [ 8]  550 	ld	a, (hl)
      0001C8 F8 06            [12]  551 	ldhl	sp,	#6
      0001CA 96               [ 8]  552 	sub	a, (hl)
      0001CB F8 0C            [12]  553 	ldhl	sp,	#12
      0001CD 5E               [ 8]  554 	ld	e, (hl)
      0001CE 23               [ 8]  555 	inc	hl
      0001CF 56               [ 8]  556 	ld	d, (hl)
      0001D0 D5               [16]  557 	push	de
      0001D1 F5               [16]  558 	push	af
      0001D2 33               [ 8]  559 	inc	sp
      0001D3 F8 0A            [12]  560 	ldhl	sp,	#10
      0001D5 7E               [ 8]  561 	ld	a, (hl)
      0001D6 F5               [16]  562 	push	af
      0001D7 33               [ 8]  563 	inc	sp
      0001D8 CDr00r00         [24]  564 	call	_set_sprite_data
      0001DB E8 04            [16]  565 	add	sp, #4
                           0001DD   566 	C$SpriteManager.c$72$2_2$201	= .
                                    567 	.globl	C$SpriteManager.c$72$2_2$201
                                    568 ;C:/ZGB-2023.0/common/src/SpriteManager.c:72: set_sprite_data(0, end, data->data + ((n_tiles - end) << 4));
      0001DD F8 0A            [12]  569 	ldhl	sp,#10
      0001DF 2A               [ 8]  570 	ld	a, (hl+)
      0001E0 5F               [ 4]  571 	ld	e, a
      0001E1 2A               [ 8]  572 	ld	a, (hl+)
      0001E2 57               [ 4]  573 	ld	d, a
      0001E3 1A               [ 8]  574 	ld	a, (de)
      0001E4 22               [ 8]  575 	ld	(hl+), a
      0001E5 13               [ 8]  576 	inc	de
      0001E6 1A               [ 8]  577 	ld	a, (de)
      0001E7 77               [ 8]  578 	ld	(hl), a
      0001E8 F8 06            [12]  579 	ldhl	sp,	#6
      0001EA 3A               [ 8]  580 	ld	a, (hl-)
      0001EB 2B               [ 8]  581 	dec	hl
      0001EC 4F               [ 4]  582 	ld	c, a
      0001ED 06 00            [ 8]  583 	ld	b, #0x00
      0001EF 2A               [ 8]  584 	ld	a, (hl+)
      0001F0 5F               [ 4]  585 	ld	e, a
      0001F1 56               [ 8]  586 	ld	d, (hl)
      0001F2 7B               [ 4]  587 	ld	a, e
      0001F3 91               [ 4]  588 	sub	a, c
      0001F4 5F               [ 4]  589 	ld	e, a
      0001F5 7A               [ 4]  590 	ld	a, d
      0001F6 98               [ 4]  591 	sbc	a, b
      0001F7 47               [ 4]  592 	ld	b, a
      0001F8 4B               [ 4]  593 	ld	c, e
      0001F9 CB 21            [ 8]  594 	sla	c
      0001FB CB 10            [ 8]  595 	rl	b
      0001FD CB 21            [ 8]  596 	sla	c
      0001FF CB 10            [ 8]  597 	rl	b
      000201 CB 21            [ 8]  598 	sla	c
      000203 CB 10            [ 8]  599 	rl	b
      000205 CB 21            [ 8]  600 	sla	c
      000207 CB 10            [ 8]  601 	rl	b
      000209 F8 0C            [12]  602 	ldhl	sp,	#12
      00020B 2A               [ 8]  603 	ld	a,	(hl+)
      00020C 66               [ 8]  604 	ld	h, (hl)
      00020D 6F               [ 4]  605 	ld	l, a
      00020E 09               [ 8]  606 	add	hl, bc
      00020F E5               [16]  607 	push	hl
      000210 F8 08            [12]  608 	ldhl	sp,	#8
      000212 66               [ 8]  609 	ld	h, (hl)
      000213 2E 00            [ 8]  610 	ld	l, #0x00
      000215 E5               [16]  611 	push	hl
      000216 CDr00r00         [24]  612 	call	_set_sprite_data
      000219 E8 04            [16]  613 	add	sp, #4
                           00021B   614 	C$SpriteManager.c$76$1_2$197	= .
                                    615 	.globl	C$SpriteManager.c$76$1_2$197
                                    616 ;C:/ZGB-2023.0/common/src/SpriteManager.c:76: for(i = 0; i != last_sprite_pal_loaded; ++ i)
      00021B                        617 00121$:
      00021B D1               [12]  618 	pop	de
      00021C D5               [16]  619 	push	de
      00021D 21 06 00         [12]  620 	ld	hl, #0x0006
      000220 19               [ 8]  621 	add	hl, de
      000221 E5               [16]  622 	push	hl
      000222 7D               [ 4]  623 	ld	a, l
      000223 F8 0D            [12]  624 	ldhl	sp,	#13
      000225 77               [ 8]  625 	ld	(hl), a
      000226 E1               [12]  626 	pop	hl
      000227 7C               [ 4]  627 	ld	a, h
      000228 F8 0C            [12]  628 	ldhl	sp,	#12
      00022A 22               [ 8]  629 	ld	(hl+), a
      00022B 36 00            [12]  630 	ld	(hl), #0x00
      00022D                        631 00113$:
      00022D FAr19r00         [16]  632 	ld	a, (#_last_sprite_pal_loaded)
      000230 F8 0D            [12]  633 	ldhl	sp,	#13
      000232 96               [ 8]  634 	sub	a, (hl)
      000233 28 42            [12]  635 	jr	Z, 00109$
                           000235   636 	C$SpriteManager.c$78$3_2$203	= .
                                    637 	.globl	C$SpriteManager.c$78$3_2$203
                                    638 ;C:/ZGB-2023.0/common/src/SpriteManager.c:78: if(memcmp(&ZGB_Fading_SPal[i << 2], data->palettes, n_pals << 3) == 0)
      000235 F8 03            [12]  639 	ldhl	sp,	#3
      000237 7E               [ 8]  640 	ld	a, (hl)
      000238 F8 09            [12]  641 	ldhl	sp,	#9
      00023A 22               [ 8]  642 	ld	(hl+), a
      00023B 36 00            [12]  643 	ld	(hl), #0x00
      00023D 3E 03            [ 8]  644 	ld	a, #0x03
      00023F                        645 00166$:
      00023F F8 09            [12]  646 	ldhl	sp,	#9
      000241 CB 26            [16]  647 	sla	(hl)
      000243 23               [ 8]  648 	inc	hl
      000244 CB 16            [16]  649 	rl	(hl)
      000246 3D               [ 4]  650 	dec	a
      000247 20 F6            [12]  651 	jr	NZ, 00166$
      000249 23               [ 8]  652 	inc	hl
      00024A 2A               [ 8]  653 	ld	a, (hl+)
      00024B 5F               [ 4]  654 	ld	e, a
      00024C 2A               [ 8]  655 	ld	a, (hl+)
      00024D 57               [ 4]  656 	ld	d, a
      00024E 1A               [ 8]  657 	ld	a, (de)
      00024F 4F               [ 4]  658 	ld	c, a
      000250 13               [ 8]  659 	inc	de
      000251 1A               [ 8]  660 	ld	a, (de)
      000252 47               [ 4]  661 	ld	b, a
      000253 7E               [ 8]  662 	ld	a, (hl)
      000254 87               [ 4]  663 	add	a, a
      000255 87               [ 4]  664 	add	a, a
      000256 6F               [ 4]  665 	ld	l, a
                                    666 ;	spillPairReg hl
                                    667 ;	spillPairReg hl
      000257 07               [ 4]  668 	rlca
      000258 9F               [ 4]  669 	sbc	a, a
      000259 67               [ 4]  670 	ld	h, a
      00025A 29               [ 8]  671 	add	hl, hl
      00025B 11r00r00         [12]  672 	ld	de, #_ZGB_Fading_SPal
      00025E 19               [ 8]  673 	add	hl, de
      00025F 5D               [ 4]  674 	ld	e, l
      000260 54               [ 4]  675 	ld	d, h
      000261 F8 09            [12]  676 	ldhl	sp,	#9
      000263 2A               [ 8]  677 	ld	a, (hl+)
      000264 66               [ 8]  678 	ld	h, (hl)
                                    679 ;	spillPairReg hl
                                    680 ;	spillPairReg hl
      000265 6F               [ 4]  681 	ld	l, a
                                    682 ;	spillPairReg hl
                                    683 ;	spillPairReg hl
      000266 E5               [16]  684 	push	hl
      000267 C5               [16]  685 	push	bc
      000268 D5               [16]  686 	push	de
      000269 CDr00r00         [24]  687 	call	_memcmp
      00026C E8 06            [16]  688 	add	sp, #6
      00026E 7A               [ 4]  689 	ld	a, d
      00026F B3               [ 4]  690 	or	a, e
      000270 28 05            [12]  691 	jr	Z, 00109$
                           000272   692 	C$SpriteManager.c$76$2_2$202	= .
                                    693 	.globl	C$SpriteManager.c$76$2_2$202
                                    694 ;C:/ZGB-2023.0/common/src/SpriteManager.c:76: for(i = 0; i != last_sprite_pal_loaded; ++ i)
      000272 F8 0D            [12]  695 	ldhl	sp,	#13
      000274 34               [12]  696 	inc	(hl)
      000275 18 B6            [12]  697 	jr	00113$
      000277                        698 00109$:
                           000277   699 	C$SpriteManager.c$83$1_2$199	= .
                                    700 	.globl	C$SpriteManager.c$83$1_2$199
                                    701 ;C:/ZGB-2023.0/common/src/SpriteManager.c:83: spritePalsOffset[sprite_type] = i;
      000277 01r00r00         [12]  702 	ld	bc, #_spritePalsOffset+0
      00027A F8 0E            [12]  703 	ldhl	sp,	#14
      00027C 6E               [ 8]  704 	ld	l, (hl)
      00027D 26 00            [ 8]  705 	ld	h, #0x00
      00027F 09               [ 8]  706 	add	hl, bc
      000280 4D               [ 4]  707 	ld	c, l
      000281 44               [ 4]  708 	ld	b, h
      000282 F8 0D            [12]  709 	ldhl	sp,	#13
      000284 7E               [ 8]  710 	ld	a, (hl)
      000285 02               [ 8]  711 	ld	(bc), a
                           000286   712 	C$SpriteManager.c$84$1_2$199	= .
                                    713 	.globl	C$SpriteManager.c$84$1_2$199
                                    714 ;C:/ZGB-2023.0/common/src/SpriteManager.c:84: if(i == last_sprite_pal_loaded)
      000286 FAr19r00         [16]  715 	ld	a, (#_last_sprite_pal_loaded)
      000289 F8 0D            [12]  716 	ldhl	sp,	#13
      00028B 96               [ 8]  717 	sub	a, (hl)
      00028C 20 26            [12]  718 	jr	NZ, 00111$
                           00028E   719 	C$SpriteManager.c$86$2_2$204	= .
                                    720 	.globl	C$SpriteManager.c$86$2_2$204
                                    721 ;C:/ZGB-2023.0/common/src/SpriteManager.c:86: SetPalette(SPRITES_PALETTE, last_sprite_pal_loaded, n_pals, data->palettes, _current_bank);
      00028E F8 0B            [12]  722 	ldhl	sp,#11
      000290 2A               [ 8]  723 	ld	a, (hl+)
      000291 5F               [ 4]  724 	ld	e, a
      000292 56               [ 8]  725 	ld	d, (hl)
      000293 1A               [ 8]  726 	ld	a, (de)
      000294 4F               [ 4]  727 	ld	c, a
      000295 13               [ 8]  728 	inc	de
      000296 1A               [ 8]  729 	ld	a, (de)
      000297 47               [ 4]  730 	ld	b, a
      000298 F0r00            [12]  731 	ldh	a, (__current_bank + 0)
      00029A F5               [16]  732 	push	af
      00029B 33               [ 8]  733 	inc	sp
      00029C C5               [16]  734 	push	bc
      00029D F8 06            [12]  735 	ldhl	sp,	#6
      00029F 7E               [ 8]  736 	ld	a, (hl)
      0002A0 F5               [16]  737 	push	af
      0002A1 33               [ 8]  738 	inc	sp
      0002A2 21r19r00         [12]  739 	ld	hl, #_last_sprite_pal_loaded
      0002A5 5E               [ 8]  740 	ld	e, (hl)
      0002A6 3E 01            [ 8]  741 	ld	a, #0x01
      0002A8 CDr00r00         [24]  742 	call	_SetPalette
                           0002AB   743 	C$SpriteManager.c$87$2_2$204	= .
                                    744 	.globl	C$SpriteManager.c$87$2_2$204
                                    745 ;C:/ZGB-2023.0/common/src/SpriteManager.c:87: last_sprite_pal_loaded += n_pals;
      0002AB FAr19r00         [16]  746 	ld	a, (#_last_sprite_pal_loaded)
      0002AE F8 03            [12]  747 	ldhl	sp,	#3
      0002B0 86               [ 8]  748 	add	a, (hl)
      0002B1 EAr19r00         [16]  749 	ld	(#_last_sprite_pal_loaded),a
      0002B4                        750 00111$:
                           0002B4   751 	C$SpriteManager.c$91$1_2$199	= .
                                    752 	.globl	C$SpriteManager.c$91$1_2$199
                                    753 ;C:/ZGB-2023.0/common/src/SpriteManager.c:91: POP_BANK
      0002B4 CDr00r00         [24]  754 	call	_PopBank
      0002B7                        755 00115$:
                           0002B7   756 	C$SpriteManager.c$92$1_2$197	= .
                                    757 	.globl	C$SpriteManager.c$92$1_2$197
                                    758 ;C:/ZGB-2023.0/common/src/SpriteManager.c:92: }
      0002B7 E8 0F            [16]  759 	add	sp, #15
                           0002B9   760 	C$SpriteManager.c$92$1_2$197	= .
                                    761 	.globl	C$SpriteManager.c$92$1_2$197
                           0002B9   762 	XG$SpriteManagerLoad$0$0	= .
                                    763 	.globl	XG$SpriteManagerLoad$0$0
      0002B9 C9               [16]  764 	ret
                           0002BA   765 	G$SpriteManagerAdd$0$0	= .
                                    766 	.globl	G$SpriteManagerAdd$0$0
                           0002BA   767 	C$SpriteManager.c$95$1_2$206	= .
                                    768 	.globl	C$SpriteManager.c$95$1_2$206
                                    769 ;C:/ZGB-2023.0/common/src/SpriteManager.c:95: Sprite* SpriteManagerAdd(UINT8 sprite_type, UINT16 x, UINT16 y) {
                                    770 ;	---------------------------------
                                    771 ; Function SpriteManagerAdd
                                    772 ; ---------------------------------
      0002BA                        773 _SpriteManagerAdd::
      0002BA E8 F5            [16]  774 	add	sp, #-11
      0002BC F8 0A            [12]  775 	ldhl	sp,	#10
      0002BE 32               [ 8]  776 	ld	(hl-), a
      0002BF 2B               [ 8]  777 	dec	hl
      0002C0 7B               [ 4]  778 	ld	a, e
      0002C1 22               [ 8]  779 	ld	(hl+), a
                           0002C2   780 	C$SpriteManager.c$100$1_0$206	= .
                                    781 	.globl	C$SpriteManager.c$100$1_0$206
                                    782 ;C:/ZGB-2023.0/common/src/SpriteManager.c:100: SpriteManagerLoad(sprite_type);
      0002C2 7A               [ 4]  783 	ld	a, d
      0002C3 22               [ 8]  784 	ld	(hl+), a
      0002C4 7E               [ 8]  785 	ld	a, (hl)
      0002C5 CDrDBr00         [24]  786 	call	_SpriteManagerLoad
                           0002C8   787 	C$SpriteManager.c$102$1_0$206	= .
                                    788 	.globl	C$SpriteManager.c$102$1_0$206
                                    789 ;C:/ZGB-2023.0/common/src/SpriteManager.c:102: sprite_idx = StackPop(sprite_manager_sprites_pool);
      0002C8 21r00r00         [12]  790 	ld	hl, #_sprite_manager_sprites_pool
      0002CB 2A               [ 8]  791 	ld	a, (hl+)
      0002CC 4F               [ 4]  792 	ld	c, a
      0002CD 46               [ 8]  793 	ld	b, (hl)
      0002CE 0A               [ 8]  794 	ld	a, (bc)
      0002CF F8 07            [12]  795 	ldhl	sp,	#7
      0002D1 77               [ 8]  796 	ld	(hl), a
      0002D2 21r00r00         [12]  797 	ld	hl, #_sprite_manager_sprites_pool
      0002D5 2A               [ 8]  798 	ld	a, (hl+)
      0002D6 5F               [ 4]  799 	ld	e, a
      0002D7 3A               [ 8]  800 	ld	a, (hl-)
      0002D8 57               [ 4]  801 	ld	d, a
      0002D9 1B               [ 8]  802 	dec	de
      0002DA 7B               [ 4]  803 	ld	a, e
      0002DB 22               [ 8]  804 	ld	(hl+), a
      0002DC 72               [ 8]  805 	ld	(hl), d
                           0002DD   806 	C$SpriteManager.c$103$1_0$206	= .
                                    807 	.globl	C$SpriteManager.c$103$1_0$206
                                    808 ;C:/ZGB-2023.0/common/src/SpriteManager.c:103: sprite = sprite_manager_sprites[sprite_idx];
      0002DD 01rBCr02         [12]  809 	ld	bc, #_sprite_manager_sprites+0
      0002E0 F8 07            [12]  810 	ldhl	sp,	#7
      0002E2 5E               [ 8]  811 	ld	e, (hl)
      0002E3 16 00            [ 8]  812 	ld	d, #0x00
      0002E5 6B               [ 4]  813 	ld	l, e
      0002E6 62               [ 4]  814 	ld	h, d
      0002E7 29               [ 8]  815 	add	hl, hl
      0002E8 09               [ 8]  816 	add	hl, bc
      0002E9 2A               [ 8]  817 	ld	a, (hl+)
      0002EA 4F               [ 4]  818 	ld	c, a
      0002EB 46               [ 8]  819 	ld	b, (hl)
                           0002EC   820 	C$SpriteManager.c$104$1_0$206	= .
                                    821 	.globl	C$SpriteManager.c$104$1_0$206
                                    822 ;C:/ZGB-2023.0/common/src/SpriteManager.c:104: sprite->type = sprite_type;
      0002EC 21 13 00         [12]  823 	ld	hl, #0x0013
      0002EF 09               [ 8]  824 	add	hl, bc
      0002F0 33               [ 8]  825 	inc	sp
      0002F1 33               [ 8]  826 	inc	sp
      0002F2 5D               [ 4]  827 	ld	e, l
      0002F3 54               [ 4]  828 	ld	d, h
      0002F4 D5               [16]  829 	push	de
      0002F5 F8 0A            [12]  830 	ldhl	sp,	#10
      0002F7 7E               [ 8]  831 	ld	a, (hl)
      0002F8 12               [ 8]  832 	ld	(de), a
                           0002F9   833 	C$SpriteManager.c$105$1_0$206	= .
                                    834 	.globl	C$SpriteManager.c$105$1_0$206
                                    835 ;C:/ZGB-2023.0/common/src/SpriteManager.c:105: sprite->marked_for_removal = 0;
      0002F9 21 14 00         [12]  836 	ld	hl, #0x0014
      0002FC 09               [ 8]  837 	add	hl, bc
      0002FD 36 00            [12]  838 	ld	(hl), #0x00
                           0002FF   839 	C$SpriteManager.c$106$1_0$206	= .
                                    840 	.globl	C$SpriteManager.c$106$1_0$206
                                    841 ;C:/ZGB-2023.0/common/src/SpriteManager.c:106: sprite->lim_x = 32u;
      0002FF 21 15 00         [12]  842 	ld	hl, #0x0015
      000302 09               [ 8]  843 	add	hl, bc
      000303 3E 20            [ 8]  844 	ld	a, #0x20
      000305 22               [ 8]  845 	ld	(hl+), a
      000306 36 00            [12]  846 	ld	(hl), #0x00
                           000308   847 	C$SpriteManager.c$107$1_0$206	= .
                                    848 	.globl	C$SpriteManager.c$107$1_0$206
                                    849 ;C:/ZGB-2023.0/common/src/SpriteManager.c:107: sprite->lim_y = 32u;
      000308 21 17 00         [12]  850 	ld	hl, #0x0017
      00030B 09               [ 8]  851 	add	hl, bc
      00030C 3E 20            [ 8]  852 	ld	a, #0x20
      00030E 22               [ 8]  853 	ld	(hl+), a
      00030F 36 00            [12]  854 	ld	(hl), #0x00
                           000311   855 	C$SpriteManager.c$108$1_0$206	= .
                                    856 	.globl	C$SpriteManager.c$108$1_0$206
                                    857 ;C:/ZGB-2023.0/common/src/SpriteManager.c:108: sprite->mirror = NO_MIRROR;
      000311 21 10 00         [12]  858 	ld	hl, #0x0010
      000314 09               [ 8]  859 	add	hl, bc
      000315 36 00            [12]  860 	ld	(hl), #0x00
                           000317   861 	C$SpriteManager.c$110$1_0$206	= .
                                    862 	.globl	C$SpriteManager.c$110$1_0$206
                                    863 ;C:/ZGB-2023.0/common/src/SpriteManager.c:110: VectorAdd(sprite_manager_updatables, sprite_idx);
      000317 C5               [16]  864 	push	bc
      000318 F8 09            [12]  865 	ldhl	sp,	#9
      00031A 7E               [ 8]  866 	ld	a, (hl)
      00031B 11r02r00         [12]  867 	ld	de, #_sprite_manager_updatables
      00031E CDr00r00         [24]  868 	call	_VectorAdd
      000321 C1               [12]  869 	pop	bc
                           000322   870 	C$SpriteManager.c$112$1_0$206	= .
                                    871 	.globl	C$SpriteManager.c$112$1_0$206
                                    872 ;C:/ZGB-2023.0/common/src/SpriteManager.c:112: InitSprite(sprite, sprite_type);
      000322 C5               [16]  873 	push	bc
      000323 F8 0C            [12]  874 	ldhl	sp,	#12
      000325 7E               [ 8]  875 	ld	a, (hl)
      000326 59               [ 4]  876 	ld	e, c
      000327 50               [ 4]  877 	ld	d, b
      000328 CDr00r00         [24]  878 	call	_InitSprite
      00032B C1               [12]  879 	pop	bc
                           00032C   880 	C$SpriteManager.c$113$1_0$206	= .
                                    881 	.globl	C$SpriteManager.c$113$1_0$206
                                    882 ;C:/ZGB-2023.0/common/src/SpriteManager.c:113: sprite->x = x;
      00032C 21 0C 00         [12]  883 	ld	hl, #0x000c
      00032F 09               [ 8]  884 	add	hl, bc
      000330 5D               [ 4]  885 	ld	e, l
      000331 54               [ 4]  886 	ld	d, h
      000332 F8 08            [12]  887 	ldhl	sp,	#8
      000334 2A               [ 8]  888 	ld	a, (hl+)
      000335 12               [ 8]  889 	ld	(de), a
      000336 13               [ 8]  890 	inc	de
      000337 7E               [ 8]  891 	ld	a, (hl)
      000338 12               [ 8]  892 	ld	(de), a
                           000339   893 	C$SpriteManager.c$114$1_0$206	= .
                                    894 	.globl	C$SpriteManager.c$114$1_0$206
                                    895 ;C:/ZGB-2023.0/common/src/SpriteManager.c:114: sprite->y = y;
      000339 21 0E 00         [12]  896 	ld	hl, #0x000e
      00033C 09               [ 8]  897 	add	hl, bc
      00033D 5D               [ 4]  898 	ld	e, l
      00033E 54               [ 4]  899 	ld	d, h
      00033F F8 0D            [12]  900 	ldhl	sp,	#13
      000341 2A               [ 8]  901 	ld	a, (hl+)
      000342 12               [ 8]  902 	ld	(de), a
      000343 13               [ 8]  903 	inc	de
      000344 7E               [ 8]  904 	ld	a, (hl)
      000345 12               [ 8]  905 	ld	(de), a
                           000346   906 	C$SpriteManager.c$115$1_0$206	= .
                                    907 	.globl	C$SpriteManager.c$115$1_0$206
                                    908 ;C:/ZGB-2023.0/common/src/SpriteManager.c:115: sprite->unique_id = SPRITE_UNIQUE_ID(x >> 3, (y + sprite->coll_h - 1) >> 3);
      000346 21 19 00         [12]  909 	ld	hl, #0x0019
      000349 09               [ 8]  910 	add	hl, bc
      00034A E5               [16]  911 	push	hl
      00034B 7D               [ 4]  912 	ld	a, l
      00034C F8 04            [12]  913 	ldhl	sp,	#4
      00034E 77               [ 8]  914 	ld	(hl), a
      00034F E1               [12]  915 	pop	hl
      000350 7C               [ 4]  916 	ld	a, h
      000351 F8 03            [12]  917 	ldhl	sp,	#3
      000353 77               [ 8]  918 	ld	(hl), a
      000354 F8 08            [12]  919 	ldhl	sp,#8
      000356 2A               [ 8]  920 	ld	a, (hl+)
      000357 5F               [ 4]  921 	ld	e, a
      000358 56               [ 8]  922 	ld	d, (hl)
      000359 CB 3A            [ 8]  923 	srl	d
      00035B CB 1B            [ 8]  924 	rr	e
      00035D CB 3A            [ 8]  925 	srl	d
      00035F CB 1B            [ 8]  926 	rr	e
      000361 CB 3A            [ 8]  927 	srl	d
      000363 CB 1B            [ 8]  928 	rr	e
      000365 F8 04            [12]  929 	ldhl	sp,	#4
      000367 7B               [ 4]  930 	ld	a, e
      000368 22               [ 8]  931 	ld	(hl+), a
      000369 36 00            [12]  932 	ld	(hl), #0x00
      00036B 21 12 00         [12]  933 	ld	hl, #0x0012
      00036E 09               [ 8]  934 	add	hl, bc
      00036F 5E               [ 8]  935 	ld	e, (hl)
      000370 16 00            [ 8]  936 	ld	d, #0x00
      000372 F8 0D            [12]  937 	ldhl	sp,	#13
      000374 2A               [ 8]  938 	ld	a,	(hl+)
      000375 66               [ 8]  939 	ld	h, (hl)
      000376 6F               [ 4]  940 	ld	l, a
      000377 19               [ 8]  941 	add	hl, de
      000378 5D               [ 4]  942 	ld	e, l
      000379 54               [ 4]  943 	ld	d, h
      00037A 1B               [ 8]  944 	dec	de
      00037B CB 3A            [ 8]  945 	srl	d
      00037D CB 1B            [ 8]  946 	rr	e
      00037F CB 3A            [ 8]  947 	srl	d
      000381 CB 1B            [ 8]  948 	rr	e
      000383 CB 3A            [ 8]  949 	srl	d
      000385 CB 1B            [ 8]  950 	rr	e
      000387 F8 04            [12]  951 	ldhl	sp,	#4
      000389 2A               [ 8]  952 	ld	a, (hl+)
      00038A 23               [ 8]  953 	inc	hl
      00038B 22               [ 8]  954 	ld	(hl+), a
      00038C 73               [ 8]  955 	ld	(hl), e
      00038D F8 02            [12]  956 	ldhl	sp,#2
      00038F 2A               [ 8]  957 	ld	a, (hl+)
      000390 5F               [ 4]  958 	ld	e, a
      000391 56               [ 8]  959 	ld	d, (hl)
      000392 F8 06            [12]  960 	ldhl	sp,	#6
      000394 2A               [ 8]  961 	ld	a, (hl+)
      000395 12               [ 8]  962 	ld	(de), a
      000396 13               [ 8]  963 	inc	de
      000397 7E               [ 8]  964 	ld	a, (hl)
      000398 12               [ 8]  965 	ld	(de), a
                           000399   966 	C$SpriteManager.c$118$1_0$206	= .
                                    967 	.globl	C$SpriteManager.c$118$1_0$206
                                    968 ;C:/ZGB-2023.0/common/src/SpriteManager.c:118: cachedSprite = THIS;
      000399 FAr1Br00         [16]  969 	ld	a, (#_THIS)
      00039C EArF9r02         [16]  970 	ld	(#_cachedSprite),a
      00039F FAr1Cr00         [16]  971 	ld	a, (#_THIS + 1)
      0003A2 EArFAr02         [16]  972 	ld	(#_cachedSprite + 1),a
                           0003A5   973 	C$SpriteManager.c$119$1_0$206	= .
                                    974 	.globl	C$SpriteManager.c$119$1_0$206
                                    975 ;C:/ZGB-2023.0/common/src/SpriteManager.c:119: spriteIdxTmp = THIS_IDX;
      0003A5 FAr1Ar00         [16]  976 	ld	a, (#_THIS_IDX)
      0003A8 F8 07            [12]  977 	ldhl	sp,	#7
      0003AA 77               [ 8]  978 	ld	(hl), a
                           0003AB   979 	C$SpriteManager.c$120$1_0$206	= .
                                    980 	.globl	C$SpriteManager.c$120$1_0$206
                                    981 ;C:/ZGB-2023.0/common/src/SpriteManager.c:120: THIS = sprite;
      0003AB 21r1Br00         [12]  982 	ld	hl, #_THIS
      0003AE 79               [ 4]  983 	ld	a, c
      0003AF 22               [ 8]  984 	ld	(hl+), a
      0003B0 70               [ 8]  985 	ld	(hl), b
                           0003B1   986 	C$SpriteManager.c$121$1_0$206	= .
                                    987 	.globl	C$SpriteManager.c$121$1_0$206
                                    988 ;C:/ZGB-2023.0/common/src/SpriteManager.c:121: THIS_IDX = sprite_manager_updatables[0] - 1;
      0003B1 FAr02r00         [16]  989 	ld	a, (#_sprite_manager_updatables + 0)
      0003B4 3D               [ 4]  990 	dec	a
      0003B5 EAr1Ar00         [16]  991 	ld	(#_THIS_IDX),a
                           0003B8   992 	C$SpriteManager.c$122$1_0$206	= .
                                    993 	.globl	C$SpriteManager.c$122$1_0$206
                                    994 ;C:/ZGB-2023.0/common/src/SpriteManager.c:122: PUSH_BANK(spriteBanks[sprite->type]);
      0003B8 D1               [12]  995 	pop	de
      0003B9 D5               [16]  996 	push	de
      0003BA 1A               [ 8]  997 	ld	a, (de)
      0003BB C6r00            [ 8]  998 	add	a, #<(_spriteBanks)
      0003BD 5F               [ 4]  999 	ld	e, a
      0003BE 3E 00            [ 8] 1000 	ld	a, #0x00
      0003C0 CEs00            [ 8] 1001 	adc	a, #>(_spriteBanks)
      0003C2 57               [ 4] 1002 	ld	d, a
      0003C3 1A               [ 8] 1003 	ld	a, (de)
      0003C4 C5               [16] 1004 	push	bc
      0003C5 F5               [16] 1005 	push	af
      0003C6 33               [ 8] 1006 	inc	sp
      0003C7 CDr00r00         [24] 1007 	call	_PushBank
      0003CA 33               [ 8] 1008 	inc	sp
      0003CB C1               [12] 1009 	pop	bc
                           0003CC  1010 	C$SpriteManager.c$123$1_0$206	= .
                                   1011 	.globl	C$SpriteManager.c$123$1_0$206
                                   1012 ;C:/ZGB-2023.0/common/src/SpriteManager.c:123: spriteStartFuncs[sprite->type]();
      0003CC D1               [12] 1013 	pop	de
      0003CD D5               [16] 1014 	push	de
      0003CE 1A               [ 8] 1015 	ld	a, (de)
      0003CF 26 00            [ 8] 1016 	ld	h, #0x00
                                   1017 ;	spillPairReg hl
                                   1018 ;	spillPairReg hl
      0003D1 6F               [ 4] 1019 	ld	l, a
      0003D2 29               [ 8] 1020 	add	hl, hl
      0003D3 11r00r00         [12] 1021 	ld	de, #_spriteStartFuncs
      0003D6 19               [ 8] 1022 	add	hl, de
      0003D7 2A               [ 8] 1023 	ld	a,	(hl+)
      0003D8 66               [ 8] 1024 	ld	h, (hl)
                                   1025 ;	spillPairReg hl
      0003D9 6F               [ 4] 1026 	ld	l, a
                                   1027 ;	spillPairReg hl
                                   1028 ;	spillPairReg hl
      0003DA C5               [16] 1029 	push	bc
      0003DB CDr00r00         [24] 1030 	call	___sdcc_call_hl
      0003DE CDr00r00         [24] 1031 	call	_PopBank
      0003E1 C1               [12] 1032 	pop	bc
                           0003E2  1033 	C$SpriteManager.c$126$1_0$206	= .
                                   1034 	.globl	C$SpriteManager.c$126$1_0$206
                                   1035 ;C:/ZGB-2023.0/common/src/SpriteManager.c:126: THIS = cachedSprite;
      0003E2 FArF9r02         [16] 1036 	ld	a, (#_cachedSprite)
      0003E5 EAr1Br00         [16] 1037 	ld	(#_THIS),a
      0003E8 FArFAr02         [16] 1038 	ld	a, (#_cachedSprite + 1)
      0003EB EAr1Cr00         [16] 1039 	ld	(#_THIS + 1),a
                           0003EE  1040 	C$SpriteManager.c$127$1_0$206	= .
                                   1041 	.globl	C$SpriteManager.c$127$1_0$206
                                   1042 ;C:/ZGB-2023.0/common/src/SpriteManager.c:127: THIS_IDX = spriteIdxTmp;
      0003EE F8 07            [12] 1043 	ldhl	sp,	#7
      0003F0 7E               [ 8] 1044 	ld	a, (hl)
      0003F1 EAr1Ar00         [16] 1045 	ld	(#_THIS_IDX),a
                           0003F4  1046 	C$SpriteManager.c$128$1_0$206	= .
                                   1047 	.globl	C$SpriteManager.c$128$1_0$206
                                   1048 ;C:/ZGB-2023.0/common/src/SpriteManager.c:128: return sprite;
                           0003F4  1049 	C$SpriteManager.c$129$1_0$206	= .
                                   1050 	.globl	C$SpriteManager.c$129$1_0$206
                                   1051 ;C:/ZGB-2023.0/common/src/SpriteManager.c:129: }
      0003F4 E8 0B            [16] 1052 	add	sp, #11
      0003F6 E1               [12] 1053 	pop	hl
      0003F7 F1               [12] 1054 	pop	af
      0003F8 E9               [ 4] 1055 	jp	(hl)
                           0003F9  1056 	G$SpriteManagerRemove$0$0	= .
                                   1057 	.globl	G$SpriteManagerRemove$0$0
                           0003F9  1058 	C$SpriteManager.c$131$1_0$208	= .
                                   1059 	.globl	C$SpriteManager.c$131$1_0$208
                                   1060 ;C:/ZGB-2023.0/common/src/SpriteManager.c:131: void SpriteManagerRemove(int idx) {
                                   1061 ;	---------------------------------
                                   1062 ; Function SpriteManagerRemove
                                   1063 ; ---------------------------------
      0003F9                       1064 _SpriteManagerRemove::
                           0003F9  1065 	C$SpriteManager.c$132$1_0$208	= .
                                   1066 	.globl	C$SpriteManager.c$132$1_0$208
                                   1067 ;C:/ZGB-2023.0/common/src/SpriteManager.c:132: sprite_manager_removal_check = 1;
      0003F9 21rF8r02         [12] 1068 	ld	hl, #_sprite_manager_removal_check
      0003FC 36 01            [12] 1069 	ld	(hl), #0x01
                           0003FE  1070 	C$SpriteManager.c$133$1_0$208	= .
                                   1071 	.globl	C$SpriteManager.c$133$1_0$208
                                   1072 ;C:/ZGB-2023.0/common/src/SpriteManager.c:133: sprite_manager_sprites[sprite_manager_updatables[idx + 1]]->marked_for_removal = 1;
      0003FE 01rBCr02         [12] 1073 	ld	bc, #_sprite_manager_sprites+0
      000401 1C               [ 4] 1074 	inc	e
      000402 7B               [ 4] 1075 	ld	a, e
      000403 07               [ 4] 1076 	rlca
      000404 9F               [ 4] 1077 	sbc	a, a
      000405 57               [ 4] 1078 	ld	d, a
      000406 21r02r00         [12] 1079 	ld	hl, #_sprite_manager_updatables
      000409 19               [ 8] 1080 	add	hl, de
      00040A 6E               [ 8] 1081 	ld	l, (hl)
                                   1082 ;	spillPairReg hl
      00040B 26 00            [ 8] 1083 	ld	h, #0x00
                                   1084 ;	spillPairReg hl
                                   1085 ;	spillPairReg hl
      00040D 29               [ 8] 1086 	add	hl, hl
      00040E 09               [ 8] 1087 	add	hl, bc
      00040F 2A               [ 8] 1088 	ld	a, (hl+)
      000410 4F               [ 4] 1089 	ld	c, a
      000411 46               [ 8] 1090 	ld	b, (hl)
      000412 21 14 00         [12] 1091 	ld	hl, #0x0014
      000415 09               [ 8] 1092 	add	hl, bc
      000416 36 01            [12] 1093 	ld	(hl), #0x01
                           000418  1094 	C$SpriteManager.c$134$1_0$208	= .
                                   1095 	.globl	C$SpriteManager.c$134$1_0$208
                                   1096 ;C:/ZGB-2023.0/common/src/SpriteManager.c:134: }
                           000418  1097 	C$SpriteManager.c$134$1_0$208	= .
                                   1098 	.globl	C$SpriteManager.c$134$1_0$208
                           000418  1099 	XG$SpriteManagerRemove$0$0	= .
                                   1100 	.globl	XG$SpriteManagerRemove$0$0
      000418 C9               [16] 1101 	ret
                           000419  1102 	G$SpriteManagerRemoveSprite$0$0	= .
                                   1103 	.globl	G$SpriteManagerRemoveSprite$0$0
                           000419  1104 	C$SpriteManager.c$136$1_0$211	= .
                                   1105 	.globl	C$SpriteManager.c$136$1_0$211
                                   1106 ;C:/ZGB-2023.0/common/src/SpriteManager.c:136: void SpriteManagerRemoveSprite(Sprite* sprite) {
                                   1107 ;	---------------------------------
                                   1108 ; Function SpriteManagerRemoveSprite
                                   1109 ; ---------------------------------
      000419                       1110 _SpriteManagerRemoveSprite::
      000419 E8 FC            [16] 1111 	add	sp, #-4
      00041B F8 02            [12] 1112 	ldhl	sp,	#2
      00041D 7B               [ 4] 1113 	ld	a, e
      00041E 22               [ 8] 1114 	ld	(hl+), a
      00041F 72               [ 8] 1115 	ld	(hl), d
                           000420  1116 	C$SpriteManager.c$139$2_0$211	= .
                                   1117 	.globl	C$SpriteManager.c$139$2_0$211
                                   1118 ;C:/ZGB-2023.0/common/src/SpriteManager.c:139: for(i = 0u; i != sprite_manager_updatables[0]; ++i) {
      000420 01 00 00         [12] 1119 	ld	bc, #0x0
      000423                       1120 00105$:
      000423 21r02r00         [12] 1121 	ld	hl, #_sprite_manager_updatables
      000426 6E               [ 8] 1122 	ld	l, (hl)
                                   1123 ;	spillPairReg hl
                           000427  1124 	C$SpriteManager.c$140$3_0$212	= .
                                   1125 	.globl	C$SpriteManager.c$140$3_0$212
                                   1126 ;C:/ZGB-2023.0/common/src/SpriteManager.c:140: s = sprite_manager_sprites[sprite_manager_updatables[i + 1]];
      000427 78               [ 4] 1127 	ld	a,b
      000428 BD               [ 4] 1128 	cp	a,l
      000429 28 33            [12] 1129 	jr	Z, 00107$
      00042B 3C               [ 4] 1130 	inc	a
      00042C 5F               [ 4] 1131 	ld	e, a
      00042D 07               [ 4] 1132 	rlca
      00042E 9F               [ 4] 1133 	sbc	a, a
      00042F 57               [ 4] 1134 	ld	d, a
      000430 21r02r00         [12] 1135 	ld	hl, #_sprite_manager_updatables
      000433 19               [ 8] 1136 	add	hl, de
      000434 6E               [ 8] 1137 	ld	l, (hl)
                                   1138 ;	spillPairReg hl
      000435 26 00            [ 8] 1139 	ld	h, #0x00
                                   1140 ;	spillPairReg hl
                                   1141 ;	spillPairReg hl
      000437 29               [ 8] 1142 	add	hl, hl
      000438 11rBCr02         [12] 1143 	ld	de, #_sprite_manager_sprites
      00043B 19               [ 8] 1144 	add	hl, de
      00043C 5D               [ 4] 1145 	ld	e, l
      00043D 54               [ 4] 1146 	ld	d, h
      00043E 1A               [ 8] 1147 	ld	a, (de)
      00043F F8 00            [12] 1148 	ldhl	sp,	#0
      000441 22               [ 8] 1149 	ld	(hl+), a
      000442 13               [ 8] 1150 	inc	de
      000443 1A               [ 8] 1151 	ld	a, (de)
      000444 77               [ 8] 1152 	ld	(hl), a
                           000445  1153 	C$SpriteManager.c$141$3_0$212	= .
                                   1154 	.globl	C$SpriteManager.c$141$3_0$212
                                   1155 ;C:/ZGB-2023.0/common/src/SpriteManager.c:141: if(s == sprite) {
      000445 F8 02            [12] 1156 	ldhl	sp,	#2
      000447 3A               [ 8] 1157 	ld	a, (hl-)
      000448 2B               [ 8] 1158 	dec	hl
      000449 96               [ 8] 1159 	sub	a, (hl)
      00044A 20 0E            [12] 1160 	jr	NZ, 00106$
      00044C F8 03            [12] 1161 	ldhl	sp,	#3
      00044E 3A               [ 8] 1162 	ld	a, (hl-)
      00044F 2B               [ 8] 1163 	dec	hl
                           000450  1164 	C$SpriteManager.c$142$4_0$213	= .
                                   1165 	.globl	C$SpriteManager.c$142$4_0$213
                                   1166 ;C:/ZGB-2023.0/common/src/SpriteManager.c:142: SpriteManagerRemove(i);
      000450 96               [ 8] 1167 	sub	a,(hl)
      000451 20 07            [12] 1168 	jr	NZ, 00106$
      000453 57               [ 4] 1169 	ld	d,a
      000454 59               [ 4] 1170 	ld	e, c
      000455 CDrF9r03         [24] 1171 	call	_SpriteManagerRemove
                           000458  1172 	C$SpriteManager.c$143$4_0$213	= .
                                   1173 	.globl	C$SpriteManager.c$143$4_0$213
                                   1174 ;C:/ZGB-2023.0/common/src/SpriteManager.c:143: break;
      000458 18 04            [12] 1175 	jr	00107$
      00045A                       1176 00106$:
                           00045A  1177 	C$SpriteManager.c$139$2_0$211	= .
                                   1178 	.globl	C$SpriteManager.c$139$2_0$211
                                   1179 ;C:/ZGB-2023.0/common/src/SpriteManager.c:139: for(i = 0u; i != sprite_manager_updatables[0]; ++i) {
      00045A 04               [ 4] 1180 	inc	b
      00045B 48               [ 4] 1181 	ld	c, b
      00045C 18 C5            [12] 1182 	jr	00105$
      00045E                       1183 00107$:
                           00045E  1184 	C$SpriteManager.c$146$2_0$211	= .
                                   1185 	.globl	C$SpriteManager.c$146$2_0$211
                                   1186 ;C:/ZGB-2023.0/common/src/SpriteManager.c:146: }
      00045E E8 04            [16] 1187 	add	sp, #4
                           000460  1188 	C$SpriteManager.c$146$2_0$211	= .
                                   1189 	.globl	C$SpriteManager.c$146$2_0$211
                           000460  1190 	XG$SpriteManagerRemoveSprite$0$0	= .
                                   1191 	.globl	XG$SpriteManagerRemoveSprite$0$0
      000460 C9               [16] 1192 	ret
                           000461  1193 	G$SpriteManagerFlushRemove$0$0	= .
                                   1194 	.globl	G$SpriteManagerFlushRemove$0$0
                           000461  1195 	C$SpriteManager.c$148$2_0$214	= .
                                   1196 	.globl	C$SpriteManager.c$148$2_0$214
                                   1197 ;C:/ZGB-2023.0/common/src/SpriteManager.c:148: void SpriteManagerFlushRemove() {
                                   1198 ;	---------------------------------
                                   1199 ; Function SpriteManagerFlushRemove
                                   1200 ; ---------------------------------
      000461                       1201 _SpriteManagerFlushRemove::
      000461 3B               [ 8] 1202 	dec	sp
      000462 3B               [ 8] 1203 	dec	sp
                           000463  1204 	C$SpriteManager.c$150$2_0$215	= .
                                   1205 	.globl	C$SpriteManager.c$150$2_0$215
                                   1206 ;C:/ZGB-2023.0/common/src/SpriteManager.c:150: for(THIS_IDX = sprite_manager_updatables[0] - 1u; (UINT8)(THIS_IDX + 1u) != 0u; THIS_IDX --) {
      000463 FAr02r00         [16] 1207 	ld	a, (#_sprite_manager_updatables + 0)
      000466 3D               [ 4] 1208 	dec	a
      000467 EAr1Ar00         [16] 1209 	ld	(#_THIS_IDX),a
      00046A                       1210 00105$:
      00046A 21r1Ar00         [12] 1211 	ld	hl, #_THIS_IDX
      00046D 4E               [ 8] 1212 	ld	c, (hl)
      00046E 0C               [ 4] 1213 	inc	c
      00046F 79               [ 4] 1214 	ld	a, c
      000470 CArF5r04         [16] 1215 	jp	Z, 00103$
                           000473  1216 	C$SpriteManager.c$151$3_0$216	= .
                                   1217 	.globl	C$SpriteManager.c$151$3_0$216
                                   1218 ;C:/ZGB-2023.0/common/src/SpriteManager.c:151: THIS = sprite_manager_sprites[sprite_manager_updatables[THIS_IDX + 1u]];
      000473 59               [ 4] 1219 	ld	e, c
      000474 16 00            [ 8] 1220 	ld	d, #0x00
      000476 21r02r00         [12] 1221 	ld	hl, #_sprite_manager_updatables
      000479 19               [ 8] 1222 	add	hl, de
      00047A 33               [ 8] 1223 	inc	sp
      00047B 33               [ 8] 1224 	inc	sp
      00047C 5D               [ 4] 1225 	ld	e, l
      00047D 54               [ 4] 1226 	ld	d, h
      00047E D5               [16] 1227 	push	de
      00047F 1A               [ 8] 1228 	ld	a, (de)
      000480 26 00            [ 8] 1229 	ld	h, #0x00
                                   1230 ;	spillPairReg hl
                                   1231 ;	spillPairReg hl
      000482 6F               [ 4] 1232 	ld	l, a
      000483 29               [ 8] 1233 	add	hl, hl
      000484 11rBCr02         [12] 1234 	ld	de, #_sprite_manager_sprites
      000487 19               [ 8] 1235 	add	hl, de
      000488 5D               [ 4] 1236 	ld	e, l
      000489 54               [ 4] 1237 	ld	d, h
      00048A 1A               [ 8] 1238 	ld	a, (de)
      00048B 21r1Br00         [12] 1239 	ld	hl, #_THIS
      00048E 22               [ 8] 1240 	ld	(hl+), a
      00048F 13               [ 8] 1241 	inc	de
      000490 1A               [ 8] 1242 	ld	a, (de)
      000491 77               [ 8] 1243 	ld	(hl), a
                           000492  1244 	C$SpriteManager.c$152$3_0$216	= .
                                   1245 	.globl	C$SpriteManager.c$152$3_0$216
                                   1246 ;C:/ZGB-2023.0/common/src/SpriteManager.c:152: if(THIS->marked_for_removal) {
      000492 21r1Br00         [12] 1247 	ld	hl, #_THIS
      000495 2A               [ 8] 1248 	ld	a, (hl+)
      000496 4F               [ 4] 1249 	ld	c, a
      000497 46               [ 8] 1250 	ld	b, (hl)
      000498 21 14 00         [12] 1251 	ld	hl, #0x0014
      00049B 09               [ 8] 1252 	add	hl, bc
      00049C 7E               [ 8] 1253 	ld	a, (hl)
      00049D B7               [ 4] 1254 	or	a, a
      00049E 28 4E            [12] 1255 	jr	Z, 00106$
                           0004A0  1256 	C$SpriteManager.c$153$4_0$217	= .
                                   1257 	.globl	C$SpriteManager.c$153$4_0$217
                                   1258 ;C:/ZGB-2023.0/common/src/SpriteManager.c:153: StackPush(sprite_manager_sprites_pool, sprite_manager_updatables[THIS_IDX + 1u]);
      0004A0 21r00r00         [12] 1259 	ld	hl, #_sprite_manager_sprites_pool
      0004A3 34               [12] 1260 	inc	(hl)
      0004A4 20 02            [12] 1261 	jr	NZ, 00130$
      0004A6 23               [ 8] 1262 	inc	hl
      0004A7 34               [12] 1263 	inc	(hl)
      0004A8                       1264 00130$:
      0004A8 21r00r00         [12] 1265 	ld	hl, #_sprite_manager_sprites_pool
      0004AB 2A               [ 8] 1266 	ld	a, (hl+)
      0004AC 4F               [ 4] 1267 	ld	c, a
      0004AD 46               [ 8] 1268 	ld	b, (hl)
      0004AE D1               [12] 1269 	pop	de
      0004AF D5               [16] 1270 	push	de
      0004B0 1A               [ 8] 1271 	ld	a, (de)
      0004B1 02               [ 8] 1272 	ld	(bc), a
                           0004B2  1273 	C$SpriteManager.c$154$4_0$217	= .
                                   1274 	.globl	C$SpriteManager.c$154$4_0$217
                                   1275 ;C:/ZGB-2023.0/common/src/SpriteManager.c:154: VectorRemovePos(sprite_manager_updatables, THIS_IDX);
      0004B2 FAr1Ar00         [16] 1276 	ld	a, (#_THIS_IDX)
      0004B5 11r02r00         [12] 1277 	ld	de, #_sprite_manager_updatables
      0004B8 CDr00r00         [24] 1278 	call	_VectorRemovePos
                           0004BB  1279 	C$SpriteManager.c$156$4_0$217	= .
                                   1280 	.globl	C$SpriteManager.c$156$4_0$217
                                   1281 ;C:/ZGB-2023.0/common/src/SpriteManager.c:156: PUSH_BANK(spriteBanks[THIS->type]);
      0004BB 21r1Br00         [12] 1282 	ld	hl, #_THIS
      0004BE 2A               [ 8] 1283 	ld	a, (hl+)
      0004BF 4F               [ 4] 1284 	ld	c, a
      0004C0 46               [ 8] 1285 	ld	b, (hl)
      0004C1 21 13 00         [12] 1286 	ld	hl, #0x0013
      0004C4 09               [ 8] 1287 	add	hl, bc
      0004C5 4E               [ 8] 1288 	ld	c, (hl)
      0004C6 21r00r00         [12] 1289 	ld	hl, #_spriteBanks
      0004C9 06 00            [ 8] 1290 	ld	b, #0x00
      0004CB 09               [ 8] 1291 	add	hl, bc
      0004CC 7E               [ 8] 1292 	ld	a, (hl)
      0004CD F5               [16] 1293 	push	af
      0004CE 33               [ 8] 1294 	inc	sp
      0004CF CDr00r00         [24] 1295 	call	_PushBank
      0004D2 33               [ 8] 1296 	inc	sp
                           0004D3  1297 	C$SpriteManager.c$157$4_0$217	= .
                                   1298 	.globl	C$SpriteManager.c$157$4_0$217
                                   1299 ;C:/ZGB-2023.0/common/src/SpriteManager.c:157: spriteDestroyFuncs[THIS->type]();
      0004D3 21r1Br00         [12] 1300 	ld	hl, #_THIS
      0004D6 2A               [ 8] 1301 	ld	a, (hl+)
      0004D7 4F               [ 4] 1302 	ld	c, a
      0004D8 46               [ 8] 1303 	ld	b, (hl)
      0004D9 21 13 00         [12] 1304 	ld	hl, #0x0013
      0004DC 09               [ 8] 1305 	add	hl, bc
      0004DD 6E               [ 8] 1306 	ld	l, (hl)
                                   1307 ;	spillPairReg hl
      0004DE 26 00            [ 8] 1308 	ld	h, #0x00
                                   1309 ;	spillPairReg hl
                                   1310 ;	spillPairReg hl
      0004E0 29               [ 8] 1311 	add	hl, hl
      0004E1 11r00r00         [12] 1312 	ld	de, #_spriteDestroyFuncs
      0004E4 19               [ 8] 1313 	add	hl, de
      0004E5 2A               [ 8] 1314 	ld	a,	(hl+)
      0004E6 66               [ 8] 1315 	ld	h, (hl)
                                   1316 ;	spillPairReg hl
      0004E7 6F               [ 4] 1317 	ld	l, a
                                   1318 ;	spillPairReg hl
                                   1319 ;	spillPairReg hl
      0004E8 CDr00r00         [24] 1320 	call	___sdcc_call_hl
                           0004EB  1321 	C$SpriteManager.c$158$4_0$217	= .
                                   1322 	.globl	C$SpriteManager.c$158$4_0$217
                                   1323 ;C:/ZGB-2023.0/common/src/SpriteManager.c:158: POP_BANK;
      0004EB CDr00r00         [24] 1324 	call	_PopBank
      0004EE                       1325 00106$:
                           0004EE  1326 	C$SpriteManager.c$150$2_0$215	= .
                                   1327 	.globl	C$SpriteManager.c$150$2_0$215
                                   1328 ;C:/ZGB-2023.0/common/src/SpriteManager.c:150: for(THIS_IDX = sprite_manager_updatables[0] - 1u; (UINT8)(THIS_IDX + 1u) != 0u; THIS_IDX --) {
      0004EE 21r1Ar00         [12] 1329 	ld	hl, #_THIS_IDX
      0004F1 35               [12] 1330 	dec	(hl)
      0004F2 C3r6Ar04         [16] 1331 	jp	00105$
      0004F5                       1332 00103$:
                           0004F5  1333 	C$SpriteManager.c$161$1_0$214	= .
                                   1334 	.globl	C$SpriteManager.c$161$1_0$214
                                   1335 ;C:/ZGB-2023.0/common/src/SpriteManager.c:161: sprite_manager_removal_check = 0;
      0004F5 21rF8r02         [12] 1336 	ld	hl, #_sprite_manager_removal_check
      0004F8 36 00            [12] 1337 	ld	(hl), #0x00
                           0004FA  1338 	C$SpriteManager.c$162$1_0$214	= .
                                   1339 	.globl	C$SpriteManager.c$162$1_0$214
                                   1340 ;C:/ZGB-2023.0/common/src/SpriteManager.c:162: }
      0004FA 33               [ 8] 1341 	inc	sp
      0004FB 33               [ 8] 1342 	inc	sp
                           0004FC  1343 	C$SpriteManager.c$162$1_0$214	= .
                                   1344 	.globl	C$SpriteManager.c$162$1_0$214
                           0004FC  1345 	XG$SpriteManagerFlushRemove$0$0	= .
                                   1346 	.globl	XG$SpriteManagerFlushRemove$0$0
      0004FC C9               [16] 1347 	ret
                           0004FD  1348 	G$SetBank$0$0	= .
                                   1349 	.globl	G$SetBank$0$0
                           0004FD  1350 	C$SpriteManager.c$164$1_0$219	= .
                                   1351 	.globl	C$SpriteManager.c$164$1_0$219
                                   1352 ;C:/ZGB-2023.0/common/src/SpriteManager.c:164: void SetBank(UINT8 bank) OLDCALL
                                   1353 ;	---------------------------------
                                   1354 ; Function SetBank
                                   1355 ; ---------------------------------
      0004FD                       1356 _SetBank::
                           0004FD  1357 	C$SpriteManager.c$174$1_0$219	= .
                                   1358 	.globl	C$SpriteManager.c$174$1_0$219
                                   1359 ;C:/ZGB-2023.0/common/src/SpriteManager.c:174: __endasm;
      0004FD F8 02            [12] 1360 	ldhl	sp, #2
      0004FF 7E               [ 8] 1361 	ld	a, (hl)
      000500 EAr00r00         [16] 1362 	ld	(#__current_bank), a
      000503 EA 00 20         [16] 1363 	ld	(#0x2000), a
                           000506  1364 	C$SpriteManager.c$175$1_0$219	= .
                                   1365 	.globl	C$SpriteManager.c$175$1_0$219
                                   1366 ;C:/ZGB-2023.0/common/src/SpriteManager.c:175: }
                           000506  1367 	C$SpriteManager.c$175$1_0$219	= .
                                   1368 	.globl	C$SpriteManager.c$175$1_0$219
                           000506  1369 	XG$SetBank$0$0	= .
                                   1370 	.globl	XG$SetBank$0$0
      000506 C9               [16] 1371 	ret
                           000507  1372 	G$SpriteManagerUpdate$0$0	= .
                                   1373 	.globl	G$SpriteManagerUpdate$0$0
                           000507  1374 	C$SpriteManager.c$182$1_0$220	= .
                                   1375 	.globl	C$SpriteManager.c$182$1_0$220
                                   1376 ;C:/ZGB-2023.0/common/src/SpriteManager.c:182: void SpriteManagerUpdate() {
                                   1377 ;	---------------------------------
                                   1378 ; Function SpriteManagerUpdate
                                   1379 ; ---------------------------------
      000507                       1380 _SpriteManagerUpdate::
      000507 3B               [ 8] 1381 	dec	sp
      000508 3B               [ 8] 1382 	dec	sp
                           000509  1383 	C$SpriteManager.c$183$2_0$221	= .
                                   1384 	.globl	C$SpriteManager.c$183$2_0$221
                                   1385 ;C:/ZGB-2023.0/common/src/SpriteManager.c:183: SPRITEMANAGER_ITERATE(THIS_IDX, THIS) {
      000509 21r1Ar00         [12] 1386 	ld	hl, #_THIS_IDX
      00050C 36 00            [12] 1387 	ld	(hl), #0x00
      00050E FAr03r00         [16] 1388 	ld	a, (#(_sprite_manager_updatables + 1) + 0)
      000511 6F               [ 4] 1389 	ld	l, a
                                   1390 ;	spillPairReg hl
                                   1391 ;	spillPairReg hl
      000512 26 00            [ 8] 1392 	ld	h, #0x00
                                   1393 ;	spillPairReg hl
                                   1394 ;	spillPairReg hl
      000514 29               [ 8] 1395 	add	hl, hl
      000515 11rBCr02         [12] 1396 	ld	de, #_sprite_manager_sprites
      000518 19               [ 8] 1397 	add	hl, de
      000519 5D               [ 4] 1398 	ld	e, l
      00051A 54               [ 4] 1399 	ld	d, h
      00051B 1A               [ 8] 1400 	ld	a, (de)
      00051C 21r1Br00         [12] 1401 	ld	hl, #_THIS
      00051F 22               [ 8] 1402 	ld	(hl+), a
      000520 13               [ 8] 1403 	inc	de
      000521 1A               [ 8] 1404 	ld	a, (de)
      000522 77               [ 8] 1405 	ld	(hl), a
      000523                       1406 00109$:
      000523 21r02r00         [12] 1407 	ld	hl, #_sprite_manager_updatables
      000526 4E               [ 8] 1408 	ld	c, (hl)
      000527 FAr1Ar00         [16] 1409 	ld	a, (#_THIS_IDX)
      00052A 91               [ 4] 1410 	sub	a, c
      00052B CArAFr05         [16] 1411 	jp	Z,00105$
                           00052E  1412 	C$SpriteManager.c$184$1_0$220	= .
                                   1413 	.globl	C$SpriteManager.c$184$1_0$220
                                   1414 ;C:/ZGB-2023.0/common/src/SpriteManager.c:184: if(!THIS->marked_for_removal) {
      00052E FAr1Br00         [16] 1415 	ld	a, (#_THIS)
      000531 F8 00            [12] 1416 	ldhl	sp,	#0
      000533 77               [ 8] 1417 	ld	(hl), a
      000534 FAr1Cr00         [16] 1418 	ld	a, (#_THIS + 1)
      000537 F8 01            [12] 1419 	ldhl	sp,	#1
      000539 77               [ 8] 1420 	ld	(hl), a
      00053A D1               [12] 1421 	pop	de
      00053B D5               [16] 1422 	push	de
      00053C 21 14 00         [12] 1423 	ld	hl, #0x0014
      00053F 19               [ 8] 1424 	add	hl, de
      000540 4D               [ 4] 1425 	ld	c, l
      000541 44               [ 4] 1426 	ld	b, h
      000542 0A               [ 8] 1427 	ld	a, (bc)
      000543 B7               [ 4] 1428 	or	a, a
      000544 20 48            [12] 1429 	jr	NZ, 00110$
                           000546  1430 	C$SpriteManager.c$186$4_0$223	= .
                                   1431 	.globl	C$SpriteManager.c$186$4_0$223
                                   1432 ;C:/ZGB-2023.0/common/src/SpriteManager.c:186: SetBank(spriteBanks[THIS->type]);
      000546 D1               [12] 1433 	pop	de
      000547 D5               [16] 1434 	push	de
      000548 21 13 00         [12] 1435 	ld	hl, #0x0013
      00054B 19               [ 8] 1436 	add	hl, de
      00054C 4D               [ 4] 1437 	ld	c, l
      00054D 44               [ 4] 1438 	ld	b, h
      00054E 0A               [ 8] 1439 	ld	a, (bc)
      00054F 4F               [ 4] 1440 	ld	c, a
      000550 21r00r00         [12] 1441 	ld	hl, #_spriteBanks
      000553 06 00            [ 8] 1442 	ld	b, #0x00
      000555 09               [ 8] 1443 	add	hl, bc
      000556 7E               [ 8] 1444 	ld	a, (hl)
      000557 F5               [16] 1445 	push	af
      000558 33               [ 8] 1446 	inc	sp
      000559 CDrFDr04         [24] 1447 	call	_SetBank
      00055C 33               [ 8] 1448 	inc	sp
                           00055D  1449 	C$SpriteManager.c$188$4_0$223	= .
                                   1450 	.globl	C$SpriteManager.c$188$4_0$223
                                   1451 ;C:/ZGB-2023.0/common/src/SpriteManager.c:188: spriteUpdateFuncs[THIS->type]();
      00055D 21r1Br00         [12] 1452 	ld	hl, #_THIS
      000560 2A               [ 8] 1453 	ld	a, (hl+)
      000561 4F               [ 4] 1454 	ld	c, a
      000562 46               [ 8] 1455 	ld	b, (hl)
      000563 21 13 00         [12] 1456 	ld	hl, #0x0013
      000566 09               [ 8] 1457 	add	hl, bc
      000567 6E               [ 8] 1458 	ld	l, (hl)
                                   1459 ;	spillPairReg hl
      000568 26 00            [ 8] 1460 	ld	h, #0x00
                                   1461 ;	spillPairReg hl
                                   1462 ;	spillPairReg hl
      00056A 29               [ 8] 1463 	add	hl, hl
      00056B 11r00r00         [12] 1464 	ld	de, #_spriteUpdateFuncs
      00056E 19               [ 8] 1465 	add	hl, de
      00056F 2A               [ 8] 1466 	ld	a, (hl+)
      000570 4F               [ 4] 1467 	ld	c, a
      000571 66               [ 8] 1468 	ld	h, (hl)
                                   1469 ;	spillPairReg hl
      000572 69               [ 4] 1470 	ld	l, c
                                   1471 ;	spillPairReg hl
                                   1472 ;	spillPairReg hl
      000573 CDr00r00         [24] 1473 	call	___sdcc_call_hl
                           000576  1474 	C$SpriteManager.c$190$4_0$223	= .
                                   1475 	.globl	C$SpriteManager.c$190$4_0$223
                                   1476 ;C:/ZGB-2023.0/common/src/SpriteManager.c:190: if(THIS == scroll_target)
      000576 FAr1Br00         [16] 1477 	ld	a, (#_THIS)
      000579 21r00r00         [12] 1478 	ld	hl, #_scroll_target
      00057C 96               [ 8] 1479 	sub	a, (hl)
      00057D 20 0C            [12] 1480 	jr	NZ, 00102$
      00057F FAr1Cr00         [16] 1481 	ld	a, (#_THIS + 1)
      000582 21r01r00         [12] 1482 	ld	hl, #_scroll_target + 1
      000585 96               [ 8] 1483 	sub	a, (hl)
      000586 20 03            [12] 1484 	jr	NZ, 00102$
                           000588  1485 	C$SpriteManager.c$191$4_0$223	= .
                                   1486 	.globl	C$SpriteManager.c$191$4_0$223
                                   1487 ;C:/ZGB-2023.0/common/src/SpriteManager.c:191: RefreshScroll();
      000588 CDr00r00         [24] 1488 	call	_RefreshScroll
      00058B                       1489 00102$:
                           00058B  1490 	C$SpriteManager.c$193$4_0$223	= .
                                   1491 	.globl	C$SpriteManager.c$193$4_0$223
                                   1492 ;C:/ZGB-2023.0/common/src/SpriteManager.c:193: DrawSprite(); //this needs to be done using the sprite bank because the animation array is stored there
      00058B CDr00r00         [24] 1493 	call	_DrawSprite
      00058E                       1494 00110$:
                           00058E  1495 	C$SpriteManager.c$183$2_0$221	= .
                                   1496 	.globl	C$SpriteManager.c$183$2_0$221
                                   1497 ;C:/ZGB-2023.0/common/src/SpriteManager.c:183: SPRITEMANAGER_ITERATE(THIS_IDX, THIS) {
      00058E 21r1Ar00         [12] 1498 	ld	hl, #_THIS_IDX
      000591 34               [12] 1499 	inc	(hl)
      000592 4E               [ 8] 1500 	ld	c, (hl)
      000593 0C               [ 4] 1501 	inc	c
      000594 21r02r00         [12] 1502 	ld	hl, #_sprite_manager_updatables
      000597 06 00            [ 8] 1503 	ld	b, #0x00
      000599 09               [ 8] 1504 	add	hl, bc
      00059A 6E               [ 8] 1505 	ld	l, (hl)
                                   1506 ;	spillPairReg hl
      00059B 26 00            [ 8] 1507 	ld	h, #0x00
                                   1508 ;	spillPairReg hl
                                   1509 ;	spillPairReg hl
      00059D 29               [ 8] 1510 	add	hl, hl
      00059E 11rBCr02         [12] 1511 	ld	de, #_sprite_manager_sprites
      0005A1 19               [ 8] 1512 	add	hl, de
      0005A2 5D               [ 4] 1513 	ld	e, l
      0005A3 54               [ 4] 1514 	ld	d, h
      0005A4 1A               [ 8] 1515 	ld	a, (de)
      0005A5 21r1Br00         [12] 1516 	ld	hl, #_THIS
      0005A8 22               [ 8] 1517 	ld	(hl+), a
      0005A9 13               [ 8] 1518 	inc	de
      0005AA 1A               [ 8] 1519 	ld	a, (de)
      0005AB 77               [ 8] 1520 	ld	(hl), a
      0005AC C3r23r05         [16] 1521 	jp	00109$
      0005AF                       1522 00105$:
                           0005AF  1523 	C$SpriteManager.c$197$1_0$220	= .
                                   1524 	.globl	C$SpriteManager.c$197$1_0$220
                                   1525 ;C:/ZGB-2023.0/common/src/SpriteManager.c:197: SwapOAMs();
      0005AF CDr00r00         [24] 1526 	call	_SwapOAMs
                           0005B2  1527 	C$SpriteManager.c$199$1_0$220	= .
                                   1528 	.globl	C$SpriteManager.c$199$1_0$220
                                   1529 ;C:/ZGB-2023.0/common/src/SpriteManager.c:199: if(sprite_manager_removal_check) {
      0005B2 21rF8r02         [12] 1530 	ld	hl, #_sprite_manager_removal_check
      0005B5 7E               [ 8] 1531 	ld	a, (hl)
      0005B6 B7               [ 4] 1532 	or	a, a
      0005B7 28 05            [12] 1533 	jr	Z, 00111$
                           0005B9  1534 	C$SpriteManager.c$200$2_0$224	= .
                                   1535 	.globl	C$SpriteManager.c$200$2_0$224
                                   1536 ;C:/ZGB-2023.0/common/src/SpriteManager.c:200: SpriteManagerFlushRemove();
      0005B9 33               [ 8] 1537 	inc	sp
      0005BA 33               [ 8] 1538 	inc	sp
      0005BB C3r61r04         [16] 1539 	jp	_SpriteManagerFlushRemove
      0005BE                       1540 00111$:
                           0005BE  1541 	C$SpriteManager.c$202$1_0$220	= .
                                   1542 	.globl	C$SpriteManager.c$202$1_0$220
                                   1543 ;C:/ZGB-2023.0/common/src/SpriteManager.c:202: }
      0005BE 33               [ 8] 1544 	inc	sp
      0005BF 33               [ 8] 1545 	inc	sp
                           0005C0  1546 	C$SpriteManager.c$202$1_0$220	= .
                                   1547 	.globl	C$SpriteManager.c$202$1_0$220
                           0005C0  1548 	XG$SpriteManagerUpdate$0$0	= .
                                   1549 	.globl	XG$SpriteManagerUpdate$0$0
      0005C0 C9               [16] 1550 	ret
                                   1551 	.area _CODE
                                   1552 	.area _INITIALIZER
                           000000  1553 FSpriteManager$__xinit_sprite_manager_sprites_pool$0_0$0 == .
      000000                       1554 __xinit__sprite_manager_sprites_pool:
      000000rE3r02                 1555 	.dw (_sprite_manager_sprites_poolSTACK - 1)
                           000002  1556 FSpriteManager$__xinit_sprite_manager_updatables$0_0$0 == .
      000002                       1557 __xinit__sprite_manager_updatables:
      000002 00                    1558 	.db #0x00	; 0
      000003 00                    1559 	.db 0x00
      000004 00                    1560 	.db 0x00
      000005 00                    1561 	.db 0x00
      000006 00                    1562 	.db 0x00
      000007 00                    1563 	.db 0x00
      000008 00                    1564 	.db 0x00
      000009 00                    1565 	.db 0x00
      00000A 00                    1566 	.db 0x00
      00000B 00                    1567 	.db 0x00
      00000C 00                    1568 	.db 0x00
      00000D 00                    1569 	.db 0x00
      00000E 00                    1570 	.db 0x00
      00000F 00                    1571 	.db 0x00
      000010 00                    1572 	.db 0x00
      000011 00                    1573 	.db 0x00
      000012 00                    1574 	.db 0x00
      000013 00                    1575 	.db 0x00
      000014 00                    1576 	.db 0x00
      000015 00                    1577 	.db 0x00
      000016 00                    1578 	.db 0x00
                           000017  1579 FSpriteManager$__xinit_last_sprite_loaded$0_0$0 == .
      000017                       1580 __xinit__last_sprite_loaded:
      000017 00 00                 1581 	.dw #0x0000
                           000019  1582 FSpriteManager$__xinit_last_sprite_pal_loaded$0_0$0 == .
      000019                       1583 __xinit__last_sprite_pal_loaded:
      000019 00                    1584 	.db #0x00	; 0
                           00001A  1585 FSpriteManager$__xinit_THIS_IDX$0_0$0 == .
      00001A                       1586 __xinit__THIS_IDX:
      00001A 00                    1587 	.db #0x00	; 0
                           00001B  1588 FSpriteManager$__xinit_THIS$0_0$0 == .
      00001B                       1589 __xinit__THIS:
      00001B 00 00                 1590 	.dw #0x0000
                                   1591 	.area _CABS (ABS)
